 oracledb

 Timestamp is 593ff70a (Tue Jun 13 20:00:34 2017)

 Preferred load address is 0000000180000000

 Start         Length     Name                   Class
 0001:00000000 00000110H .text$di                CODE
 0001:00000110 0004a7e0H .text$mn                CODE
 0001:0004a8f0 00000020H .text$mn$00             CODE
 0001:0004a910 00003c90H .text$x                 CODE
 0001:0004e5a0 00000254H .text$yd                CODE
 0002:00000000 00000430H .idata$5                DATA
 0002:00000430 00000010H .00cfg                  DATA
 0002:00000440 00000008H .CRT$XCA                DATA
 0002:00000448 00000018H .CRT$XCC                DATA
 0002:00000460 00000010H .CRT$XCL                DATA
 0002:00000470 00000038H .CRT$XCU                DATA
 0002:000004a8 00000008H .CRT$XCZ                DATA
 0002:000004b0 00000008H .CRT$XIA                DATA
 0002:000004b8 00000030H .CRT$XIC                DATA
 0002:000004e8 00000008H .CRT$XIZ                DATA
 0002:000004f0 00000008H .CRT$XLA                DATA
 0002:000004f8 00000008H .CRT$XLZ                DATA
 0002:00000500 00000008H .CRT$XPA                DATA
 0002:00000508 00000010H .CRT$XPX                DATA
 0002:00000518 00000008H .CRT$XPXA               DATA
 0002:00000520 00000008H .CRT$XPZ                DATA
 0002:00000528 00000008H .CRT$XTA                DATA
 0002:00000530 00000010H .CRT$XTZ                DATA
 0002:00000540 00014288H .rdata                  DATA
 0002:000147c8 00000028H .rdata$T                DATA
 0002:000147f0 00000884H .rdata$r                DATA
 0002:00015074 000004b4H .rdata$zzzdbg           DATA
 0002:00015528 00000008H .rtc$IAA                DATA
 0002:00015530 00000008H .rtc$IZZ                DATA
 0002:00015538 00000008H .rtc$TAA                DATA
 0002:00015540 00000010H .rtc$TZZ                DATA
 0002:00015550 00009520H .xdata                  DATA
 0002:0001ea70 000002fcH .xdata$x                DATA
 0002:0001ed6c 00000020H .didat$2                DATA
 0002:0001ed8c 00000024H .didat$3                DATA
 0002:0001edb0 000002b0H .didat$4                DATA
 0002:0001f060 000015a0H .didat$6                DATA
 0002:00020600 000002b0H .didat$7                DATA
 0002:000208b0 00000054H .edata                  DATA
 0002:00020904 00000028H .idata$2                DATA
 0002:0002092c 00000014H .idata$3                DATA
 0002:00020940 00000430H .idata$4                DATA
 0002:00020d70 000009ccH .idata$6                DATA
 0003:00000000 00000aa0H .data                   DATA
 0003:00000aa0 00000368H .data$r                 DATA
 0003:00000e08 000002b8H .didat$5                DATA
 0003:000010c0 000018acH .bss                    DATA
 0004:00000000 00003708H .pdata                  DATA
 0005:00000000 000000b8H .gfids$x                DATA
 0005:000000b8 0000012cH .gfids$y                DATA
 0006:00000000 00000004H .tls                    DATA
 0006:00000004 00000004H .tls$                   DATA
 0006:00000008 00000001H .tls$ZZZ                DATA
 0007:00000000 00000060H .rsrc$01                DATA
 0007:00000060 00000180H .rsrc$02                DATA

  Address         Publics by Value              Rva+Base               Lib:Object

 0000:00000000       __dynamic_value_reloc_table 0000000000000000     <absolute>
 0000:00000000       __guard_longjmp_table      0000000000000000     <absolute>
 0000:00000000       __guard_longjmp_count      0000000000000000     <absolute>
 0000:00000000       __guard_fids_count         0000000000000000     <absolute>
 0000:00000000       __guard_iat_count          0000000000000000     <absolute>
 0000:00000000       ___safe_se_handler_table   0000000000000000     <absolute>
 0000:00000000       ___safe_se_handler_count   0000000000000000     <absolute>
 0000:00000000       __guard_iat_table          0000000000000000     <absolute>
 0000:00000000       __guard_fids_table         0000000000000000     <absolute>
 0000:00000100       __guard_flags              0000000000000100     <absolute>
 0000:00000000       __ImageBase                0000000180000000     <linker-defined>
 0001:00000110       __local_stdio_printf_options 0000000180001110 f i njsOracle.obj
 0001:00000120       sprintf_s                  0000000180001120 f i njsOracle.obj
 0001:00000180       ?what@exception@stdext@@UEBAPEBDXZ 0000000180001180 f i njsOracle.obj
 0001:000001a0       ?_Raise@exception@stdext@@QEBAXXZ 00000001800011a0 f i njsOracle.obj
 0001:000001e0       ?imbue@?$basic_streambuf@DU?$char_traits@D@std@@@std@@MEAAXAEBVlocale@2@@Z 00000001800011e0 f i njsOracle.obj
 0001:000001e0       _guard_check_icall_nop     00000001800011e0 f i LIBCMT:guard_support.obj
 0001:000001e0       __except_validate_context_record 00000001800011e0 f i libvcruntime:jbcxrval.obj
 0001:000001e0       ?_Lock@?$basic_streambuf@DU?$char_traits@D@std@@@std@@UEAAXXZ 00000001800011e0 f i njsOracle.obj
 0001:000001e0       ??$destroy@PEAD@?$_Wrap_alloc@V?$allocator@D@std@@@std@@QEAAXPEAPEAD@Z 00000001800011e0 f i njsOracle.obj
 0001:000001e0       ?_Unlock@?$basic_streambuf@DU?$char_traits@D@std@@@std@@UEAAXXZ 00000001800011e0 f i njsOracle.obj
 0001:000001e0       ?_Doraise@exception@stdext@@MEBAXXZ 00000001800011e0 f i njsOracle.obj
 0001:000001e0       ?lobPrefetchSize@ConnImpl@@UEAAXI@Z 00000001800011e0 f i dpiConnImpl.obj
 0001:000001e0       ??1?$_String_alloc@U?$_String_base_types@DV?$allocator@D@std@@@std@@@std@@QEAA@XZ 00000001800011e0 f i njsOracle.obj
 0001:000001f0       ??_EException@dpi@@UEAAPEAXI@Z 00000001800011f0 f i * CIL library *:* CIL module *
 0001:000001f0       ??_Eexception@stdext@@UEAAPEAXI@Z 00000001800011f0 f i * CIL library *:* CIL module *
 0001:000001f0       ??_Gexception@stdext@@UEAAPEAXI@Z 00000001800011f0 f i njsOracle.obj
 0001:000001f0       ??_GException@dpi@@UEAAPEAXI@Z 00000001800011f0 f i dpiEnvImpl.obj
 0001:000001f0       ??_Eruntime_error@std@@UEAAPEAXI@Z 00000001800011f0 f i * CIL library *:* CIL module *
 0001:000001f0       ??_Gruntime_error@std@@UEAAPEAXI@Z 00000001800011f0 f i njsOracle.obj
 0001:00000220       ?_Doraise@runtime_error@std@@MEBAXXZ 0000000180001220 f i njsOracle.obj
 0001:00000220       ?_Doraise@failure@ios_base@std@@MEBAXXZ 0000000180001220 f i njsOracle.obj
 0001:00000240       ??1runtime_error@std@@UEAA@XZ 0000000180001240 f i njsOracle.obj
 0001:00000240       ??1failure@ios_base@std@@UEAA@XZ 0000000180001240 f i njsOracle.obj
 0001:00000240       ??1Exception@dpi@@UEAA@XZ  0000000180001240 f i dpiException.obj
 0001:00000250       ??1_Locinfo@std@@QEAA@XZ   0000000180001250 f i njsOracle.obj
 0001:000002f0       ??_G_Facet_base@std@@UEAAPEAXI@Z 00000001800012f0 f i njsOracle.obj
 0001:000002f0       ??_E_Facet_base@std@@UEAAPEAXI@Z 00000001800012f0 f i * CIL library *:* CIL module *
 0001:00000320       ?_Incref@facet@locale@std@@UEAAXXZ 0000000180001320 f i njsOracle.obj
 0001:00000330       ?_Decref@facet@locale@std@@UEAAPEAV_Facet_base@3@XZ 0000000180001330 f i njsOracle.obj
 0001:00000340       ??1facet@locale@std@@MEAA@XZ 0000000180001340 f i njsOracle.obj
 0001:00000350       ??1locale@std@@QEAA@XZ     0000000180001350 f i njsOracle.obj
 0001:00000380       ?_Getcat@?$ctype@D@std@@SA_KPEAPEBVfacet@locale@2@PEBV42@@Z 0000000180001380 f i njsOracle.obj
 0001:000004e0       ?do_tolower@?$ctype@D@std@@MEBADD@Z 00000001800014e0 f i njsOracle.obj
 0001:000004f0       ?do_tolower@?$ctype@D@std@@MEBAPEBDPEADPEBD@Z 00000001800014f0 f i njsOracle.obj
 0001:00000550       ?do_toupper@?$ctype@D@std@@MEBADD@Z 0000000180001550 f i njsOracle.obj
 0001:00000560       ?do_toupper@?$ctype@D@std@@MEBAPEBDPEADPEBD@Z 0000000180001560 f i njsOracle.obj
 0001:000005c0       ?do_narrow@?$ctype@D@std@@MEBADDD@Z 00000001800015c0 f i njsOracle.obj
 0001:000005c0       ?do_widen@?$ctype@D@std@@MEBADD@Z 00000001800015c0 f i njsOracle.obj
 0001:000005d0       ?do_widen@?$ctype@D@std@@MEBAPEBDPEBD0PEAD@Z 00000001800015d0 f i njsOracle.obj
 0001:000005f0       ?do_narrow@?$ctype@D@std@@MEBAPEBDPEBD0DPEAD@Z 00000001800015f0 f i njsOracle.obj
 0001:00000610       ??_G?$ctype@D@std@@MEAAPEAXI@Z 0000000180001610 f i njsOracle.obj
 0001:00000610       ??_E?$ctype@D@std@@MEAAPEAXI@Z 0000000180001610 f i * CIL library *:* CIL module *
 0001:00000680       ??_Eerror_category@std@@UEAAPEAXI@Z 0000000180001680 f i * CIL library *:* CIL module *
 0001:00000680       ??_G_Iostream_error_category@std@@UEAAPEAXI@Z 0000000180001680 f i njsOracle.obj
 0001:00000680       ??_E_Iostream_error_category@std@@UEAAPEAXI@Z 0000000180001680 f i * CIL library *:* CIL module *
 0001:00000680       ??_Gerror_category@std@@UEAAPEAXI@Z 0000000180001680 f i njsOracle.obj
 0001:000006b0       ?message@error_code@std@@QEBA?AV?$basic_string@DU?$char_traits@D@std@@V?$allocator@D@2@@2@XZ 00000001800016b0 f i njsOracle.obj
 0001:000006e0       ?default_error_condition@error_category@std@@UEBA?AVerror_condition@2@H@Z 00000001800016e0 f i njsOracle.obj
 0001:000006f0       ?equivalent@error_category@std@@UEBA_NHAEBVerror_condition@2@@Z 00000001800016f0 f i njsOracle.obj
 0001:00000710       ?equivalent@error_category@std@@UEBA_NAEBVerror_code@2@H@Z 0000000180001710 f i njsOracle.obj
 0001:00000730       ?_Makestr@_System_error@std@@CA?AV?$basic_string@DU?$char_traits@D@std@@V?$allocator@D@2@@2@Verror_code@2@V32@@Z 0000000180001730 f i njsOracle.obj
 0001:00000840       ??_Gfailure@ios_base@std@@UEAAPEAXI@Z 0000000180001840 f i njsOracle.obj
 0001:00000840       ??_E_System_error@std@@UEAAPEAXI@Z 0000000180001840 f i * CIL library *:* CIL module *
 0001:00000840       ??_G_System_error@std@@UEAAPEAXI@Z 0000000180001840 f i njsOracle.obj
 0001:00000840       ??_Efailure@ios_base@std@@UEAAPEAXI@Z 0000000180001840 f i * CIL library *:* CIL module *
 0001:00000870       ?message@_Generic_error_category@std@@UEBA?AV?$basic_string@DU?$char_traits@D@std@@V?$allocator@D@2@@2@H@Z 0000000180001870 f i njsOracle.obj
 0001:000008d0       ?name@_Iostream_error_category@std@@UEBAPEBDXZ 00000001800018d0 f i njsOracle.obj
 0001:000008e0       ?message@_Iostream_error_category@std@@UEBA?AV?$basic_string@DU?$char_traits@D@std@@V?$allocator@D@2@@2@H@Z 00000001800018e0 f i njsOracle.obj
 0001:00000930       ?clear@ios_base@std@@QEAAXH_N@Z 0000000180001930 f i njsOracle.obj
 0001:00000dc0       ?getloc@ios_base@std@@QEBA?AVlocale@2@XZ 0000000180001dc0 f i njsOracle.obj
 0001:00000df0       ?_Init@ios_base@std@@IEAAXXZ 0000000180001df0 f i njsOracle.obj
 0001:00000e70       ??_Gios_base@std@@UEAAPEAXI@Z 0000000180001e70 f i njsOracle.obj
 0001:00000e70       ??_Eios_base@std@@UEAAPEAXI@Z 0000000180001e70 f i * CIL library *:* CIL module *
 0001:000010d0       ?NewInstance@Nan@@YA?AV?$MaybeLocal@VObject@v8@@@v8@@V?$Local@VFunction@v8@@@3@@Z 00000001800020d0 f i njsOracle.obj
 0001:00001150       ?NewInstance@Nan@@YA?AV?$MaybeLocal@VObject@v8@@@v8@@V?$Local@VObjectTemplate@v8@@@3@@Z 0000000180002150 f i njsOracle.obj
 0001:000011d0       ?GetFunction@Nan@@YA?AV?$MaybeLocal@VFunction@v8@@@v8@@V?$Local@VFunctionTemplate@v8@@@3@@Z 00000001800021d0 f i njsOracle.obj
 0001:00001250       ?Set@Nan@@YA?AV?$Maybe@_N@v8@@V?$Local@VObject@v8@@@3@V?$Local@VValue@v8@@@3@1@Z 0000000180002250 f i njsOracle.obj
 0001:000012e0       ?convert@?$ToFactory@VInteger@v8@@@imp@Nan@@SA?AV?$MaybeLocal@VInteger@v8@@@v8@@V?$Local@VValue@v8@@@5@@Z 00000001800022e0 f i njsOracle.obj
 0001:00001370       ?convert@?$ToFactory@I@imp@Nan@@SA?AV?$Maybe@I@v8@@V?$Local@VValue@v8@@@5@@Z 0000000180002370 f i njsOracle.obj
 0001:000013f0       ?convert@?$ToFactory@H@imp@Nan@@SA?AV?$Maybe@H@v8@@V?$Local@VValue@v8@@@5@@Z 00000001800023f0 f i njsOracle.obj
 0001:00001470       ?New@?$Factory@VFunctionTemplate@v8@@@imp@Nan@@SA?AV?$Local@VFunctionTemplate@v8@@@v8@@P6AXAEBV?$FunctionCallbackInfo@VValue@v8@@@3@@ZV?$Local@VValue@v8@@@5@V?$Local@VSignature@v8@@@5@@Z 0000000180002470 f i njsOracle.obj
 0001:000015e0       ?ThrowError@Nan@@YAXPEBD@Z 00000001800025e0 f i njsOracle.obj
 0001:00001680       ??1HandleScope@Nan@@QEAA@XZ 0000000180002680 f i njsOracle.obj
 0001:00001680       ??1EscapableHandleScope@Nan@@QEAA@XZ 0000000180002680 f i njsPool.obj
 0001:00001690       ??1?$Persistent@VObject@v8@@V?$NonCopyablePersistentTraits@VObject@v8@@@2@@Nan@@QEAA@XZ 0000000180002690 f i njsOracle.obj
 0001:00001690       ??1?$Persistent@VFunction@v8@@V?$NonCopyablePersistentTraits@VFunction@v8@@@2@@Nan@@QEAA@XZ 0000000180002690 f i njsOracle.obj
 0001:000016b0       ?SetPrototypeMethod@Nan@@YAXV?$Local@VFunctionTemplate@v8@@@v8@@PEBDP6AXAEBV?$FunctionCallbackInfo@VValue@v8@@@1@@Z@Z 00000001800026b0 f i njsOracle.obj
 0001:000017c0       ?SetAccessor@Nan@@YAXV?$Local@VObjectTemplate@v8@@@v8@@V?$Local@VString@v8@@@3@P6AX1AEBV?$PropertyCallbackInfo@VValue@v8@@@1@@ZP6AX1V?$Local@VValue@v8@@@3@AEBV?$PropertyCallbackInfo@X@1@@Z4W4AccessControl@3@W4PropertyAttribute@3@V?$Local@VAccessorSignature@v8@@@3@@Z 00000001800027c0 f i njsOracle.obj
 0001:00001930       ??1ObjectWrap@Nan@@UEAA@XZ 0000000180002930 f i njsOracle.obj
 0001:000019b0       ?Wrap@ObjectWrap@Nan@@IEAAXV?$Local@VObject@v8@@@v8@@@Z 00000001800029b0 f i njsOracle.obj
 0001:00001a90       ?Ref@ObjectWrap@Nan@@MEAAXXZ 0000000180002a90 f i njsOracle.obj
 0001:00001ad0       ?Unref@ObjectWrap@Nan@@MEAAXXZ 0000000180002ad0 f i njsOracle.obj
 0001:00001b80       ?WeakCallback@ObjectWrap@Nan@@CAXAEBV?$WeakCallbackInfo@VObjectWrap@Nan@@@v8@@@Z 0000000180002b80 f i njsOracle.obj
 0001:00001c10       ??_EObjectWrap@Nan@@UEAAPEAXI@Z 0000000180002c10 f i * CIL library *:* CIL module *
 0001:00001c10       ??_GObjectWrap@Nan@@UEAAPEAXI@Z 0000000180002c10 f i njsOracle.obj
 0001:00001c50       ??0connectionBaton@@QEAA@V?$Local@VFunction@v8@@@v8@@V?$Local@VObject@v8@@@2@@Z 0000000180002c50 f i njsOracle.obj
 0001:00001e10       ??1connectionBaton@@QEAA@XZ 0000000180002e10 f i njsOracle.obj
 0001:00001eb0       ??0Oracledb@@AEAA@XZ       0000000180002eb0 f   njsOracle.obj
 0001:00002030       ??_GOracledb@@EEAAPEAXI@Z  0000000180003030 f i njsOracle.obj
 0001:00002030       ??_EOracledb@@EEAAPEAXI@Z  0000000180003030 f i * CIL library *:* CIL module *
 0001:00002070       ??1Oracledb@@EEAA@XZ       0000000180003070 f   njsOracle.obj
 0001:000021b0       ?driverName@Oracledb@@AEBA?BV?$basic_string@DU?$char_traits@D@std@@V?$allocator@D@2@@std@@XZ 00000001800031b0 f   njsOracle.obj
 0001:00002290       ??_D?$basic_stringstream@DU?$char_traits@D@std@@V?$allocator@D@2@@std@@QEAAXXZ 0000000180003290 f i njsOracle.obj
 0001:000022c0       ?Init@Oracledb@@SAXV?$Local@VObject@v8@@@v8@@@Z 00000001800032c0 f   njsOracle.obj
 0001:00002ba0       ?New@Oracledb@@CAXAEBV?$FunctionCallbackInfo@VValue@v8@@@Nan@@@Z 0000000180003ba0 f   njsOracle.obj
 0001:00002ca0       ?GetPoolMin@Oracledb@@CAXV?$Local@VString@v8@@@v8@@AEBV?$PropertyCallbackInfo@VValue@v8@@@Nan@@@Z 0000000180003ca0 f   njsOracle.obj
 0001:00002dd0       ?SetPoolMin@Oracledb@@CAXV?$Local@VString@v8@@@v8@@V?$Local@VValue@v8@@@3@AEBV?$PropertyCallbackInfo@X@Nan@@@Z 0000000180003dd0 f   njsOracle.obj
 0001:00002fe0       ?GetPoolMax@Oracledb@@CAXV?$Local@VString@v8@@@v8@@AEBV?$PropertyCallbackInfo@VValue@v8@@@Nan@@@Z 0000000180003fe0 f   njsOracle.obj
 0001:00003110       ?SetPoolMax@Oracledb@@CAXV?$Local@VString@v8@@@v8@@V?$Local@VValue@v8@@@3@AEBV?$PropertyCallbackInfo@X@Nan@@@Z 0000000180004110 f   njsOracle.obj
 0001:00003320       ?GetPoolIncrement@Oracledb@@CAXV?$Local@VString@v8@@@v8@@AEBV?$PropertyCallbackInfo@VValue@v8@@@Nan@@@Z 0000000180004320 f   njsOracle.obj
 0001:00003460       ?SetPoolIncrement@Oracledb@@CAXV?$Local@VString@v8@@@v8@@V?$Local@VValue@v8@@@3@AEBV?$PropertyCallbackInfo@X@Nan@@@Z 0000000180004460 f   njsOracle.obj
 0001:00003670       ?GetPoolTimeout@Oracledb@@CAXV?$Local@VString@v8@@@v8@@AEBV?$PropertyCallbackInfo@VValue@v8@@@Nan@@@Z 0000000180004670 f   njsOracle.obj
 0001:000037a0       ?SetPoolTimeout@Oracledb@@CAXV?$Local@VString@v8@@@v8@@V?$Local@VValue@v8@@@3@AEBV?$PropertyCallbackInfo@X@Nan@@@Z 00000001800047a0 f   njsOracle.obj
 0001:000039b0       ?GetMaxRows@Oracledb@@CAXV?$Local@VString@v8@@@v8@@AEBV?$PropertyCallbackInfo@VValue@v8@@@Nan@@@Z 00000001800049b0 f   njsOracle.obj
 0001:00003af0       ?SetMaxRows@Oracledb@@CAXV?$Local@VString@v8@@@v8@@V?$Local@VValue@v8@@@3@AEBV?$PropertyCallbackInfo@X@Nan@@@Z 0000000180004af0 f   njsOracle.obj
 0001:00003d80       ?GetOutFormat@Oracledb@@CAXV?$Local@VString@v8@@@v8@@AEBV?$PropertyCallbackInfo@VValue@v8@@@Nan@@@Z 0000000180004d80 f   njsOracle.obj
 0001:00003eb0       ?SetOutFormat@Oracledb@@CAXV?$Local@VString@v8@@@v8@@V?$Local@VValue@v8@@@3@AEBV?$PropertyCallbackInfo@X@Nan@@@Z 0000000180004eb0 f   njsOracle.obj
 0001:000040c0       ?GetStmtCacheSize@Oracledb@@CAXV?$Local@VString@v8@@@v8@@AEBV?$PropertyCallbackInfo@VValue@v8@@@Nan@@@Z 00000001800050c0 f   njsOracle.obj
 0001:00004200       ?SetStmtCacheSize@Oracledb@@CAXV?$Local@VString@v8@@@v8@@V?$Local@VValue@v8@@@3@AEBV?$PropertyCallbackInfo@X@Nan@@@Z 0000000180005200 f   njsOracle.obj
 0001:00004410       ?GetPrefetchRows@Oracledb@@CAXV?$Local@VString@v8@@@v8@@AEBV?$PropertyCallbackInfo@VValue@v8@@@Nan@@@Z 0000000180005410 f   njsOracle.obj
 0001:00004540       ?SetPrefetchRows@Oracledb@@CAXV?$Local@VString@v8@@@v8@@V?$Local@VValue@v8@@@3@AEBV?$PropertyCallbackInfo@X@Nan@@@Z 0000000180005540 f   njsOracle.obj
 0001:00004750       ?GetAutoCommit@Oracledb@@CAXV?$Local@VString@v8@@@v8@@AEBV?$PropertyCallbackInfo@VValue@v8@@@Nan@@@Z 0000000180005750 f   njsOracle.obj
 0001:00004870       ?SetAutoCommit@Oracledb@@CAXV?$Local@VString@v8@@@v8@@V?$Local@VValue@v8@@@3@AEBV?$PropertyCallbackInfo@X@Nan@@@Z 0000000180005870 f   njsOracle.obj
 0001:00004960       ?GetExtendedMetaData@Oracledb@@CAXV?$Local@VString@v8@@@v8@@AEBV?$PropertyCallbackInfo@VValue@v8@@@Nan@@@Z 0000000180005960 f   njsOracle.obj
 0001:00004a80       ?SetExtendedMetaData@Oracledb@@CAXV?$Local@VString@v8@@@v8@@V?$Local@VValue@v8@@@3@AEBV?$PropertyCallbackInfo@X@Nan@@@Z 0000000180005a80 f   njsOracle.obj
 0001:00004b70       ?GetVersion@Oracledb@@CAXV?$Local@VString@v8@@@v8@@AEBV?$PropertyCallbackInfo@VValue@v8@@@Nan@@@Z 0000000180005b70 f   njsOracle.obj
 0001:00004b90       ?SetVersion@Oracledb@@CAXV?$Local@VString@v8@@@v8@@V?$Local@VValue@v8@@@3@AEBV?$PropertyCallbackInfo@X@Nan@@@Z 0000000180005b90 f   njsOracle.obj
 0001:00004d50       ?GetConnectionClass@Oracledb@@CAXV?$Local@VString@v8@@@v8@@AEBV?$PropertyCallbackInfo@VValue@v8@@@Nan@@@Z 0000000180005d50 f   njsOracle.obj
 0001:00004ea0       ?SetConnectionClass@Oracledb@@CAXV?$Local@VString@v8@@@v8@@V?$Local@VValue@v8@@@3@AEBV?$PropertyCallbackInfo@X@Nan@@@Z 0000000180005ea0 f   njsOracle.obj
 0001:00005040       ?GetExternalAuth@Oracledb@@CAXV?$Local@VString@v8@@@v8@@AEBV?$PropertyCallbackInfo@VValue@v8@@@Nan@@@Z 0000000180006040 f   njsOracle.obj
 0001:00005150       ?SetExternalAuth@Oracledb@@CAXV?$Local@VString@v8@@@v8@@V?$Local@VValue@v8@@@3@AEBV?$PropertyCallbackInfo@X@Nan@@@Z 0000000180006150 f   njsOracle.obj
 0001:00005240       ?GetLobPrefetchSize@Oracledb@@CAXV?$Local@VString@v8@@@v8@@AEBV?$PropertyCallbackInfo@VValue@v8@@@Nan@@@Z 0000000180006240 f   njsOracle.obj
 0001:00005380       ?SetLobPrefetchSize@Oracledb@@CAXV?$Local@VString@v8@@@v8@@V?$Local@VValue@v8@@@3@AEBV?$PropertyCallbackInfo@X@Nan@@@Z 0000000180006380 f   njsOracle.obj
 0001:00005590       ?GetFetchAsString@Oracledb@@CAXV?$Local@VString@v8@@@v8@@AEBV?$PropertyCallbackInfo@VValue@v8@@@Nan@@@Z 0000000180006590 f   njsOracle.obj
 0001:00005770       ?SetFetchAsString@Oracledb@@CAXV?$Local@VString@v8@@@v8@@V?$Local@VValue@v8@@@3@AEBV?$PropertyCallbackInfo@X@Nan@@@Z 0000000180006770 f   njsOracle.obj
 0001:00005ba0       ?GetFetchAsBuffer@Oracledb@@CAXV?$Local@VString@v8@@@v8@@AEBV?$PropertyCallbackInfo@VValue@v8@@@Nan@@@Z 0000000180006ba0 f   njsOracle.obj
 0001:00005d80       ?SetFetchAsBuffer@Oracledb@@CAXV?$Local@VString@v8@@@v8@@V?$Local@VValue@v8@@@3@AEBV?$PropertyCallbackInfo@X@Nan@@@Z 0000000180006d80 f   njsOracle.obj
 0001:000061c0       ?GetOracleClientVersion@Oracledb@@CAXV?$Local@VString@v8@@@v8@@AEBV?$PropertyCallbackInfo@VValue@v8@@@Nan@@@Z 00000001800071c0 f   njsOracle.obj
 0001:00006300       ?SetOracleClientVersion@Oracledb@@CAXV?$Local@VString@v8@@@v8@@V?$Local@VValue@v8@@@3@AEBV?$PropertyCallbackInfo@X@Nan@@@Z 0000000180007300 f   njsOracle.obj
 0001:000064c0       ?GetPoolPingInterval@Oracledb@@CAXV?$Local@VString@v8@@@v8@@AEBV?$PropertyCallbackInfo@VValue@v8@@@Nan@@@Z 00000001800074c0 f   njsOracle.obj
 0001:00006600       ?SetPoolPingInterval@Oracledb@@CAXV?$Local@VString@v8@@@v8@@V?$Local@VValue@v8@@@3@AEBV?$PropertyCallbackInfo@X@Nan@@@Z 0000000180007600 f   njsOracle.obj
 0001:00006820       ?GetConnection@Oracledb@@CAXAEBV?$FunctionCallbackInfo@VValue@v8@@@Nan@@@Z 0000000180007820 f   njsOracle.obj
 0001:00007300       ??_GconnectionBaton@@QEAAPEAXI@Z 0000000180008300 f i njsOracle.obj
 0001:00007330       ?Async_GetConnection@Oracledb@@CAXPEAUuv_work_s@@@Z 0000000180008330 f   njsOracle.obj
 0001:000073f0       ?Async_AfterGetConnection@Oracledb@@CAXPEAUuv_work_s@@@Z 00000001800083f0 f   njsOracle.obj
 0001:00007690       ??1TryCatch@Nan@@QEAA@XZ   0000000180008690 f i njsOracle.obj
 0001:000076a0       ?CreatePool@Oracledb@@CAXAEBV?$FunctionCallbackInfo@VValue@v8@@@Nan@@@Z 00000001800086a0 f   njsOracle.obj
 0001:000087d0       ?Async_CreatePool@Oracledb@@CAXPEAUuv_work_s@@@Z 00000001800097d0 f   njsOracle.obj
 0001:000088c0       ?Async_AfterCreatePool@Oracledb@@CAXPEAUuv_work_s@@@Z 00000001800098c0 f   njsOracle.obj
 0001:00008c10       ?getFetchAsStringTypes@Oracledb@@QEBAPEBW4DataType@@XZ 0000000180009c10 f   njsOracle.obj
 0001:00008c90       ?getFetchAsBufferTypes@Oracledb@@QEBAPEBW4DataType@@XZ 0000000180009c90 f   njsOracle.obj
 0001:00008d10       ??1?$_Yarn@_W@std@@QEAA@XZ 0000000180009d10 f i njsOracle.obj
 0001:00008d10       ??1?$_Yarn@D@std@@QEAA@XZ  0000000180009d10 f i njsOracle.obj
 0001:00008d40       ?c_str@?$basic_string@DU?$char_traits@D@std@@V?$allocator@D@2@@std@@QEBAPEBDXZ 0000000180009d40 f i njsOracle.obj
 0001:00008d50       ??1?$basic_string@DU?$char_traits@D@std@@V?$allocator@D@2@@std@@QEAA@XZ 0000000180009d50 f i njsOracle.obj
 0001:00008de0       ??4?$basic_string@DU?$char_traits@D@std@@V?$allocator@D@2@@std@@QEAAAEAV01@$$QEAV01@@Z 0000000180009de0 f i njsOracle.obj
 0001:00008de0       ?assign@?$basic_string@DU?$char_traits@D@std@@V?$allocator@D@2@@std@@QEAAAEAV12@$$QEAV12@@Z 0000000180009de0 f i njsOracle.obj
 0001:00008e90       ??0?$basic_string@DU?$char_traits@D@std@@V?$allocator@D@2@@std@@QEAA@AEBV01@@Z 0000000180009e90 f i njsOracle.obj
 0001:00008ed0       ?str@?$basic_stringstream@DU?$char_traits@D@std@@V?$allocator@D@2@@std@@QEBA?AV?$basic_string@DU?$char_traits@D@std@@V?$allocator@D@2@@2@XZ 0000000180009ed0 f i njsOracle.obj
 0001:00008f00       ??1?$basic_stringstream@DU?$char_traits@D@std@@V?$allocator@D@2@@std@@UEAA@XZ 0000000180009f00 f i njsOracle.obj
 0001:00009030       ??0?$basic_stringstream@DU?$char_traits@D@std@@V?$allocator@D@2@@std@@QEAA@H@Z 000000018000a030 f i njsOracle.obj
 0001:000090f0       ?seekpos@?$basic_stringbuf@DU?$char_traits@D@std@@V?$allocator@D@2@@std@@MEAA?AV?$fpos@U_Mbstatet@@@2@V32@H@Z 000000018000a0f0 f i njsOracle.obj
 0001:00009200       ?seekoff@?$basic_stringbuf@DU?$char_traits@D@std@@V?$allocator@D@2@@std@@MEAA?AV?$fpos@U_Mbstatet@@@2@_JHH@Z 000000018000a200 f i njsOracle.obj
 0001:00009390       ?underflow@?$basic_stringbuf@DU?$char_traits@D@std@@V?$allocator@D@2@@std@@MEAAHXZ 000000018000a390 f i njsOracle.obj
 0001:000093f0       ?pbackfail@?$basic_stringbuf@DU?$char_traits@D@std@@V?$allocator@D@2@@std@@MEAAHH@Z 000000018000a3f0 f i njsOracle.obj
 0001:00009440       ?overflow@?$basic_stringbuf@DU?$char_traits@D@std@@V?$allocator@D@2@@std@@MEAAHH@Z 000000018000a440 f i njsOracle.obj
 0001:000096b0       ??1?$basic_iostream@DU?$char_traits@D@std@@@std@@UEAA@XZ 000000018000a6b0 f i njsOracle.obj
 0001:00009730       ??6?$basic_ostream@DU?$char_traits@D@std@@@std@@QEAAAEAV01@H@Z 000000018000a730 f i njsOracle.obj
 0001:00009910       ??1?$basic_istream@DU?$char_traits@D@std@@@std@@UEAA@XZ 000000018000a910 f i njsOracle.obj
 0001:00009940       ?sync@?$basic_streambuf@DU?$char_traits@D@std@@@std@@MEAAHXZ 000000018000a940 f i njsOracle.obj
 0001:00009940       ?showmanyc@?$basic_streambuf@DU?$char_traits@D@std@@@std@@MEAA_JXZ 000000018000a940 f i njsOracle.obj
 0001:00009950       ??0?$_Wrap_alloc@V?$allocator@D@std@@@std@@QEAA@XZ 000000018000a950 f i njsOracle.obj
 0001:00009950       ?setbuf@?$basic_streambuf@DU?$char_traits@D@std@@@std@@MEAAPEAV12@PEAD_J@Z 000000018000a950 f i njsOracle.obj
 0001:00009960       ?seekpos@?$basic_streambuf@DU?$char_traits@D@std@@@std@@MEAA?AV?$fpos@U_Mbstatet@@@2@V32@H@Z 000000018000a960 f i njsOracle.obj
 0001:00009960       ?seekoff@?$basic_streambuf@DU?$char_traits@D@std@@@std@@MEAA?AV?$fpos@U_Mbstatet@@@2@_JHH@Z 000000018000a960 f i njsOracle.obj
 0001:00009980       ?xsputn@?$basic_streambuf@DU?$char_traits@D@std@@@std@@MEAA_JPEBD_J@Z 000000018000a980 f i njsOracle.obj
 0001:00009a40       ?xsgetn@?$basic_streambuf@DU?$char_traits@D@std@@@std@@MEAA_JPEAD_J@Z 000000018000aa40 f i njsOracle.obj
 0001:00009b40       ?uflow@?$basic_streambuf@DU?$char_traits@D@std@@@std@@MEAAHXZ 000000018000ab40 f i njsOracle.obj
 0001:00009b80       ?overflow@?$basic_streambuf@DU?$char_traits@D@std@@@std@@MEAAHH@Z 000000018000ab80 f i njsOracle.obj
 0001:00009b80       ?underflow@?$basic_streambuf@DU?$char_traits@D@std@@@std@@MEAAHXZ 000000018000ab80 f i njsOracle.obj
 0001:00009b80       ?pbackfail@?$basic_streambuf@DU?$char_traits@D@std@@@std@@MEAAHH@Z 000000018000ab80 f i njsOracle.obj
 0001:00009b90       ??1?$basic_streambuf@DU?$char_traits@D@std@@@std@@UEAA@XZ 000000018000ab90 f i njsOracle.obj
 0001:00009bf0       ??1?$basic_ios@DU?$char_traits@D@std@@@std@@UEAA@XZ 000000018000abf0 f i njsOracle.obj
 0001:00009c00       ??_E?$basic_stringstream@DU?$char_traits@D@std@@V?$allocator@D@2@@std@@UEAAPEAXI@Z 000000018000ac00 f i * CIL library *:* CIL module *
 0001:00009c00       ??_G?$basic_stringstream@DU?$char_traits@D@std@@V?$allocator@D@2@@std@@UEAAPEAXI@Z 000000018000ac00 f i njsOracle.obj
 0001:00009c50       ??_G?$basic_stringbuf@DU?$char_traits@D@std@@V?$allocator@D@2@@std@@UEAAPEAXI@Z 000000018000ac50 f i njsOracle.obj
 0001:00009c50       ??_E?$basic_stringbuf@DU?$char_traits@D@std@@V?$allocator@D@2@@std@@UEAAPEAXI@Z 000000018000ac50 f i * CIL library *:* CIL module *
 0001:00009ce0       ??_G?$basic_iostream@DU?$char_traits@D@std@@@std@@UEAAPEAXI@Z 000000018000ace0 f i njsOracle.obj
 0001:00009ce0       ??_E?$basic_iostream@DU?$char_traits@D@std@@@std@@UEAAPEAXI@Z 000000018000ace0 f i * CIL library *:* CIL module *
 0001:00009d20       ??_E?$basic_ostream@DU?$char_traits@D@std@@@std@@UEAAPEAXI@Z 000000018000ad20 f i * CIL library *:* CIL module *
 0001:00009d20       ??_G?$basic_ostream@DU?$char_traits@D@std@@@std@@UEAAPEAXI@Z 000000018000ad20 f i njsOracle.obj
 0001:00009d90       ??_E?$basic_istream@DU?$char_traits@D@std@@@std@@UEAAPEAXI@Z 000000018000ad90 f i * CIL library *:* CIL module *
 0001:00009d90       ??_G?$basic_istream@DU?$char_traits@D@std@@@std@@UEAAPEAXI@Z 000000018000ad90 f i njsOracle.obj
 0001:00009e00       ??_G?$basic_streambuf@DU?$char_traits@D@std@@@std@@UEAAPEAXI@Z 000000018000ae00 f i njsOracle.obj
 0001:00009e00       ??_E?$basic_streambuf@DU?$char_traits@D@std@@@std@@UEAAPEAXI@Z 000000018000ae00 f i * CIL library *:* CIL module *
 0001:00009e80       ??_Glocale@std@@QEAAPEAXI@Z 000000018000ae80 f i njsOracle.obj
 0001:00009ee0       ??_E?$basic_ios@DU?$char_traits@D@std@@@std@@UEAAPEAXI@Z 000000018000aee0 f i * CIL library *:* CIL module *
 0001:00009ee0       ??_G?$basic_ios@DU?$char_traits@D@std@@@std@@UEAAPEAXI@Z 000000018000aee0 f i njsOracle.obj
 0001:00009f20       ??_D?$basic_iostream@DU?$char_traits@D@std@@@std@@QEAAXXZ 000000018000af20 f i njsOracle.obj
 0001:00009fb0       ??1sentry@?$basic_ostream@DU?$char_traits@D@std@@@std@@QEAA@XZ 000000018000afb0 f i njsOracle.obj
 0001:0000a050       ??0sentry@?$basic_ostream@DU?$char_traits@D@std@@@std@@QEAA@AEAV12@@Z 000000018000b050 f i njsOracle.obj
 0001:0000a0e0       ?do_put@?$num_put@DV?$ostreambuf_iterator@DU?$char_traits@D@std@@@std@@@std@@MEBA?AV?$ostreambuf_iterator@DU?$char_traits@D@std@@@2@V32@AEAVios_base@2@DPEBX@Z 000000018000b0e0 f i njsOracle.obj
 0001:0000a180       ?do_put@?$num_put@DV?$ostreambuf_iterator@DU?$char_traits@D@std@@@std@@@std@@MEBA?AV?$ostreambuf_iterator@DU?$char_traits@D@std@@@2@V32@AEAVios_base@2@DO@Z 000000018000b180 f i njsOracle.obj
 0001:0000a400       ?do_put@?$num_put@DV?$ostreambuf_iterator@DU?$char_traits@D@std@@@std@@@std@@MEBA?AV?$ostreambuf_iterator@DU?$char_traits@D@std@@@2@V32@AEAVios_base@2@DN@Z 000000018000b400 f i njsOracle.obj
 0001:0000a670       ?do_put@?$num_put@DV?$ostreambuf_iterator@DU?$char_traits@D@std@@@std@@@std@@MEBA?AV?$ostreambuf_iterator@DU?$char_traits@D@std@@@2@V32@AEAVios_base@2@D_K@Z 000000018000b670 f i njsOracle.obj
 0001:0000a770       ?do_put@?$num_put@DV?$ostreambuf_iterator@DU?$char_traits@D@std@@@std@@@std@@MEBA?AV?$ostreambuf_iterator@DU?$char_traits@D@std@@@2@V32@AEAVios_base@2@D_J@Z 000000018000b770 f i njsOracle.obj
 0001:0000a870       ?do_put@?$num_put@DV?$ostreambuf_iterator@DU?$char_traits@D@std@@@std@@@std@@MEBA?AV?$ostreambuf_iterator@DU?$char_traits@D@std@@@2@V32@AEAVios_base@2@DK@Z 000000018000b870 f i njsOracle.obj
 0001:0000a970       ?do_put@?$num_put@DV?$ostreambuf_iterator@DU?$char_traits@D@std@@@std@@@std@@MEBA?AV?$ostreambuf_iterator@DU?$char_traits@D@std@@@2@V32@AEAVios_base@2@DJ@Z 000000018000b970 f i njsOracle.obj
 0001:0000aa70       ?do_put@?$num_put@DV?$ostreambuf_iterator@DU?$char_traits@D@std@@@std@@@std@@MEBA?AV?$ostreambuf_iterator@DU?$char_traits@D@std@@@2@V32@AEAVios_base@2@D_N@Z 000000018000ba70 f i njsOracle.obj
 0001:0000ae30       ?assign@?$basic_string@DU?$char_traits@D@std@@V?$allocator@D@2@@std@@QEAAAEAV12@_KD@Z 000000018000be30 f i njsOracle.obj
 0001:0000af30       ?assign@?$basic_string@DU?$char_traits@D@std@@V?$allocator@D@2@@std@@QEAAAEAV12@PEBD_K@Z 000000018000bf30 f i njsOracle.obj
 0001:0000b060       ?assign@?$basic_string@DU?$char_traits@D@std@@V?$allocator@D@2@@std@@QEAAAEAV12@AEBV12@_K1@Z 000000018000c060 f i njsOracle.obj
 0001:0000b190       ?append@?$basic_string@DU?$char_traits@D@std@@V?$allocator@D@2@@std@@QEAAAEAV12@PEBD_K@Z 000000018000c190 f i njsOracle.obj
 0001:0000b2e0       ?append@?$basic_string@DU?$char_traits@D@std@@V?$allocator@D@2@@std@@QEAAAEAV12@AEBV12@_K1@Z 000000018000c2e0 f i njsOracle.obj
 0001:0000b410       ?_Assign_rv@?$basic_string@DU?$char_traits@D@std@@V?$allocator@D@2@@std@@QEAAX$$QEAV12@@Z 000000018000c410 f i njsOracle.obj
 0001:0000b490       ?_Tidy@?$basic_stringbuf@DU?$char_traits@D@std@@V?$allocator@D@2@@std@@IEAAXXZ 000000018000c490 f i njsOracle.obj
 0001:0000b550       ?str@?$basic_stringbuf@DU?$char_traits@D@std@@V?$allocator@D@2@@std@@QEBA?AV?$basic_string@DU?$char_traits@D@std@@V?$allocator@D@2@@2@XZ 000000018000c550 f i njsOracle.obj
 0001:0000b6e0       ?allocate@?$allocator@D@std@@QEAAPEAD_K@Z 000000018000c6e0 f i njsOracle.obj
 0001:0000b740       ?deallocate@?$allocator@D@std@@QEAAXPEAD_K@Z 000000018000c740 f i njsOracle.obj
 0001:0000b7a0       ??0?$basic_iostream@DU?$char_traits@D@std@@@std@@QEAA@PEAV?$basic_streambuf@DU?$char_traits@D@std@@@1@@Z 000000018000c7a0 f i njsOracle.obj
 0001:0000b850       ?_Pnavail@?$basic_streambuf@DU?$char_traits@D@std@@@std@@IEBA_JXZ 000000018000c850 f i njsOracle.obj
 0001:0000b870       ?_Gnavail@?$basic_streambuf@DU?$char_traits@D@std@@@std@@IEBA_JXZ 000000018000c870 f i njsOracle.obj
 0001:0000b890       ??_E?$num_put@DV?$ostreambuf_iterator@DU?$char_traits@D@std@@@std@@@std@@MEAAPEAXI@Z 000000018000c890 f i * CIL library *:* CIL module *
 0001:0000b890       ??_G?$num_put@DV?$ostreambuf_iterator@DU?$char_traits@D@std@@@std@@@std@@MEAAPEAXI@Z 000000018000c890 f i njsOracle.obj
 0001:0000b8c0       ?do_truename@?$numpunct@D@std@@MEBA?AV?$basic_string@DU?$char_traits@D@std@@V?$allocator@D@2@@2@XZ 000000018000c8c0 f i njsOracle.obj
 0001:0000b910       ?do_falsename@?$numpunct@D@std@@MEBA?AV?$basic_string@DU?$char_traits@D@std@@V?$allocator@D@2@@2@XZ 000000018000c910 f i njsOracle.obj
 0001:0000b960       ?do_grouping@?$numpunct@D@std@@MEBA?AV?$basic_string@DU?$char_traits@D@std@@V?$allocator@D@2@@2@XZ 000000018000c960 f i njsOracle.obj
 0001:0000b9b0       ?do_thousands_sep@?$numpunct@D@std@@MEBADXZ 000000018000c9b0 f i njsOracle.obj
 0001:0000b9c0       ?do_decimal_point@?$numpunct@D@std@@MEBADXZ 000000018000c9c0 f i njsOracle.obj
 0001:0000b9d0       ?truename@?$numpunct@D@std@@QEBA?AV?$basic_string@DU?$char_traits@D@std@@V?$allocator@D@2@@2@XZ 000000018000c9d0 f i njsOracle.obj
 0001:0000b9f0       ?falsename@?$numpunct@D@std@@QEBA?AV?$basic_string@DU?$char_traits@D@std@@V?$allocator@D@2@@2@XZ 000000018000c9f0 f i njsOracle.obj
 0001:0000ba10       ??1_Sentry_base@?$basic_ostream@DU?$char_traits@D@std@@@std@@QEAA@XZ 000000018000ca10 f i njsOracle.obj
 0001:0000ba50       ?_Iput@?$num_put@DV?$ostreambuf_iterator@DU?$char_traits@D@std@@@std@@@std@@AEBA?AV?$ostreambuf_iterator@DU?$char_traits@D@std@@@2@V32@AEAVios_base@2@DPEAD_K@Z 000000018000ca50 f i njsOracle.obj
 0001:0000c0c0       ?_Fput@?$num_put@DV?$ostreambuf_iterator@DU?$char_traits@D@std@@@std@@@std@@AEBA?AV?$ostreambuf_iterator@DU?$char_traits@D@std@@@2@V32@AEAVios_base@2@DPEBD_K@Z 000000018000d0c0 f i njsOracle.obj
 0001:0000c8b0       ?erase@?$basic_string@DU?$char_traits@D@std@@V?$allocator@D@2@@std@@QEAAAEAV12@_K0@Z 000000018000d8b0 f i njsOracle.obj
 0001:0000c980       ?append@?$basic_string@DU?$char_traits@D@std@@V?$allocator@D@2@@std@@QEAAAEAV12@_KD@Z 000000018000d980 f i njsOracle.obj
 0001:0000ca90       ?flush@?$basic_ostream@DU?$char_traits@D@std@@@std@@QEAAAEAV12@XZ 000000018000da90 f i njsOracle.obj
 0001:0000cbb0       ??0?$basic_streambuf@DU?$char_traits@D@std@@@std@@IEAA@XZ 000000018000dbb0 f i njsOracle.obj
 0001:0000cc60       ??_G?$numpunct@D@std@@MEAAPEAXI@Z 000000018000dc60 f i njsOracle.obj
 0001:0000cc60       ??_E?$numpunct@D@std@@MEAAPEAXI@Z 000000018000dc60 f i * CIL library *:* CIL module *
 0001:0000ccc0       ?grouping@?$numpunct@D@std@@QEBA?AV?$basic_string@DU?$char_traits@D@std@@V?$allocator@D@2@@2@XZ 000000018000dcc0 f i njsOracle.obj
 0001:0000cce0       ?_Copy@?$basic_string@DU?$char_traits@D@std@@V?$allocator@D@2@@std@@QEAAX_K0@Z 000000018000dce0 f i njsOracle.obj
 0001:0000ce60       ?insert@?$basic_string@DU?$char_traits@D@std@@V?$allocator@D@2@@std@@QEAAAEAV12@_K0D@Z 000000018000de60 f i njsOracle.obj
 0001:0000cfd0       ?init@?$basic_ios@DU?$char_traits@D@std@@@std@@IEAAXPEAV?$basic_streambuf@DU?$char_traits@D@std@@@2@_N@Z 000000018000dfd0 f i njsOracle.obj
 0001:0000d080       ??$use_facet@V?$ctype@D@std@@@std@@YAAEBV?$ctype@D@0@AEBVlocale@0@@Z 000000018000e080 f i njsOracle.obj
 0001:0000d1b0       ??$_Immortalize@V_Iostream_error_category@std@@@std@@YAAEAV_Iostream_error_category@0@XZ 000000018000e1b0 f i njsOracle.obj
 0001:0000d230       ??$New@VString@v8@@V?$basic_string@DU?$char_traits@D@std@@V?$allocator@D@2@@std@@@Nan@@YA?AV?$MaybeLocal@VString@v8@@@v8@@V?$basic_string@DU?$char_traits@D@std@@V?$allocator@D@2@@std@@@Z 000000018000e230 f i njsOracle.obj
 0001:0000d2e0       ??$?6U?$char_traits@D@std@@@std@@YAAEAV?$basic_ostream@DU?$char_traits@D@std@@@0@AEAV10@PEBD@Z 000000018000e2e0 f i njsOracle.obj
 0001:0000d570       ??$Unwrap@VILob@@@ObjectWrap@Nan@@SAPEAVILob@@V?$Local@VObject@v8@@@v8@@@Z 000000018000e570 f i njsConnection.obj
 0001:0000d570       ??$Unwrap@VConnection@@@ObjectWrap@Nan@@SAPEAVConnection@@V?$Local@VObject@v8@@@v8@@@Z 000000018000e570 f i njsOracle.obj
 0001:0000d570       ??$Unwrap@VResultSet@@@ObjectWrap@Nan@@SAPEAVResultSet@@V?$Local@VObject@v8@@@v8@@@Z 000000018000e570 f i njsConnection.obj
 0001:0000d570       ??$Unwrap@VOracledb@@@ObjectWrap@Nan@@SAPEAVOracledb@@V?$Local@VObject@v8@@@v8@@@Z 000000018000e570 f i njsOracle.obj
 0001:0000d570       ??$Unwrap@VPool@@@ObjectWrap@Nan@@SAPEAVPool@@V?$Local@VObject@v8@@@v8@@@Z 000000018000e570 f i njsOracle.obj
 0001:0000d5f0       ??$use_facet@V?$num_put@DV?$ostreambuf_iterator@DU?$char_traits@D@std@@@std@@@std@@@std@@YAAEBV?$num_put@DV?$ostreambuf_iterator@DU?$char_traits@D@std@@@std@@@0@AEBVlocale@0@@Z 000000018000e5f0 f i njsOracle.obj
 0001:0000d720       ??$use_facet@V?$numpunct@D@std@@@std@@YAAEBV?$numpunct@D@0@AEBVlocale@0@@Z 000000018000e720 f i njsOracle.obj
 0001:0000d850       ?_Getcat@?$numpunct@D@std@@SA_KPEAPEBVfacet@locale@2@PEBV42@@Z 000000018000e850 f i njsOracle.obj
 0001:0000d990       ?_Getcat@?$num_put@DV?$ostreambuf_iterator@DU?$char_traits@D@std@@@std@@@std@@SA_KPEAPEBVfacet@locale@2@PEBV42@@Z 000000018000e990 f i njsOracle.obj
 0001:0000dad0       ?_Init@?$numpunct@D@std@@IEAAXAEBV_Locinfo@2@_N@Z 000000018000ead0 f i njsOracle.obj
 0001:0000dc44       ??_E?$basic_ostream@DU?$char_traits@D@std@@@std@@$4PPPPPPPM@A@EAAPEAXI@Z 000000018000ec44 f i njsOracle.obj
 0001:0000dc50       ??_E?$basic_stringstream@DU?$char_traits@D@std@@V?$allocator@D@2@@std@@$4PPPPPPPM@A@EAAPEAXI@Z 000000018000ec50 f i njsOracle.obj
 0001:0000dc5c       ??_E?$basic_istream@DU?$char_traits@D@std@@@std@@$4PPPPPPPM@A@EAAPEAXI@Z 000000018000ec5c f i njsOracle.obj
 0001:0000dc68       ??_E?$basic_iostream@DU?$char_traits@D@std@@@std@@$4PPPPPPPM@A@EAAPEAXI@Z 000000018000ec68 f i njsOracle.obj
 0001:0000dc80       ??0poolBaton@@QEAA@V?$Local@VFunction@v8@@@v8@@V?$Local@VObject@v8@@@2@@Z 000000018000ec80 f i njsPool.obj
 0001:0000dda0       ??_GPool@@EEAAPEAXI@Z      000000018000eda0 f i njsPool.obj
 0001:0000dda0       ??_EPool@@EEAAPEAXI@Z      000000018000eda0 f i * CIL library *:* CIL module *
 0001:0000dde0       ??1Connection@@EEAA@XZ     000000018000ede0 f   njsConnection.obj
 0001:0000dde0       ??1Pool@@EEAA@XZ           000000018000ede0 f   njsPool.obj
 0001:0000de60       ?Init@Pool@@SAXV?$Local@VObject@v8@@@v8@@@Z 000000018000ee60 f   njsPool.obj
 0001:0000e320       ?New@Pool@@CAXAEBV?$FunctionCallbackInfo@VValue@v8@@@Nan@@@Z 000000018000f320 f   njsPool.obj
 0001:0000e390       ?getPoolProperty@Pool@@CA?AV?$Local@VPrimitive@v8@@@v8@@PEAV1@I@Z 000000018000f390 f   njsPool.obj
 0001:0000e510       ?getPoolProperty@Pool@@CA?AV?$Local@VPrimitive@v8@@@v8@@PEAV1@H@Z 000000018000f510 f   njsPool.obj
 0001:0000e690       ?GetPoolMin@Pool@@CAXV?$Local@VString@v8@@@v8@@AEBV?$PropertyCallbackInfo@VValue@v8@@@Nan@@@Z 000000018000f690 f   njsPool.obj
 0001:0000e7a0       ?GetPoolMax@Pool@@CAXV?$Local@VString@v8@@@v8@@AEBV?$PropertyCallbackInfo@VValue@v8@@@Nan@@@Z 000000018000f7a0 f   njsPool.obj
 0001:0000e8b0       ?GetPoolIncrement@Pool@@CAXV?$Local@VString@v8@@@v8@@AEBV?$PropertyCallbackInfo@VValue@v8@@@Nan@@@Z 000000018000f8b0 f   njsPool.obj
 0001:0000e9c0       ?GetPoolTimeout@Pool@@CAXV?$Local@VString@v8@@@v8@@AEBV?$PropertyCallbackInfo@VValue@v8@@@Nan@@@Z 000000018000f9c0 f   njsPool.obj
 0001:0000ead0       ?GetConnectionsOpen@Pool@@CAXV?$Local@VString@v8@@@v8@@AEBV?$PropertyCallbackInfo@VValue@v8@@@Nan@@@Z 000000018000fad0 f   njsPool.obj
 0001:0000ecc0       ?GetConnectionsInUse@Pool@@CAXV?$Local@VString@v8@@@v8@@AEBV?$PropertyCallbackInfo@VValue@v8@@@Nan@@@Z 000000018000fcc0 f   njsPool.obj
 0001:0000eeb0       ?GetStmtCacheSize@Pool@@CAXV?$Local@VString@v8@@@v8@@AEBV?$PropertyCallbackInfo@VValue@v8@@@Nan@@@Z 000000018000feb0 f   njsPool.obj
 0001:0000efc0       ?GetPoolPingInterval@Pool@@CAXV?$Local@VString@v8@@@v8@@AEBV?$PropertyCallbackInfo@VValue@v8@@@Nan@@@Z 000000018000ffc0 f   njsPool.obj
 0001:0000f0d0       ?setPoolProperty@Pool@@CAXPEAV1@V?$basic_string@DU?$char_traits@D@std@@V?$allocator@D@2@@std@@@Z 00000001800100d0 f   njsPool.obj
 0001:0000f380       ?SetPoolMin@Pool@@CAXV?$Local@VString@v8@@@v8@@V?$Local@VValue@v8@@@3@AEBV?$PropertyCallbackInfo@X@Nan@@@Z 0000000180010380 f   njsPool.obj
 0001:0000f3f0       ?SetPoolMax@Pool@@CAXV?$Local@VString@v8@@@v8@@V?$Local@VValue@v8@@@3@AEBV?$PropertyCallbackInfo@X@Nan@@@Z 00000001800103f0 f   njsPool.obj
 0001:0000f460       ?SetPoolIncrement@Pool@@CAXV?$Local@VString@v8@@@v8@@V?$Local@VValue@v8@@@3@AEBV?$PropertyCallbackInfo@X@Nan@@@Z 0000000180010460 f   njsPool.obj
 0001:0000f4d0       ?SetPoolTimeout@Pool@@CAXV?$Local@VString@v8@@@v8@@V?$Local@VValue@v8@@@3@AEBV?$PropertyCallbackInfo@X@Nan@@@Z 00000001800104d0 f   njsPool.obj
 0001:0000f540       ?SetConnectionsOpen@Pool@@CAXV?$Local@VString@v8@@@v8@@V?$Local@VValue@v8@@@3@AEBV?$PropertyCallbackInfo@X@Nan@@@Z 0000000180010540 f   njsPool.obj
 0001:0000f5b0       ?SetConnectionsInUse@Pool@@CAXV?$Local@VString@v8@@@v8@@V?$Local@VValue@v8@@@3@AEBV?$PropertyCallbackInfo@X@Nan@@@Z 00000001800105b0 f   njsPool.obj
 0001:0000f620       ?SetStmtCacheSize@Pool@@CAXV?$Local@VString@v8@@@v8@@V?$Local@VValue@v8@@@3@AEBV?$PropertyCallbackInfo@X@Nan@@@Z 0000000180010620 f   njsPool.obj
 0001:0000f690       ?SetPoolPingInterval@Pool@@CAXV?$Local@VString@v8@@@v8@@V?$Local@VValue@v8@@@3@AEBV?$PropertyCallbackInfo@X@Nan@@@Z 0000000180010690 f   njsPool.obj
 0001:0000f700       ?GetConnection@Pool@@CAXAEBV?$FunctionCallbackInfo@VValue@v8@@@Nan@@@Z 0000000180010700 f   njsPool.obj
 0001:0000fb00       ??_GpoolBaton@@QEAAPEAXI@Z 0000000180010b00 f i njsPool.obj
 0001:0000fb80       ?Async_GetConnection@Pool@@CAXPEAUuv_work_s@@@Z 0000000180010b80 f   njsPool.obj
 0001:0000fe10       ?Async_AfterGetConnection@Pool@@CAXPEAUuv_work_s@@@Z 0000000180010e10 f   njsPool.obj
 0001:000100b0       ?Terminate@Pool@@CAXAEBV?$FunctionCallbackInfo@VValue@v8@@@Nan@@@Z 00000001800110b0 f   njsPool.obj
 0001:00010480       ?Async_Terminate@Pool@@CAXPEAUuv_work_s@@@Z 0000000180011480 f   njsPool.obj
 0001:000104e0       ?Async_AfterTerminate@Pool@@CAXPEAUuv_work_s@@@Z 00000001800114e0 f   njsPool.obj
 0001:000106b0       ?Set@Nan@@YA?AV?$Maybe@_N@v8@@V?$Local@VObject@v8@@@3@IV?$Local@VValue@v8@@@3@@Z 00000001800116b0 f i njsConnection.obj
 0001:00010740       ?ForceSet@Nan@@YA?AV?$Maybe@_N@v8@@V?$Local@VObject@v8@@@3@V?$Local@VValue@v8@@@3@1W4PropertyAttribute@3@@Z 0000000180011740 f i njsConnection.obj
 0001:000107d0       ?New@?$Factory@VDate@v8@@@imp@Nan@@SA?AV?$MaybeLocal@VDate@v8@@@v8@@N@Z 00000001800117d0 f i njsConnection.obj
 0001:00010860       ??1RefCounter@@QEAA@XZ     0000000180011860 f i njsConnection.obj
 0001:00010870       ??0MetaInfo@@QEAA@XZ       0000000180011870 f i njsConnection.obj
 0001:000108c0       ??0fetchInfo@@QEAA@XZ      00000001800118c0 f i njsConnection.obj
 0001:00010900       ??0eBaton@@QEAA@AEAIV?$Local@VFunction@v8@@@v8@@V?$Local@VObject@v8@@@2@@Z 0000000180011900 f i njsConnection.obj
 0001:00010b00       ??1eBaton@@QEAA@XZ         0000000180011b00 f i njsConnection.obj
 0001:00011440       ??_EMetaInfo@@QEAAPEAXI@Z  0000000180012440 f i njsConnection.obj
 0001:00011490       ??_EfetchInfo@@QEAAPEAXI@Z 0000000180012490 f i njsConnection.obj
 0001:000114e0       ??1fetchInfo@@QEAA@XZ      00000001800124e0 f i njsConnection.obj
 0001:000114e0       ??1MetaInfo@@QEAA@XZ       00000001800124e0 f i njsConnection.obj
 0001:000114f0       ?GetValueType@Connection@@CA?AW4ValueType@@V?$Local@VValue@v8@@@v8@@@Z 00000001800124f0 f i njsConnection.obj
 0001:00011600       ??_GConnection@@EEAAPEAXI@Z 0000000180012600 f i njsConnection.obj
 0001:00011600       ??_EConnection@@EEAAPEAXI@Z 0000000180012600 f i * CIL library *:* CIL module *
 0001:00011640       ?Init@Connection@@SAXV?$Local@VObject@v8@@@v8@@@Z 0000000180012640 f   njsConnection.obj
 0001:00011a20       ?New@Connection@@CAXAEBV?$FunctionCallbackInfo@VValue@v8@@@Nan@@@Z 0000000180012a20 f   njsConnection.obj
 0001:00011a90       ?connectionPropertyException@Connection@@CAXPEAV1@W4NJSErrorType@@V?$basic_string@DU?$char_traits@D@std@@V?$allocator@D@2@@std@@@Z 0000000180012a90 f   njsConnection.obj
 0001:00011d90       ?GetStmtCacheSize@Connection@@CAXV?$Local@VString@v8@@@v8@@AEBV?$PropertyCallbackInfo@VValue@v8@@@Nan@@@Z 0000000180012d90 f   njsConnection.obj
 0001:00011fa0       ?SetStmtCacheSize@Connection@@CAXV?$Local@VString@v8@@@v8@@V?$Local@VValue@v8@@@3@AEBV?$PropertyCallbackInfo@X@Nan@@@Z 0000000180012fa0 f   njsConnection.obj
 0001:000120b0       ?GetClientId@Connection@@CAXV?$Local@VString@v8@@@v8@@AEBV?$PropertyCallbackInfo@VValue@v8@@@Nan@@@Z 00000001800130b0 f   njsConnection.obj
 0001:000120b0       ?GetAction@Connection@@CAXV?$Local@VString@v8@@@v8@@AEBV?$PropertyCallbackInfo@VValue@v8@@@Nan@@@Z 00000001800130b0 f   njsConnection.obj
 0001:000120b0       ?GetModule@Connection@@CAXV?$Local@VString@v8@@@v8@@AEBV?$PropertyCallbackInfo@VValue@v8@@@Nan@@@Z 00000001800130b0 f   njsConnection.obj
 0001:000120d0       ?SetClientId@Connection@@CAXV?$Local@VString@v8@@@v8@@V?$Local@VValue@v8@@@3@AEBV?$PropertyCallbackInfo@X@Nan@@@Z 00000001800130d0 f   njsConnection.obj
 0001:00012440       ?SetModule@Connection@@CAXV?$Local@VString@v8@@@v8@@V?$Local@VValue@v8@@@3@AEBV?$PropertyCallbackInfo@X@Nan@@@Z 0000000180013440 f   njsConnection.obj
 0001:000127b0       ?SetAction@Connection@@CAXV?$Local@VString@v8@@@v8@@V?$Local@VValue@v8@@@3@AEBV?$PropertyCallbackInfo@X@Nan@@@Z 00000001800137b0 f   njsConnection.obj
 0001:00012b20       ?GetOracleServerVersion@Connection@@CAXV?$Local@VString@v8@@@v8@@AEBV?$PropertyCallbackInfo@VValue@v8@@@Nan@@@Z 0000000180013b20 f   njsConnection.obj
 0001:00012d60       ?SetOracleServerVersion@Connection@@CAXV?$Local@VString@v8@@@v8@@V?$Local@VValue@v8@@@3@AEBV?$PropertyCallbackInfo@X@Nan@@@Z 0000000180013d60 f   njsConnection.obj
 0001:00012e70       ?Execute@Connection@@CAXAEBV?$FunctionCallbackInfo@VValue@v8@@@Nan@@@Z 0000000180013e70 f   njsConnection.obj
 0001:000134a0       ?ProcessBinds@Connection@@CAXAEBV?$FunctionCallbackInfo@VValue@v8@@@Nan@@IPEAUeBaton@@@Z 00000001800144a0 f   njsConnection.obj
 0001:00013660       ?ProcessOptions@Connection@@CAXAEBV?$FunctionCallbackInfo@VValue@v8@@@Nan@@IPEAUeBaton@@@Z 0000000180014660 f   njsConnection.obj
 0001:00014280       ?GetBinds@Connection@@CAXV?$Local@VObject@v8@@@v8@@PEAUeBaton@@@Z 0000000180015280 f   njsConnection.obj
 0001:00014770       ?GetBinds@Connection@@CAXV?$Local@VArray@v8@@@v8@@PEAUeBaton@@@Z 0000000180015770 f   njsConnection.obj
 0001:00014880       ?GetBindUnit@Connection@@CAXV?$Local@VValue@v8@@@v8@@PEAUBind@@_NPEAUeBaton@@@Z 0000000180015880 f   njsConnection.obj
 0001:000153d0       ?GetOutBindParams@Connection@@CAXGPEAUBind@@PEAUeBaton@@@Z 00000001800163d0 f   njsConnection.obj
 0001:000156a0       ?GetInBindParams@Connection@@CAXV?$Local@VValue@v8@@@v8@@PEAUBind@@PEAUeBaton@@@Z 00000001800166a0 f   njsConnection.obj
 0001:00015710       ?GetInBindParamsScalar@Connection@@CAXV?$Local@VValue@v8@@@v8@@PEAUBind@@PEAUeBaton@@@Z 0000000180016710 f   njsConnection.obj
 0001:000161f0       ?GetInBindParamsArray@Connection@@CAXV?$Local@VArray@v8@@@v8@@PEAUBind@@PEAUeBaton@@@Z 00000001800171f0 f   njsConnection.obj
 0001:00016a30       ?AllocateBindArray@Connection@@CA_NGPEAUBind@@PEAUeBaton@@PEA_K@Z 0000000180017a30 f   njsConnection.obj
 0001:00016d30       ?Async_Execute@Connection@@CAXPEAUuv_work_s@@@Z 0000000180017d30 f   njsConnection.obj
 0001:00017990       ?LOB2StringOrBuffer@Connection@@CAXPEAUeBaton@@I_K1@Z 0000000180018990 f   njsConnection.obj
 0001:00017d40       ?StringOrBuffer2LOB@Connection@@CAXPEAUeBaton@@IE@Z 0000000180018d40 f   njsConnection.obj
 0001:00017f80       ?Descr2StringOrBuffer@Connection@@CAXPEAUeBaton@@@Z 0000000180018f80 f   njsConnection.obj
 0001:000181b0       ?ConvertStringOrBuffer2LOB@Connection@@CAXPEAUeBaton@@I@Z 00000001800191b0 f   njsConnection.obj
 0001:00018270       ?PrepareLOBsForBind@Connection@@CAXPEAUeBaton@@I@Z 0000000180019270 f   njsConnection.obj
 0001:00018340       ?PrepareAndBind@Connection@@CAXPEAUeBaton@@@Z 0000000180019340 f   njsConnection.obj
 0001:00018910       ?CopyMetaData@Connection@@SAXPEAUMetaInfo@@PEAUeBaton@@PEBUMetaData@dpi@@I@Z 0000000180019910 f   njsConnection.obj
 0001:00018e50       ?SourceDBType2TargetDBType@Connection@@CAGI@Z 0000000180019e50 f   njsConnection.obj
 0001:00018f90       ?MapByName@Connection@@CAHPEAUeBaton@@AEAV?$basic_string@DU?$char_traits@D@std@@V?$allocator@D@2@@std@@AEAG@Z 0000000180019f90 f   njsConnection.obj
 0001:000190d0       ?MapByType@Connection@@CAHPEAUeBaton@@AEAG@Z 000000018001a0d0 f   njsConnection.obj
 0001:000192d0       ?DoDefines@Connection@@SAXPEAUeBaton@@@Z 000000018001a2d0 f   njsConnection.obj
 0001:00019e50       ?DoFetch@Connection@@SAXPEAUeBaton@@@Z 000000018001ae50 f   njsConnection.obj
 0001:0001a070       ?Descr2Double@Connection@@CA?AW4NJSErrorType@@PEAUDefine@@II_N@Z 000000018001b070 f   njsConnection.obj
 0001:0001a160       ?Descr2protoILob@Connection@@CAXPEAUeBaton@@II@Z 000000018001b160 f   njsConnection.obj
 0001:0001a4e0       ?Async_AfterExecute@Connection@@CAXPEAUuv_work_s@@@Z 000000018001b4e0 f   njsConnection.obj
 0001:0001acd0       ?GetMetaData@Connection@@SA?AV?$Local@VValue@v8@@@v8@@PEBUMetaInfo@@I_N@Z 000000018001bcd0 f   njsConnection.obj
 0001:0001b2a0       ?GetRows@Connection@@SA?AV?$Local@VValue@v8@@@v8@@PEAUeBaton@@@Z 000000018001c2a0 f   njsConnection.obj
 0001:0001b5c0       ?ToV8Value@Connection@@CA?AV?$Local@VValue@v8@@@v8@@PEAUeBaton@@_NII@Z 000000018001c5c0 f   njsConnection.obj
 0001:0001b720       ?Bind2V8Value@Connection@@CA?AV?$Local@VValue@v8@@@v8@@PEAUeBaton@@PEAUBind@@I@Z 000000018001c720 f   njsConnection.obj
 0001:0001b900       ?Define2V8Value@Connection@@CA?AV?$Local@VValue@v8@@@v8@@PEAUeBaton@@IIPEAUDefine@@PEAUExtDefine@@@Z 000000018001c900 f   njsConnection.obj
 0001:0001bd00       ?RefCursor2V8Value@Connection@@CA?AV?$Local@VValue@v8@@@v8@@PEAUeBaton@@PEAUBind@@PEAUExtBind@@@Z 000000018001cd00 f   njsConnection.obj
 0001:0001be30       ?Lob2V8Value@Connection@@CA?AV?$Local@VValue@v8@@@v8@@PEAUeBaton@@PEAUBind@@@Z 000000018001ce30 f   njsConnection.obj
 0001:0001bf00       ?ToV8ArrayValue@Connection@@CA?AV?$Local@VValue@v8@@@v8@@PEAUeBaton@@PEAUBind@@K@Z 000000018001cf00 f   njsConnection.obj
 0001:0001c320       ?GetOutBinds@Connection@@CA?AV?$Local@VValue@v8@@@v8@@PEAUeBaton@@@Z 000000018001d320 f   njsConnection.obj
 0001:0001c3c0       ?GetOutBindArray@Connection@@CA?AV?$Local@VValue@v8@@@v8@@PEAUeBaton@@@Z 000000018001d3c0 f   njsConnection.obj
 0001:0001c5d0       ?GetOutBindObject@Connection@@CA?AV?$Local@VValue@v8@@@v8@@PEAUeBaton@@@Z 000000018001d5d0 f   njsConnection.obj
 0001:0001c870       ?Release@Connection@@CAXAEBV?$FunctionCallbackInfo@VValue@v8@@@Nan@@@Z 000000018001d870 f   njsConnection.obj
 0001:0001cd60       ?Async_Release@Connection@@CAXPEAUuv_work_s@@@Z 000000018001dd60 f   njsConnection.obj
 0001:0001ce50       ?Async_AfterRelease@Connection@@CAXPEAUuv_work_s@@@Z 000000018001de50 f   njsConnection.obj
 0001:0001d100       ?Commit@Connection@@CAXAEBV?$FunctionCallbackInfo@VValue@v8@@@Nan@@@Z 000000018001e100 f   njsConnection.obj
 0001:0001d500       ?Async_Commit@Connection@@CAXPEAUuv_work_s@@@Z 000000018001e500 f   njsConnection.obj
 0001:0001d590       ?Async_AfterRollback@Connection@@CAXPEAUuv_work_s@@@Z 000000018001e590 f   njsConnection.obj
 0001:0001d590       ?Async_AfterCommit@Connection@@CAXPEAUuv_work_s@@@Z 000000018001e590 f   njsConnection.obj
 0001:0001d590       ?Async_AfterBreak@Connection@@CAXPEAUuv_work_s@@@Z 000000018001e590 f   njsConnection.obj
 0001:0001d740       ?Rollback@Connection@@CAXAEBV?$FunctionCallbackInfo@VValue@v8@@@Nan@@@Z 000000018001e740 f   njsConnection.obj
 0001:0001db40       ?Async_Rollback@Connection@@CAXPEAUuv_work_s@@@Z 000000018001eb40 f   njsConnection.obj
 0001:0001dbd0       ?Break@Connection@@CAXAEBV?$FunctionCallbackInfo@VValue@v8@@@Nan@@@Z 000000018001ebd0 f   njsConnection.obj
 0001:0001dfd0       ?Async_Break@Connection@@CAXPEAUuv_work_s@@@Z 000000018001efd0 f   njsConnection.obj
 0001:0001e060       ?CreateLob@Connection@@CAXAEBV?$FunctionCallbackInfo@VValue@v8@@@Nan@@@Z 000000018001f060 f   njsConnection.obj
 0001:0001e590       ?Async_CreateLob@Connection@@CAXPEAUuv_work_s@@@Z 000000018001f590 f   njsConnection.obj
 0001:0001e730       ?Async_AfterCreateLob@Connection@@CAXPEAUuv_work_s@@@Z 000000018001f730 f   njsConnection.obj
 0001:0001e950       ?UpdateDateValue@Connection@@CAXPEAUeBaton@@PEAUBind@@I@Z 000000018001f950 f   njsConnection.obj
 0001:0001ea70       ?cbDynBufferAllocate@Connection@@CAXPEAX_NII@Z 000000018001fa70 f   njsConnection.obj
 0001:0001f090       ?cbDynBufferGet@Connection@@CAHPEAXHIKKPEAPEAX11PEAPEAGPEAE@Z 0000000180020090 f   njsConnection.obj
 0001:0001f2f0       ?cbDynDefine@Connection@@CAHPEAXIPEAPEAXPEAPEAI1PEAPEAG@Z 00000001800202f0 f   njsConnection.obj
 0001:0001f3d0       ?NewLob@Connection@@CA?AV?$Local@VValue@v8@@@v8@@PEAUeBaton@@PEAVProtoILob@@_N@Z 00000001800203d0 f   njsConnection.obj
 0001:0001f590       ??1?$vector@PEAV?$Persistent@VObject@v8@@V?$NonCopyablePersistentTraits@VObject@v8@@@2@@Nan@@V?$allocator@PEAV?$Persistent@VObject@v8@@V?$NonCopyablePersistentTraits@VObject@v8@@@2@@Nan@@@std@@@std@@QEAA@XZ 0000000180020590 f i njsConnection.obj
 0001:0001f590       ??1?$vector@PEAUBind@@V?$allocator@PEAUBind@@@std@@@std@@QEAA@XZ 0000000180020590 f i njsConnection.obj
 0001:0001f590       ??1?$vector@PEAUExtBind@@V?$allocator@PEAUExtBind@@@std@@@std@@QEAA@XZ 0000000180020590 f i njsConnection.obj
 0001:0001f590       ??1?$vector@PEAUExtDefine@@V?$allocator@PEAUExtDefine@@@std@@@std@@QEAA@XZ 0000000180020590 f i njsConnection.obj
 0001:0001f5d0       ?resize@?$vector@PEAUExtDefine@@V?$allocator@PEAUExtDefine@@@std@@@std@@QEAAX_KAEBQEAUExtDefine@@@Z 00000001800205d0 f i njsConnection.obj
 0001:0001f770       ?push_back@?$vector@PEAUExtBind@@V?$allocator@PEAUExtBind@@@std@@@std@@QEAAX$$QEAPEAUExtBind@@@Z 0000000180020770 f i njsConnection.obj
 0001:0001f770       ?push_back@?$vector@PEAUBind@@V?$allocator@PEAUBind@@@std@@@std@@QEAAXAEBQEAUBind@@@Z 0000000180020770 f i njsConnection.obj
 0001:0001f800       ?_Reserve@?$vector@PEAUExtBind@@V?$allocator@PEAUExtBind@@@std@@@std@@IEAAX_K@Z 0000000180020800 f i njsConnection.obj
 0001:0001f800       ?_Reserve@?$vector@PEAV?$Persistent@VObject@v8@@V?$NonCopyablePersistentTraits@VObject@v8@@@2@@Nan@@V?$allocator@PEAV?$Persistent@VObject@v8@@V?$NonCopyablePersistentTraits@VObject@v8@@@2@@Nan@@@std@@@std@@IEAAX_K@Z 0000000180020800 f i njsConnection.obj
 0001:0001f800       ?_Reserve@?$vector@PEAUBind@@V?$allocator@PEAUBind@@@std@@@std@@IEAAX_K@Z 0000000180020800 f i njsConnection.obj
 0001:0001f890       ?deallocate@?$_Wrap_alloc@V?$allocator@PEAV?$Persistent@VObject@v8@@V?$NonCopyablePersistentTraits@VObject@v8@@@2@@Nan@@@std@@@std@@QEAAXPEAPEAV?$Persistent@VObject@v8@@V?$NonCopyablePersistentTraits@VObject@v8@@@2@@Nan@@_K@Z 0000000180020890 f i njsConnection.obj
 0001:0001f890       ?deallocate@?$_Wrap_alloc@V?$allocator@PEAUBind@@@std@@@std@@QEAAXPEAPEAUBind@@_K@Z 0000000180020890 f i njsConnection.obj
 0001:0001f890       ?deallocate@?$_Wrap_alloc@V?$allocator@PEAUExtDefine@@@std@@@std@@QEAAXPEAPEAUExtDefine@@_K@Z 0000000180020890 f i njsConnection.obj
 0001:0001f890       ?deallocate@?$_Wrap_alloc@V?$allocator@PEAUExtBind@@@std@@@std@@QEAAXPEAPEAUExtBind@@_K@Z 0000000180020890 f i njsConnection.obj
 0001:0001f900       ?_Reallocate@?$vector@PEAUExtBind@@V?$allocator@PEAUExtBind@@@std@@@std@@IEAAX_K@Z 0000000180020900 f i njsConnection.obj
 0001:0001f900       ?_Reallocate@?$vector@PEAUExtDefine@@V?$allocator@PEAUExtDefine@@@std@@@std@@IEAAX_K@Z 0000000180020900 f i njsConnection.obj
 0001:0001f900       ?_Reallocate@?$vector@PEAV?$Persistent@VObject@v8@@V?$NonCopyablePersistentTraits@VObject@v8@@@2@@Nan@@V?$allocator@PEAV?$Persistent@VObject@v8@@V?$NonCopyablePersistentTraits@VObject@v8@@@2@@Nan@@@std@@@std@@IEAAX_K@Z 0000000180020900 f i njsConnection.obj
 0001:0001f900       ?_Reallocate@?$vector@PEAUBind@@V?$allocator@PEAUBind@@@std@@@std@@IEAAX_K@Z 0000000180020900 f i njsConnection.obj
 0001:0001f9e0       ?allocate@?$_Wrap_alloc@V?$allocator@PEAUBind@@@std@@@std@@QEAAPEAPEAUBind@@_K@Z 00000001800209e0 f i njsConnection.obj
 0001:0001fa50       ??$?HDU?$char_traits@D@std@@V?$allocator@D@1@@std@@YA?AV?$basic_string@DU?$char_traits@D@std@@V?$allocator@D@2@@0@PEBD$$QEAV10@@Z 0000000180020a50 f i njsConnection.obj
 0001:0001faa0       ?insert@?$basic_string@DU?$char_traits@D@std@@V?$allocator@D@2@@std@@QEAAAEAV12@_KPEBD0@Z 0000000180020aa0 f i njsConnection.obj
 0001:0001fc20       ?insert@?$basic_string@DU?$char_traits@D@std@@V?$allocator@D@2@@std@@QEAAAEAV12@_KAEBV12@00@Z 0000000180020c20 f i njsConnection.obj
 0001:0001fdc0       ??0rsBaton@@QEAA@AEAIV?$Local@VFunction@v8@@@v8@@V?$Local@VObject@v8@@@2@2@Z 0000000180020dc0 f i njsResultSet.obj
 0001:0001feb0       ??_GResultSet@@UEAAPEAXI@Z 0000000180020eb0 f i njsResultSet.obj
 0001:0001feb0       ??_EResultSet@@UEAAPEAXI@Z 0000000180020eb0 f i * CIL library *:* CIL module *
 0001:0001ff30       ?setResultSet@ResultSet@@QEAAXPEAVStmt@dpi@@PEAUeBaton@@IPEBUMetaInfo@@@Z 0000000180020f30 f   njsResultSet.obj
 0001:00020200       ?Init@ResultSet@@SAXV?$Local@VObject@v8@@@v8@@@Z 0000000180021200 f   njsResultSet.obj
 0001:00020400       ?New@ResultSet@@CAXAEBV?$FunctionCallbackInfo@VValue@v8@@@Nan@@@Z 0000000180021400 f   njsResultSet.obj
 0001:00020470       ?GetMetaData@ResultSet@@CAXV?$Local@VString@v8@@@v8@@AEBV?$PropertyCallbackInfo@VValue@v8@@@Nan@@@Z 0000000180021470 f   njsResultSet.obj
 0001:000206e0       ?SetMetaData@ResultSet@@CAXV?$Local@VString@v8@@@v8@@V?$Local@VValue@v8@@@3@AEBV?$PropertyCallbackInfo@X@Nan@@@Z 00000001800216e0 f   njsResultSet.obj
 0001:00020900       ?GetRow@ResultSet@@CAXAEBV?$FunctionCallbackInfo@VValue@v8@@@Nan@@@Z 0000000180021900 f   njsResultSet.obj
 0001:00020d00       ?GetRows@ResultSet@@CAXAEBV?$FunctionCallbackInfo@VValue@v8@@@Nan@@@Z 0000000180021d00 f   njsResultSet.obj
 0001:000211f0       ?GetRowsCommon@ResultSet@@CAXPEAUrsBaton@@@Z 00000001800221f0 f   njsResultSet.obj
 0001:00021400       ??_GrsBaton@@QEAAPEAXI@Z   0000000180022400 f i njsResultSet.obj
 0001:00021490       ?Async_GetRows@ResultSet@@CAXPEAUuv_work_s@@@Z 0000000180022490 f   njsResultSet.obj
 0001:00021740       ?Async_AfterGetRows@ResultSet@@CAXPEAUuv_work_s@@@Z 0000000180022740 f   njsResultSet.obj
 0001:00021980       ?Close@ResultSet@@CAXAEBV?$FunctionCallbackInfo@VValue@v8@@@Nan@@@Z 0000000180022980 f   njsResultSet.obj
 0001:00021e00       ?Async_Close@ResultSet@@CAXPEAUuv_work_s@@@Z 0000000180022e00 f   njsResultSet.obj
 0001:00021ee0       ?Async_AfterClose@ResultSet@@CAXPEAUuv_work_s@@@Z 0000000180022ee0 f   njsResultSet.obj
 0001:000220d0       ?clearFetchBuffer@ResultSet@@AEAAXI@Z 00000001800230d0 f   njsResultSet.obj
 0001:00022350       ?getErrorMsg@NJSMessages@@SA?AV?$basic_string@DU?$char_traits@D@std@@V?$allocator@D@2@@std@@W4NJSErrorType@@ZZ 0000000180023350 f   njsMessages.obj
 0001:00022450       ??0LobBaton@@QEAA@AEAIV?$Local@VFunction@v8@@@v8@@V?$Local@VObject@v8@@@2@@Z 0000000180023450 f i njsIntLob.obj
 0001:00022570       ??0LobBaton@@QEAA@AEAIV?$Local@VObject@v8@@@v8@@V?$Local@VFunction@v8@@@2@1@Z 0000000180023570 f i njsIntLob.obj
 0001:000226d0       ??1LobBaton@@QEAA@XZ       00000001800236d0 f i njsIntLob.obj
 0001:00022760       ??_EILob@@EEAAPEAXI@Z      0000000180023760 f i * CIL library *:* CIL module *
 0001:00022760       ??_GILob@@EEAAPEAXI@Z      0000000180023760 f i njsIntLob.obj
 0001:000227a0       ??1ILob@@EEAA@XZ           00000001800237a0 f   njsIntLob.obj
 0001:00022880       ?cleanupDPI@ILob@@QEAAXXZ  0000000180023880 f   njsIntLob.obj
 0001:00022930       ?cleanupNJS@ILob@@QEAAXXZ  0000000180023930 f   njsIntLob.obj
 0001:00022990       ?setILob@ILob@@QEAAXPEAUeBaton@@PEAVProtoILob@@_N@Z 0000000180023990 f   njsIntLob.obj
 0001:00022b20       ?hasILobInstance@ILob@@SA_NV?$Local@VObject@v8@@@v8@@@Z 0000000180023b20 f   njsIntLob.obj
 0001:00022c60       ?Init@ILob@@SAXV?$Local@VObject@v8@@@v8@@@Z 0000000180023c60 f   njsIntLob.obj
 0001:000230f0       ?New@ILob@@CAXAEBV?$FunctionCallbackInfo@VValue@v8@@@Nan@@@Z 00000001800240f0 f   njsIntLob.obj
 0001:000231b0       ?Release@ILob@@CAXAEBV?$FunctionCallbackInfo@VValue@v8@@@Nan@@@Z 00000001800241b0 f   njsIntLob.obj
 0001:00023470       ?Close@ILob@@CAXAEBV?$FunctionCallbackInfo@VValue@v8@@@Nan@@@Z 0000000180024470 f   njsIntLob.obj
 0001:00023910       ?Async_Close@ILob@@CAXPEAUuv_work_s@@@Z 0000000180024910 f   njsIntLob.obj
 0001:00023940       ?Async_AfterClose@ILob@@CAXPEAUuv_work_s@@@Z 0000000180024940 f   njsIntLob.obj
 0001:00023b50       ?lobPropertyException@ILob@@CAXPEAV1@W4NJSErrorType@@V?$basic_string@DU?$char_traits@D@std@@V?$allocator@D@2@@std@@@Z 0000000180024b50 f   njsIntLob.obj
 0001:00023e50       ?GetChunkSize@ILob@@CAXV?$Local@VString@v8@@@v8@@AEBV?$PropertyCallbackInfo@VValue@v8@@@Nan@@@Z 0000000180024e50 f   njsIntLob.obj
 0001:000241d0       ?SetChunkSize@ILob@@CAXV?$Local@VString@v8@@@v8@@V?$Local@VValue@v8@@@3@AEBV?$PropertyCallbackInfo@X@Nan@@@Z 00000001800251d0 f   njsIntLob.obj
 0001:000242e0       ?GetLength@ILob@@CAXV?$Local@VString@v8@@@v8@@AEBV?$PropertyCallbackInfo@VValue@v8@@@Nan@@@Z 00000001800252e0 f   njsIntLob.obj
 0001:00024650       ?SetLength@ILob@@CAXV?$Local@VString@v8@@@v8@@V?$Local@VValue@v8@@@3@AEBV?$PropertyCallbackInfo@X@Nan@@@Z 0000000180025650 f   njsIntLob.obj
 0001:00024760       ?GetPieceSize@ILob@@CAXV?$Local@VString@v8@@@v8@@AEBV?$PropertyCallbackInfo@VValue@v8@@@Nan@@@Z 0000000180025760 f   njsIntLob.obj
 0001:00024ae0       ?SetPieceSize@ILob@@CAXV?$Local@VString@v8@@@v8@@V?$Local@VValue@v8@@@3@AEBV?$PropertyCallbackInfo@X@Nan@@@Z 0000000180025ae0 f   njsIntLob.obj
 0001:00024f50       ?GetOffset@ILob@@CAXV?$Local@VString@v8@@@v8@@AEBV?$PropertyCallbackInfo@VValue@v8@@@Nan@@@Z 0000000180025f50 f   njsIntLob.obj
 0001:000252d0       ?SetOffset@ILob@@CAXV?$Local@VString@v8@@@v8@@V?$Local@VValue@v8@@@3@AEBV?$PropertyCallbackInfo@X@Nan@@@Z 00000001800262d0 f   njsIntLob.obj
 0001:000256e0       ?GetType@ILob@@CAXV?$Local@VString@v8@@@v8@@AEBV?$PropertyCallbackInfo@VValue@v8@@@Nan@@@Z 00000001800266e0 f   njsIntLob.obj
 0001:00025830       ?SetType@ILob@@CAXV?$Local@VString@v8@@@v8@@V?$Local@VValue@v8@@@3@AEBV?$PropertyCallbackInfo@X@Nan@@@Z 0000000180026830 f   njsIntLob.obj
 0001:00025940       ?GetIsAutoCloseLob@ILob@@CAXV?$Local@VString@v8@@@v8@@AEBV?$PropertyCallbackInfo@VValue@v8@@@Nan@@@Z 0000000180026940 f   njsIntLob.obj
 0001:00025a70       ?SetIsAutoCloseLob@ILob@@CAXV?$Local@VString@v8@@@v8@@V?$Local@VValue@v8@@@3@AEBV?$PropertyCallbackInfo@X@Nan@@@Z 0000000180026a70 f   njsIntLob.obj
 0001:00025b80       ?GetIsValid@ILob@@CAXV?$Local@VString@v8@@@v8@@AEBV?$PropertyCallbackInfo@VValue@v8@@@Nan@@@Z 0000000180026b80 f   njsIntLob.obj
 0001:00025ca0       ?SetIsValid@ILob@@CAXV?$Local@VString@v8@@@v8@@V?$Local@VValue@v8@@@3@AEBV?$PropertyCallbackInfo@X@Nan@@@Z 0000000180026ca0 f   njsIntLob.obj
 0001:00025db0       ?Read@ILob@@CAXAEBV?$FunctionCallbackInfo@VValue@v8@@@Nan@@@Z 0000000180026db0 f   njsIntLob.obj
 0001:00026230       ?Async_Read@ILob@@CAXPEAUuv_work_s@@@Z 0000000180027230 f   njsIntLob.obj
 0001:00026390       ?Async_AfterRead@ILob@@CAXPEAUuv_work_s@@@Z 0000000180027390 f   njsIntLob.obj
 0001:000265f0       ?Write@ILob@@CAXAEBV?$FunctionCallbackInfo@VValue@v8@@@Nan@@@Z 00000001800275f0 f   njsIntLob.obj
 0001:00026ac0       ?Async_Write@ILob@@CAXPEAUuv_work_s@@@Z 0000000180027ac0 f   njsIntLob.obj
 0001:00026c10       ?Async_AfterWrite@ILob@@CAXPEAUuv_work_s@@@Z 0000000180027c10 f   njsIntLob.obj
 0001:00026de0       ??0ProtoILob@@QEAA@PEAUeBaton@@PEAUDescriptor@dpi@@G@Z 0000000180027de0 f   njsIntLob.obj
 0001:00026fc0       ?cleanup@ProtoILob@@AEAAXXZ 0000000180027fc0 f   njsIntLob.obj
 0001:00027010       ??_EEnv@dpi@@MEAAPEAXI@Z   0000000180028010 f i * CIL library *:* CIL module *
 0001:00027010       ??_GEnv@dpi@@MEAAPEAXI@Z   0000000180028010 f i dpiEnv.obj
 0001:00027040       ??1Env@dpi@@MEAA@XZ        0000000180028040 f   dpiEnv.obj
 0001:00027050       ??0exception@stdext@@QEAA@AEBV01@@Z 0000000180028050 f i dpiEnvImpl.obj
 0001:00027070       ??0EnvImpl@@QEAA@AEBV?$basic_string@DU?$char_traits@D@std@@V?$allocator@D@2@@std@@II@Z 0000000180028070 f   dpiEnvImpl.obj
 0001:000271b0       ??_EEnvImpl@@UEAAPEAXI@Z   00000001800281b0 f i * CIL library *:* CIL module *
 0001:000271b0       ??_GEnvImpl@@UEAAPEAXI@Z   00000001800281b0 f i dpiEnvImpl.obj
 0001:00027220       ??0ExceptionImpl@@QEAA@AEBV0@@Z 0000000180028220 f i dpiEnvImpl.obj
 0001:000272c0       ??0Exception@dpi@@QEAA@AEBV01@@Z 00000001800282c0 f i dpiEnvImpl.obj
 0001:000272e0       ??_EExceptionImpl@@UEAAPEAXI@Z 00000001800282e0 f i * CIL library *:* CIL module *
 0001:000272e0       ??_GExceptionImpl@@UEAAPEAXI@Z 00000001800282e0 f i dpiEnvImpl.obj
 0001:00027340       ?terminate@EnvImpl@@UEAAXXZ 0000000180028340 f   dpiEnvImpl.obj
 0001:00027390       ?poolMax@EnvImpl@@UEAAXI@Z 0000000180028390 f   dpiEnvImpl.obj
 0001:000273a0       ?poolMax@EnvImpl@@UEBAIXZ  00000001800283a0 f   dpiEnvImpl.obj
 0001:000273b0       ?poolMin@EnvImpl@@UEAAXI@Z 00000001800283b0 f   dpiEnvImpl.obj
 0001:000273c0       ?poolMin@EnvImpl@@UEBAIXZ  00000001800283c0 f   dpiEnvImpl.obj
 0001:000273d0       ?poolIncrement@EnvImpl@@UEAAXI@Z 00000001800283d0 f   dpiEnvImpl.obj
 0001:000273e0       ?poolIncrement@EnvImpl@@UEBAIXZ 00000001800283e0 f   dpiEnvImpl.obj
 0001:000273f0       ?poolTimeout@EnvImpl@@UEAAXI@Z 00000001800283f0 f   dpiEnvImpl.obj
 0001:00027400       ?poolTimeout@EnvImpl@@UEBAIXZ 0000000180028400 f   dpiEnvImpl.obj
 0001:00027410       ?drvName@EnvImpl@@UEAAAEBV?$basic_string@DU?$char_traits@D@std@@V?$allocator@D@2@@std@@XZ 0000000180028410 f   dpiEnvImpl.obj
 0001:00027420       ?externalAuth@EnvImpl@@UEAAX_N@Z 0000000180028420 f   dpiEnvImpl.obj
 0001:00027430       ?externalAuth@EnvImpl@@UEBA_NXZ 0000000180028430 f   dpiEnvImpl.obj
 0001:00027440       ?isEventEnabled@EnvImpl@@UEAAX_N@Z 0000000180028440 f   dpiEnvImpl.obj
 0001:00027450       ?isEventEnabled@EnvImpl@@UEBA_NXZ 0000000180028450 f   dpiEnvImpl.obj
 0001:00027460       ?poolMax@PoolImpl@@UEBAHXZ 0000000180028460 f   dpiPoolImpl.obj
 0001:00027460       ?clientcharset@EnvImpl@@UEBAIXZ 0000000180028460 f   dpiEnvImpl.obj
 0001:00027460       ?getLOBCharExpansionRatio@ConnImpl@@UEAAIXZ 0000000180028460 f   dpiConnImpl.obj
 0001:00027470       ?clientncharset@EnvImpl@@UEBAIXZ 0000000180028470 f   dpiEnvImpl.obj
 0001:00027480       ?createPool@EnvImpl@@UEAAPEAVSPool@dpi@@AEBV?$basic_string@DU?$char_traits@D@std@@V?$allocator@D@2@@std@@00HHHHH_N1H@Z 0000000180028480 f   dpiEnvImpl.obj
 0001:00027590       ?getConnection@EnvImpl@@UEAAPEAVConn@dpi@@AEBV?$basic_string@DU?$char_traits@D@std@@V?$allocator@D@2@@std@@00H0_NW4DBPrivileges@3@@Z 0000000180028590 f   dpiEnvImpl.obj
 0001:00027640       ?terminatePool@EnvImpl@@UEAAXPEAVPoolImpl@@@Z 0000000180028640 f   dpiEnvImpl.obj
 0001:00027660       ?releaseConnection@EnvImpl@@UEAAXPEAVConnImpl@@@Z 0000000180028660 f   dpiEnvImpl.obj
 0001:00027660       ?releaseConnection@PoolImpl@@UEAAXPEAVConnImpl@@@Z 0000000180028660 f   dpiPoolImpl.obj
 0001:00027680       ?getDateTimeArray@EnvImpl@@UEBAPEAVDateTimeArray@dpi@@PEAUOCIError@@@Z 0000000180028680 f   dpiEnvImpl.obj
 0001:000276d0       ?releaseDateTimeArray@EnvImpl@@UEBAXPEAVDateTimeArray@dpi@@@Z 00000001800286d0 f   dpiEnvImpl.obj
 0001:000276f0       ?allocHandle@EnvImpl@@UEAAPEAUDpiHandle@dpi@@W4HandleType@3@@Z 00000001800286f0 f   dpiEnvImpl.obj
 0001:00027740       ?allocDescriptor@EnvImpl@@UEAAPEAUDescriptor@dpi@@W4DescriptorType@3@@Z 0000000180028740 f   dpiEnvImpl.obj
 0001:00027790       ?allocDescriptorArray@EnvImpl@@UEAAXW4DescriptorType@dpi@@IQEAPEAUDescriptor@3@@Z 0000000180028790 f   dpiEnvImpl.obj
 0001:000277d0       ?envHandle@EnvImpl@@UEBAPEAUDpiHandle@dpi@@XZ 00000001800287d0 f   dpiEnvImpl.obj
 0001:000277e0       ??0ExceptionImpl@@QEAA@W4DpiError@dpi@@@Z 00000001800287e0 f   dpiExceptionImpl.obj
 0001:000279d0       ??1ExceptionImpl@@UEAA@XZ  00000001800289d0 f   dpiExceptionImpl.obj
 0001:00027a10       ?what@ExceptionImpl@@UEBAPEBDXZ 0000000180028a10 f   dpiExceptionImpl.obj
 0001:00027a20       ?errnum@ExceptionImpl@@UEBAHXZ 0000000180028a20 f   dpiExceptionImpl.obj
 0001:00027a30       ?origin@ExceptionImpl@@UEBAPEBDXZ 0000000180028a30 f   dpiExceptionImpl.obj
 0001:00027a40       ??$?6DU?$char_traits@D@std@@V?$allocator@D@1@@std@@YAAEAV?$basic_ostream@DU?$char_traits@D@std@@@0@AEAV10@AEBV?$basic_string@DU?$char_traits@D@std@@V?$allocator@D@2@@0@@Z 0000000180028a40 f i dpiExceptionImpl.obj
 0001:00027cd0       ??1Conn@dpi@@MEAA@XZ       0000000180028cd0 f i dpiConnImpl.obj
 0001:00027ce0       ??_EConn@dpi@@MEAAPEAXI@Z  0000000180028ce0 f i * CIL library *:* CIL module *
 0001:00027ce0       ??_GConn@dpi@@MEAAPEAXI@Z  0000000180028ce0 f i dpiConnImpl.obj
 0001:00027d10       ?tagMatched@ConnImpl@@UEAAHXZ 0000000180028d10 f i dpiConnImpl.obj
 0001:00027d20       ?tag@ConnImpl@@UEAAAEAV?$basic_string@DU?$char_traits@D@std@@V?$allocator@D@2@@std@@XZ 0000000180028d20 f i dpiConnImpl.obj
 0001:00027d30       ?getSvch@ConnImpl@@UEAAPEAUDpiHandle@dpi@@XZ 0000000180028d30 f i dpiConnImpl.obj
 0001:00027d40       ?getErrh@ConnImpl@@UEAAPEAUDpiHandle@dpi@@XZ 0000000180028d40 f i dpiConnImpl.obj
 0001:00027d50       ??0ConnImpl@@QEAA@PEAVEnvImpl@@PEAUOCIEnv@@_NIAEBV?$basic_string@DU?$char_traits@D@std@@V?$allocator@D@2@@std@@333W4DBPrivileges@dpi@@@Z 0000000180028d50 f   dpiConnImpl.obj
 0001:00027fd0       ??0ConnImpl@@QEAA@PEAVPoolImpl@@PEAUOCIEnv@@_NPEAEIAEBV?$basic_string@DU?$char_traits@D@std@@V?$allocator@D@2@@std@@444HW4DBPrivileges@dpi@@H@Z 0000000180028fd0 f   dpiConnImpl.obj
 0001:00028150       ??_GConnImpl@@UEAAPEAXI@Z  0000000180029150 f i dpiConnImpl.obj
 0001:00028150       ??_EConnImpl@@UEAAPEAXI@Z  0000000180029150 f i * CIL library *:* CIL module *
 0001:000281d0       ?release@ConnImpl@@UEAAXAEBV?$basic_string@DU?$char_traits@D@std@@V?$allocator@D@2@@std@@H@Z 00000001800291d0 f   dpiConnImpl.obj
 0001:000282d0       ?releaseStmt@ConnImpl@@UEAAXPEAVStmt@dpi@@@Z 00000001800292d0 f   dpiConnImpl.obj
 0001:000282f0       ?stmtCacheSize@ConnImpl@@UEAAXI@Z 00000001800292f0 f   dpiConnImpl.obj
 0001:00028340       ?getVarCharByteExpansionRatio@ConnImpl@@UEAAIXZ 0000000180029340 f   dpiConnImpl.obj
 0001:00028350       ?stmtCacheSize@ConnImpl@@UEBAIXZ 0000000180029350 f   dpiConnImpl.obj
 0001:000283a0       ?lobPrefetchSize@ConnImpl@@UEBAIXZ 00000001800293a0 f   dpiConnImpl.obj
 0001:000283f0       ?clientId@ConnImpl@@UEAAXAEBV?$basic_string@DU?$char_traits@D@std@@V?$allocator@D@2@@std@@@Z 00000001800293f0 f   dpiConnImpl.obj
 0001:00028440       ?module@ConnImpl@@UEAAXAEBV?$basic_string@DU?$char_traits@D@std@@V?$allocator@D@2@@std@@@Z 0000000180029440 f   dpiConnImpl.obj
 0001:00028490       ?action@ConnImpl@@UEAAXAEBV?$basic_string@DU?$char_traits@D@std@@V?$allocator@D@2@@std@@@Z 0000000180029490 f   dpiConnImpl.obj
 0001:000284e0       ?getStmt@ConnImpl@@UEAAPEAVStmt@dpi@@AEBV?$basic_string@DU?$char_traits@D@std@@V?$allocator@D@2@@std@@@Z 00000001800294e0 f   dpiConnImpl.obj
 0001:00028530       ?commit@ConnImpl@@UEAAXXZ  0000000180029530 f   dpiConnImpl.obj
 0001:00028560       ?rollback@ConnImpl@@UEAAXXZ 0000000180029560 f   dpiConnImpl.obj
 0001:00028590       ?breakExecution@ConnImpl@@UEAAXXZ 0000000180029590 f   dpiConnImpl.obj
 0001:000285e0       ?setErrState@ConnImpl@@UEAAXH@Z 00000001800295e0 f   dpiConnImpl.obj
 0001:00028620       ?getServerVersion@ConnImpl@@UEAAIXZ 0000000180029620 f   dpiConnImpl.obj
 0001:000286a0       ?initConnImpl@ConnImpl@@AEAAX_N0AEBV?$basic_string@DU?$char_traits@D@std@@V?$allocator@D@2@@std@@PEAEI111HAEAV23@AEAHW4DBPrivileges@dpi@@@Z 00000001800296a0 f   dpiConnImpl.obj
 0001:00028d70       ?cleanup@ConnImpl@@AEAAXXZ 0000000180029d70 f   dpiConnImpl.obj
 0001:00028ea0       ??_EDateTimeArray@dpi@@UEAAPEAXI@Z 0000000180029ea0 f i * CIL library *:* CIL module *
 0001:00028ea0       ??_GDateTimeArray@dpi@@UEAAPEAXI@Z 0000000180029ea0 f i dpiDateTimeArrayImpl.obj
 0001:00028ed0       ??_EDateTimeArrayImpl@dpi@@UEAAPEAXI@Z 0000000180029ed0 f i * CIL library *:* CIL module *
 0001:00028ed0       ??_GDateTimeArrayImpl@dpi@@UEAAPEAXI@Z 0000000180029ed0 f i dpiDateTimeArrayImpl.obj
 0001:00028f30       ?init@DateTimeArrayImpl@dpi@@UEAAPEAXH@Z 0000000180029f30 f   dpiDateTimeArrayImpl.obj
 0001:00029030       ?release@DateTimeArrayImpl@dpi@@UEAAXXZ 000000018002a030 f   dpiDateTimeArrayImpl.obj
 0001:000290a0       ?getDateTime@DateTimeArrayImpl@dpi@@UEAAOH@Z 000000018002a0a0 f   dpiDateTimeArrayImpl.obj
 0001:00029270       ?setDateTime@DateTimeArrayImpl@dpi@@UEAAXHO@Z 000000018002a270 f   dpiDateTimeArrayImpl.obj
 0001:000294a0       ?initBaseDate@DateTimeArrayImpl@dpi@@SAXPEAUOCIEnv@@@Z 000000018002a4a0 f   dpiDateTimeArrayImpl.obj
 0001:00029600       ??1SPool@dpi@@MEAA@XZ      000000018002a600 f i dpiPoolImpl.obj
 0001:00029610       ??_ESPool@dpi@@MEAAPEAXI@Z 000000018002a610 f i * CIL library *:* CIL module *
 0001:00029610       ??_GSPool@dpi@@MEAAPEAXI@Z 000000018002a610 f i dpiPoolImpl.obj
 0001:00029640       ??0PoolImpl@@QEAA@PEAVEnvImpl@@PEAUOCIEnv@@AEBV?$basic_string@DU?$char_traits@D@std@@V?$allocator@D@2@@std@@22HHHH_NH3H@Z 000000018002a640 f   dpiPoolImpl.obj
 0001:00029a80       ??_EPoolImpl@@UEAAPEAXI@Z  000000018002aa80 f i * CIL library *:* CIL module *
 0001:00029a80       ??_GPoolImpl@@UEAAPEAXI@Z  000000018002aa80 f i dpiPoolImpl.obj
 0001:00029ad0       ?terminate@PoolImpl@@UEAAXXZ 000000018002aad0 f   dpiPoolImpl.obj
 0001:00029b60       ?poolTimeout@PoolImpl@@UEAAXI@Z 000000018002ab60 f   dpiPoolImpl.obj
 0001:00029bb0       ?stmtCacheSize@PoolImpl@@UEAAXI@Z 000000018002abb0 f   dpiPoolImpl.obj
 0001:00029c00       ?connectionsOpen@PoolImpl@@UEBAIXZ 000000018002ac00 f   dpiPoolImpl.obj
 0001:00029c50       ?connectionsInUse@PoolImpl@@UEBAIXZ 000000018002ac50 f   dpiPoolImpl.obj
 0001:00029ca0       ?getConnection@PoolImpl@@UEAAPEAVConn@dpi@@AEBV?$basic_string@DU?$char_traits@D@std@@V?$allocator@D@2@@std@@000HW4DBPrivileges@3@@Z 000000018002aca0 f   dpiPoolImpl.obj
 0001:00029d60       ?cleanup@PoolImpl@@AEAAXXZ 000000018002ad60 f   dpiPoolImpl.obj
 0001:00029de0       ??1Stmt@dpi@@UEAA@XZ       000000018002ade0 f i dpiStmtImpl.obj
 0001:00029df0       ??_GStmt@dpi@@UEAAPEAXI@Z  000000018002adf0 f i dpiStmtImpl.obj
 0001:00029df0       ??_EStmt@dpi@@UEAAPEAXI@Z  000000018002adf0 f i * CIL library *:* CIL module *
 0001:00029e20       ?getError@StmtImpl@@UEAAPEAUOCIError@@XZ 000000018002ae20 f i dpiStmtImpl.obj
 0001:00029e30       ??0StmtImpl@@QEAA@PEAUOCIEnv@@PEAVConnImpl@@PEAUOCISvcCtx@@AEBV?$basic_string@DU?$char_traits@D@std@@V?$allocator@D@2@@std@@@Z 000000018002ae30 f   dpiStmtImpl.obj
 0001:00029f60       ??_EStmtImpl@@UEAAPEAXI@Z  000000018002af60 f i * CIL library *:* CIL module *
 0001:00029f60       ??_GStmtImpl@@UEAAPEAXI@Z  000000018002af60 f i dpiStmtImpl.obj
 0001:00029fc0       ?stmtType@StmtImpl@@UEBA?AW4DpiStmtType@dpi@@XZ 000000018002afc0 f   dpiStmtImpl.obj
 0001:0002a020       ?rowsAffected@StmtImpl@@UEBAIXZ 000000018002b020 f   dpiStmtImpl.obj
 0001:0002a070       ?numCols@StmtImpl@@UEAAIXZ 000000018002b070 f   dpiStmtImpl.obj
 0001:0002a0d0       ?prefetchRows@StmtImpl@@UEAAXI@Z 000000018002b0d0 f   dpiStmtImpl.obj
 0001:0002a120       ?bind@StmtImpl@@UEAAXIGPEAXHPEAFPEAGIPEAIPEAUDpiBindCallbackCtx@dpi@@@Z 000000018002b120 f   dpiStmtImpl.obj
 0001:0002a260       ?bind@StmtImpl@@UEAAXPEBEHIGPEAXHPEAFPEAGIPEAIPEAUDpiBindCallbackCtx@dpi@@@Z 000000018002b260 f   dpiStmtImpl.obj
 0001:0002a3c0       ?execute@StmtImpl@@UEAAXH_N@Z 000000018002b3c0 f   dpiStmtImpl.obj
 0001:0002a440       ?release@StmtImpl@@UEAAXXZ 000000018002b440 f   dpiStmtImpl.obj
 0001:0002a480       ?define@StmtImpl@@UEAAXIGPEAXHPEAFPEAGPEAUDpiDefineCallbackCtx@dpi@@@Z 000000018002b480 f   dpiStmtImpl.obj
 0001:0002a5b0       ?fetch@StmtImpl@@UEAAXI@Z  000000018002b5b0 f   dpiStmtImpl.obj
 0001:0002a600       ?rowsFetched@StmtImpl@@UEBAIXZ 000000018002b600 f   dpiStmtImpl.obj
 0001:0002a650       ?getMetaData@StmtImpl@@UEAAPEBUMetaData@dpi@@_N@Z 000000018002b650 f   dpiStmtImpl.obj
 0001:0002a990       ?cleanup@StmtImpl@@AEAAXXZ 000000018002b990 f   dpiStmtImpl.obj
 0001:0002aa30       ?inbindCallback@StmtImpl@@SAHPEAXPEAUOCIBind@@IIPEAPEAXPEAIPEAE2@Z 000000018002ba30 f   dpiStmtImpl.obj
 0001:0002aa70       ?outbindCallback@StmtImpl@@SAHPEAXPEAUOCIBind@@IIPEAPEAXPEAPEAIPEAE2PEAPEAG@Z 000000018002ba70 f   dpiStmtImpl.obj
 0001:0002ab90       ?defineCallback@StmtImpl@@SAHPEAXPEAUOCIDefine@@IPEAPEAXPEAPEAIPEAE2PEAPEAG@Z 000000018002bb90 f   dpiStmtImpl.obj
 0001:0002abe0       ?isReturning@StmtImpl@@UEAA_NXZ 000000018002bbe0 f   dpiStmtImpl.obj
 0001:0002ac60       ?getState@StmtImpl@@UEAAIXZ 000000018002bc60 f   dpiStmtImpl.obj
 0001:0002ae6c       __imp_load_uv_queue_work   000000018002be6c f   node:node.exe
 0001:0002ae78       __tailMerge_node_exe       000000018002be78 f i node:node.exe
 0001:0002aef1       __imp_load_?Global@Context@v8@@QEAA?AV?$Local@VObject@v8@@@2@XZ 000000018002bef1 f   node:node.exe
 0001:0002aefd       __imp_load_?Value@External@v8@@QEBAPEAXXZ 000000018002befd f   node:node.exe
 0001:0002af09       __imp_load_?New@External@v8@@SA?AV?$Local@VExternal@v8@@@2@PEAVIsolate@2@PEAX@Z 000000018002bf09 f   node:node.exe
 0001:0002af15       __imp_load_?NewFromUnsigned@Integer@v8@@SA?AV?$Local@VInteger@v8@@@2@PEAVIsolate@2@I@Z 000000018002bf15 f   node:node.exe
 0001:0002af21       __imp_load_?New@Integer@v8@@SA?AV?$Local@VInteger@v8@@@2@PEAVIsolate@2@H@Z 000000018002bf21 f   node:node.exe
 0001:0002af2d       __imp_load_?New@Signature@v8@@SA?AV?$Local@VSignature@v8@@@2@PEAVIsolate@2@V?$Local@VFunctionTemplate@v8@@@2@@Z 000000018002bf2d f   node:node.exe
 0001:0002af39       __imp_load_?ThrowException@Isolate@v8@@QEAA?AV?$Local@VValue@v8@@@2@V32@@Z 000000018002bf39 f   node:node.exe
 0001:0002af45       __imp_load_?GetCurrentContext@Isolate@v8@@QEAA?AV?$Local@VContext@v8@@@2@XZ 000000018002bf45 f   node:node.exe
 0001:0002af51       __imp_load_?GetCurrent@Isolate@v8@@SAPEAV12@XZ 000000018002bf51 f   node:node.exe
 0001:0002af5d       __imp_load_?CreateHandle@HandleScope@v8@@KAPEAPEAVObject@internal@2@PEAVIsolate@42@PEAV342@@Z 000000018002bf5d f   node:node.exe
 0001:0002af69       __imp_load_?CreateHandle@HandleScope@v8@@CAPEAPEAVObject@internal@2@PEAVHeapObject@42@PEAV342@@Z 000000018002bf69 f   node:node.exe
 0001:0002af75       __imp_load_??1HandleScope@v8@@QEAA@XZ 000000018002bf75 f   node:node.exe
 0001:0002af81       __imp_load_??0HandleScope@v8@@QEAA@PEAVIsolate@1@@Z 000000018002bf81 f   node:node.exe
 0001:0002af8d       __imp_load_?Set@Template@v8@@QEAAXV?$Local@VName@v8@@@2@V?$Local@VData@v8@@@2@W4PropertyAttribute@2@@Z 000000018002bf8d f   node:node.exe
 0001:0002af99       __imp_load_?Error@Exception@v8@@SA?AV?$Local@VValue@v8@@@2@V?$Local@VString@v8@@@2@@Z 000000018002bf99 f   node:node.exe
 0001:0002afa5       __imp_load_?New@Array@v8@@SA?AV?$Local@VArray@v8@@@2@PEAVIsolate@2@H@Z 000000018002bfa5 f   node:node.exe
 0001:0002afb1       __imp_load_?Length@Array@v8@@QEBAIXZ 000000018002bfb1 f   node:node.exe
 0001:0002afbd       __imp_load_?SetClassName@FunctionTemplate@v8@@QEAAXV?$Local@VString@v8@@@2@@Z 000000018002bfbd f   node:node.exe
 0001:0002afc9       __imp_load_?PrototypeTemplate@FunctionTemplate@v8@@QEAA?AV?$Local@VObjectTemplate@v8@@@2@XZ 000000018002bfc9 f   node:node.exe
 0001:0002afd5       __imp_load_?InstanceTemplate@FunctionTemplate@v8@@QEAA?AV?$Local@VObjectTemplate@v8@@@2@XZ 000000018002bfd5 f   node:node.exe
 0001:0002afe1       __imp_load_?GetFunction@FunctionTemplate@v8@@QEAA?AV?$Local@VFunction@v8@@@2@XZ 000000018002bfe1 f   node:node.exe
 0001:0002afed       __imp_load_?GetFunction@FunctionTemplate@v8@@QEAA?AV?$MaybeLocal@VFunction@v8@@@2@V?$Local@VContext@v8@@@2@@Z 000000018002bfed f   node:node.exe
 0001:0002aff9       __imp_load_?New@FunctionTemplate@v8@@SA?AV?$Local@VFunctionTemplate@v8@@@2@PEAVIsolate@2@P6AXAEBV?$FunctionCallbackInfo@VValue@v8@@@2@@ZV?$Local@VValue@v8@@@2@V?$Local@VSignature@v8@@@2@H@Z 000000018002bff9 f   node:node.exe
 0001:0002b005       __imp_load_?Value@Boolean@v8@@QEBA_NXZ 000000018002c005 f   node:node.exe
 0001:0002b011       __imp_load_?ToLocalEmpty@V8@v8@@CAXXZ 000000018002c011 f   node:node.exe
 0001:0002b01d       __imp_load_?FromJustIsNothing@V8@v8@@CAXXZ 000000018002c01d f   node:node.exe
 0001:0002b029       __imp_load_?ClearWeak@V8@v8@@CAPEAXPEAPEAVObject@internal@2@@Z 000000018002c029 f   node:node.exe
 0001:0002b035       __imp_load_?MakeWeak@V8@v8@@CAXPEAPEAVObject@internal@2@PEAXP6AXAEBV?$WeakCallbackInfo@X@2@@ZW4WeakCallbackType@2@@Z 000000018002c035 f   node:node.exe
 0001:0002b041       __imp_load_?DisposeGlobal@V8@v8@@CAXPEAPEAVObject@internal@2@@Z 000000018002c041 f   node:node.exe
 0001:0002b04d       __imp_load_?GlobalizeReference@V8@v8@@CAPEAPEAVObject@internal@2@PEAVIsolate@42@PEAPEAV342@@Z 000000018002c04d f   node:node.exe
 0001:0002b059       __imp_load_?Int32Value@Value@v8@@QEBA?AV?$Maybe@H@2@V?$Local@VContext@v8@@@2@@Z 000000018002c059 f   node:node.exe
 0001:0002b065       __imp_load_?Uint32Value@Value@v8@@QEBA?AV?$Maybe@I@2@V?$Local@VContext@v8@@@2@@Z 000000018002c065 f   node:node.exe
 0001:0002b071       __imp_load_?ToInteger@Value@v8@@QEBA?AV?$MaybeLocal@VInteger@v8@@@2@V?$Local@VContext@v8@@@2@@Z 000000018002c071 f   node:node.exe
 0001:0002b07d       __imp_load_?IsUint32@Value@v8@@QEBA_NXZ 000000018002c07d f   node:node.exe
 0001:0002b089       __imp_load_?IsInt32@Value@v8@@QEBA_NXZ 000000018002c089 f   node:node.exe
 0001:0002b095       __imp_load_?IsNumber@Value@v8@@QEBA_NXZ 000000018002c095 f   node:node.exe
 0001:0002b0a1       __imp_load_?IsObject@Value@v8@@QEBA_NXZ 000000018002c0a1 f   node:node.exe
 0001:0002b0ad       __imp_load_?IsArray@Value@v8@@QEBA_NXZ 000000018002c0ad f   node:node.exe
 0001:0002b0b9       __imp_load_?IsFunction@Value@v8@@QEBA_NXZ 000000018002c0b9 f   node:node.exe
 0001:0002b0c5       __imp_load_?HasCaught@TryCatch@v8@@QEBA_NXZ 000000018002c0c5 f   node:node.exe
 0001:0002b0d1       __imp_load_??1TryCatch@v8@@QEAA@XZ 000000018002c0d1 f   node:node.exe
 0001:0002b0dd       __imp_load_??0TryCatch@v8@@QEAA@PEAVIsolate@1@@Z 000000018002c0dd f   node:node.exe
 0001:0002b0e9       __imp_load_?Escape@EscapableHandleScope@v8@@AEAAPEAPEAVObject@internal@2@PEAPEAV342@@Z 000000018002c0e9 f   node:node.exe
 0001:0002b0f5       __imp_load_??0EscapableHandleScope@v8@@QEAA@PEAVIsolate@1@@Z 000000018002c0f5 f   node:node.exe
 0001:0002b101       __imp_load_??1Utf8Value@String@v8@@QEAA@XZ 000000018002c101 f   node:node.exe
 0001:0002b10d       __imp_load_??0Utf8Value@String@v8@@QEAA@V?$Local@VValue@v8@@@2@@Z 000000018002c10d f   node:node.exe
 0001:0002b119       __imp_load_?NewFromUtf8@String@v8@@SA?AV?$MaybeLocal@VString@v8@@@2@PEAVIsolate@2@PEBDW4NewStringType@2@H@Z 000000018002c119 f   node:node.exe
 0001:0002b125       __imp_load_?SlowGetAlignedPointerFromInternalField@Object@v8@@AEAAPEAXH@Z 000000018002c125 f   node:node.exe
 0001:0002b131       __imp_load_?SlowGetInternalField@Object@v8@@AEAA?AV?$Local@VValue@v8@@@2@H@Z 000000018002c131 f   node:node.exe
 0001:0002b13d       __imp_load_?SetAlignedPointerInInternalField@Object@v8@@QEAAXHPEAX@Z 000000018002c13d f   node:node.exe
 0001:0002b149       __imp_load_?SetInternalField@Object@v8@@QEAAXHV?$Local@VValue@v8@@@2@@Z 000000018002c149 f   node:node.exe
 0001:0002b155       __imp_load_?InternalFieldCount@Object@v8@@QEAAHXZ 000000018002c155 f   node:node.exe
 0001:0002b161       __imp_load_?Get@Object@v8@@QEAA?AV?$Local@VValue@v8@@@2@V32@@Z 000000018002c161 f   node:node.exe
 0001:0002b16d       __imp_load_?Get@Object@v8@@QEAA?AV?$Local@VValue@v8@@@2@I@Z 000000018002c16d f   node:node.exe
 0001:0002b179       __imp_load_?Set@Object@v8@@QEAA?AV?$Maybe@_N@2@V?$Local@VContext@v8@@@2@V?$Local@VValue@v8@@@2@1@Z 000000018002c179 f   node:node.exe
 0001:0002b185       __imp_load_?Set@Object@v8@@QEAA_NIV?$Local@VValue@v8@@@2@@Z 000000018002c185 f   node:node.exe
 0001:0002b191       __imp_load_?SetInternalFieldCount@ObjectTemplate@v8@@QEAAXH@Z 000000018002c191 f   node:node.exe
 0001:0002b19d       __imp_load_?SetAccessor@ObjectTemplate@v8@@QEAAXV?$Local@VName@v8@@@2@P6AX0AEBV?$PropertyCallbackInfo@VValue@v8@@@2@@ZP6AX0V?$Local@VValue@v8@@@2@AEBV?$PropertyCallbackInfo@X@2@@Z3W4AccessControl@2@W4PropertyAttribute@2@V?$Local@VAccessorSignature@v8@@@2@@Z 000000018002c19d f   node:node.exe
 0001:0002b1a9       __imp_load_?NewInstance@ObjectTemplate@v8@@QEAA?AV?$MaybeLocal@VObject@v8@@@2@V?$Local@VContext@v8@@@2@@Z 000000018002c1a9 f   node:node.exe
 0001:0002b1b5       __imp_load_?New@ObjectTemplate@v8@@SA?AV?$Local@VObjectTemplate@v8@@@2@PEAVIsolate@2@V?$Local@VFunctionTemplate@v8@@@2@@Z 000000018002c1b5 f   node:node.exe
 0001:0002b1c1       __imp_load_?FatalException@node@@YAXPEAVIsolate@v8@@AEBVTryCatch@3@@Z 000000018002c1c1 f   node:node.exe
 0001:0002b1cd       __imp_load_node_module_register 000000018002c1cd f   node:node.exe
 0001:0002b1d9       __imp_load_?MakeCallback@node@@YA?AV?$Local@VValue@v8@@@v8@@PEAVIsolate@3@V?$Local@VObject@v8@@@3@V?$Local@VFunction@v8@@@3@HPEAV23@@Z 000000018002c1d9 f   node:node.exe
 0001:0002b1e5       __imp_load_uv_default_loop 000000018002c1e5 f   node:node.exe
 0001:0002b1f1       __imp_load_?ToObject@Value@v8@@QEBA?AV?$Local@VObject@v8@@@2@XZ 000000018002c1f1 f   node:node.exe
 0001:0002b1fd       __imp_load_?ToString@Value@v8@@QEBA?AV?$Local@VString@v8@@@2@XZ 000000018002c1fd f   node:node.exe
 0001:0002b209       __imp_load_?ToBoolean@Value@v8@@QEBA?AV?$Local@VBoolean@v8@@@2@XZ 000000018002c209 f   node:node.exe
 0001:0002b215       __imp_load_?NewInstance@Function@v8@@QEBA?AV?$MaybeLocal@VObject@v8@@@2@V?$Local@VContext@v8@@@2@@Z 000000018002c215 f   node:node.exe
 0001:0002b221       __imp_load_??1EscapableHandleScope@v8@@QEAA@XZ 000000018002c221 f   node:node.exe
 0001:0002b22d       __imp_load_?New@Date@v8@@SA?AV?$MaybeLocal@VValue@v8@@@2@V?$Local@VContext@v8@@@2@N@Z 000000018002c22d f   node:node.exe
 0001:0002b239       __imp_load_?NumberValue@Value@v8@@QEBANXZ 000000018002c239 f   node:node.exe
 0001:0002b245       __imp_load_?IsDate@Value@v8@@QEBA_NXZ 000000018002c245 f   node:node.exe
 0001:0002b251       __imp_load_?New@Number@v8@@SA?AV?$Local@VNumber@v8@@@2@PEAVIsolate@2@N@Z 000000018002c251 f   node:node.exe
 0001:0002b25d       __imp_load_?New@Object@v8@@SA?AV?$Local@VObject@v8@@@2@PEAVIsolate@2@@Z 000000018002c25d f   node:node.exe
 0001:0002b269       __imp_load_?GetOwnPropertyNames@Object@v8@@QEAA?AV?$Local@VArray@v8@@@2@XZ 000000018002c269 f   node:node.exe
 0001:0002b275       __imp_load_?ForceSet@Object@v8@@QEAA?AV?$Maybe@_N@2@V?$Local@VContext@v8@@@2@V?$Local@VValue@v8@@@2@1W4PropertyAttribute@2@@Z 000000018002c275 f   node:node.exe
 0001:0002b281       __imp_load_?Set@Object@v8@@QEAA?AV?$Maybe@_N@2@V?$Local@VContext@v8@@@2@IV?$Local@VValue@v8@@@2@@Z 000000018002c281 f   node:node.exe
 0001:0002b28d       __imp_load_?Call@Function@v8@@QEAA?AV?$Local@VValue@v8@@@2@V32@HQEAV32@@Z 000000018002c28d f   node:node.exe
 0001:0002b299       __imp_load_?HasInstance@Buffer@node@@YA_NV?$Local@VValue@v8@@@v8@@@Z 000000018002c299 f   node:node.exe
 0001:0002b2a5       __imp_load_?HasInstance@Buffer@node@@YA_NV?$Local@VObject@v8@@@v8@@@Z 000000018002c2a5 f   node:node.exe
 0001:0002b2b1       __imp_load_?Data@Buffer@node@@YAPEADV?$Local@VObject@v8@@@v8@@@Z 000000018002c2b1 f   node:node.exe
 0001:0002b2bd       __imp_load_?Copy@Buffer@node@@YA?AV?$MaybeLocal@VObject@v8@@@v8@@PEAVIsolate@4@PEBD_K@Z 000000018002c2bd f   node:node.exe
 0001:0002b2c9       __imp_load_?Length@Buffer@node@@YA_KV?$Local@VObject@v8@@@v8@@@Z 000000018002c2c9 f   node:node.exe
 0001:0002b2d5       __imp_load_?HasInstance@FunctionTemplate@v8@@QEAA_NV?$Local@VValue@v8@@@2@@Z 000000018002c2d5 f   node:node.exe
 0001:0002b2e4       ??0_Init_locks@std@@QEAA@XZ 000000018002c2e4 f   libcpmt:xlock.obj
 0001:0002b330       ??0_Lockit@std@@QEAA@H@Z   000000018002c330 f   libcpmt:xlock.obj
 0001:0002b36c       ??1_Init_locks@std@@QEAA@XZ 000000018002c36c f   libcpmt:xlock.obj
 0001:0002b3b0       ??1_Lockit@std@@QEAA@XZ    000000018002c3b0 f   libcpmt:xlock.obj
 0001:0002b3e4       ??4?$_Yarn@D@std@@QEAAAEAV01@PEBD@Z 000000018002c3e4 f i libcpmt:locale0.obj
 0001:0002b45c       ??_G_Fac_node@std@@QEAAPEAXI@Z 000000018002c45c f i libcpmt:locale0.obj
 0001:0002b4e8       ??_G_Locimp@locale@std@@MEAAPEAXI@Z 000000018002c4e8 f i libcpmt:locale0.obj
 0001:0002b4e8       ??_E_Locimp@locale@std@@MEAAPEAXI@Z 000000018002c4e8 f i libcpmt:locale0.obj
 0001:0002b554       ?_Facet_Register@std@@YAXPEAV_Facet_base@1@@Z 000000018002c554 f   libcpmt:locale0.obj
 0001:0002b58c       ?_Getgloballocale@locale@std@@CAPEAV_Locimp@12@XZ 000000018002c58c f   libcpmt:locale0.obj
 0001:0002b594       ?_Init@locale@std@@CAPEAV_Locimp@12@_N@Z 000000018002c594 f   libcpmt:locale0.obj
 0001:0002b650       ?_Locimp_dtor@_Locimp@locale@std@@CAXPEAV123@@Z 000000018002c650 f   libcpmt:locale0.obj
 0001:0002b6f8       ?_Locinfo_ctor@_Locinfo@std@@SAXPEAV12@PEBD@Z 000000018002c6f8 f   libcpmt:locale0.obj
 0001:0002b764       ?_Locinfo_dtor@_Locinfo@std@@SAXPEAV12@@Z 000000018002c764 f   libcpmt:locale0.obj
 0001:0002b788       ?_New_Locimp@_Locimp@locale@std@@CAPEAV123@_N@Z 000000018002c788 f   libcpmt:locale0.obj
 0001:0002b7f8       ?_Setgloballocale@locale@std@@CAXPEAX@Z 000000018002c7f8 f   libcpmt:locale0.obj
 0001:0002b82c       _Deletegloballocale        000000018002c82c f   libcpmt:locale0.obj
 0001:0002b8b4       ??0bad_alloc@std@@QEAA@AEBV01@@Z 000000018002c8b4 f i libcpmt:xthrow.obj
 0001:0002b8f4       ??0bad_alloc@std@@QEAA@XZ  000000018002c8f4 f i libcpmt:xthrow.obj
 0001:0002b914       ??0exception@std@@QEAA@AEBV01@@Z 000000018002c914 f i libcpmt:xthrow.obj
 0001:0002b94c       ??0length_error@std@@QEAA@AEBV01@@Z 000000018002c94c f i libcpmt:xthrow.obj
 0001:0002b98c       ??0length_error@std@@QEAA@PEBD@Z 000000018002c98c f i libcpmt:xthrow.obj
 0001:0002b9d8       ??0logic_error@std@@QEAA@AEBV01@@Z 000000018002c9d8 f i libcpmt:xthrow.obj
 0001:0002ba18       ??0out_of_range@std@@QEAA@AEBV01@@Z 000000018002ca18 f i libcpmt:xthrow.obj
 0001:0002ba58       ??0out_of_range@std@@QEAA@PEBD@Z 000000018002ca58 f i libcpmt:xthrow.obj
 0001:0002baa4       ?_Xlength_error@std@@YAXPEBD@Z 000000018002caa4 f   libcpmt:xthrow.obj
 0001:0002bac8       ?_Xout_of_range@std@@YAXPEBD@Z 000000018002cac8 f   libcpmt:xthrow.obj
 0001:0002baec       ?what@exception@std@@UEBAPEBDXZ 000000018002caec f i libcpmt:xthrow.obj
 0001:0002bb00       ?_Ios_base_dtor@ios_base@std@@CAXPEAV12@@Z 000000018002cb00 f   libcpmt:ios.obj
 0001:0002bb44       ?_Tidy@ios_base@std@@AEAAXXZ 000000018002cb44 f i libcpmt:ios.obj
 0001:0002bbd4       ?_Syserror_map@std@@YAPEBDH@Z 000000018002cbd4 f   libcpmt:syserror.obj
 0001:0002bbfc       _Getctype                  000000018002cbfc f   libcpmt:_tolower.obj
 0001:0002bcbc       _Tolower                   000000018002ccbc f   libcpmt:_tolower.obj
 0001:0002bde4       _Getcvt                    000000018002cde4 f   libcpmt:xwctomb.obj
 0001:0002be74       _Toupper                   000000018002ce74 f   libcpmt:_toupper.obj
 0001:0002bfac       ?setw@std@@YA?AU?$_Smanip@_J@1@_J@Z 000000018002cfac f   libcpmt:iomanip.obj
 0001:0002bfc8       _Mtxdst                    000000018002cfc8 f   libcpmt:xmtx.obj
 0001:0002bfd0       _Mtxinit                   000000018002cfd0 f   libcpmt:xmtx.obj
 0001:0002bfe0       _Mtxlock                   000000018002cfe0 f   libcpmt:xmtx.obj
 0001:0002bfe8       _Mtxunlock                 000000018002cfe8 f   libcpmt:xmtx.obj
 0001:0002bff0       ?_Atexit@@YAXP6AXXZ@Z      000000018002cff0 f   libcpmt:iosptrs.obj
 0001:0002c030       __crtLCMapStringA          000000018002d030 f   libcpmt:StlLCMapStringA.obj
 0001:0002c7ec       __crtInitializeCriticalSectionEx 000000018002d7ec f   libcpmt:winapisupp.obj
 0001:0002c84c       GetTableIndexFromLocaleName 000000018002d84c f   libcpmt:winapinls.obj
 0001:0002c8d8       __crtDownlevelLocaleNameToLCID 000000018002d8d8 f   libcpmt:winapinls.obj
 0001:0002c90c       __crtLCMapStringEx         000000018002d90c f   libcpmt:winapinls.obj
 0001:0002c9c8       __wcsnicmp_ascii           000000018002d9c8 f   libcpmt:winapinls.obj
 0001:0002ca30       __security_check_cookie    000000018002da30 f   LIBCMT:_amdsecgs_.obj
 0001:0002cb9c       _Init_thread_footer        000000018002db9c f   LIBCMT:thread_safe_statics.obj
 0001:0002cbfc       _Init_thread_header        000000018002dbfc f   LIBCMT:thread_safe_statics.obj
 0001:0002cc64       _Init_thread_notify        000000018002dc64 f   LIBCMT:thread_safe_statics.obj
 0001:0002ccc0       _Init_thread_wait          000000018002dcc0 f   LIBCMT:thread_safe_statics.obj
 0001:0002cd58       ??2@YAPEAX_K@Z             000000018002dd58 f   LIBCMT:new_scalar.obj
 0001:0002cd94       __scrt_acquire_startup_lock 000000018002dd94 f   LIBCMT:utility.obj
 0001:0002cdd0       __scrt_dllmain_after_initialize_c 000000018002ddd0 f   LIBCMT:utility.obj
 0001:0002ce04       __scrt_dllmain_before_initialize_c 000000018002de04 f   LIBCMT:utility.obj
 0001:0002ce1c       __scrt_dllmain_crt_thread_attach 000000018002de1c f   LIBCMT:utility.obj
 0001:0002ce44       __scrt_dllmain_crt_thread_detach 000000018002de44 f   LIBCMT:utility.obj
 0001:0002ce5c       __scrt_dllmain_exception_filter 000000018002de5c f   LIBCMT:utility.obj
 0001:0002cec0       __scrt_dllmain_uninitialize_c 000000018002dec0 f   LIBCMT:utility.obj
 0001:0002cef0       __scrt_dllmain_uninitialize_critical 000000018002def0 f   LIBCMT:utility.obj
 0001:0002cf04       __scrt_initialize_crt      000000018002df04 f   LIBCMT:utility.obj
 0001:0002cf50       __scrt_initialize_onexit_tables 000000018002df50 f   LIBCMT:utility.obj
 0001:0002d01c       __scrt_is_nonwritable_in_current_image 000000018002e01c f   LIBCMT:utility.obj
 0001:0002d0b8       __scrt_release_startup_lock 000000018002e0b8 f   LIBCMT:utility.obj
 0001:0002d0dc       __scrt_uninitialize_crt    000000018002e0dc f   LIBCMT:utility.obj
 0001:0002d108       _onexit                    000000018002e108 f   LIBCMT:utility.obj
 0001:0002d158       atexit                     000000018002e158 f   LIBCMT:utility.obj
 0001:0002d170       ??3@YAXPEAX@Z              000000018002e170 f   LIBCMT:delete_scalar.obj
 0001:0002d178       ??_V@YAXPEAX@Z             000000018002e178 f   LIBCMT:delete_array.obj
 0001:0002d178       ??3@YAXPEAX_K@Z            000000018002e178 f   LIBCMT:delete_scalar_size.obj
 0001:0002d180       ??_Etype_info@@UEAAPEAXI@Z 000000018002e180 f i LIBCMT:std_type_info_static.obj
 0001:0002d180       ??_Gtype_info@@UEAAPEAXI@Z 000000018002e180 f i LIBCMT:std_type_info_static.obj
 0001:0002d1ac       ??_V@YAXPEAX_K@Z           000000018002e1ac f   LIBCMT:delete_array_size.obj
 0001:0002d1b4       ??_M@YAXPEAX_K1P6AX0@Z@Z   000000018002e1b4 f   LIBCMT:ehvecdtr.obj
 0001:0002d220       ?__ArrayUnwind@@YAXPEAX_K1P6AX0@Z@Z 000000018002e220 f   LIBCMT:ehvecdtr.obj
 0001:0002d284       ??_U@YAPEAX_K@Z            000000018002e284 f   LIBCMT:new_array.obj
 0001:0002d28c       ??_L@YAXPEAX_K1P6AX0@Z2@Z  000000018002e28c f   LIBCMT:ehvecctr.obj
 0001:0002d2fc       __raise_securityfailure    000000018002e2fc f   LIBCMT:gs_report.obj
 0001:0002d330       __report_gsfailure         000000018002e330 f   LIBCMT:gs_report.obj
 0001:0002d404       __report_rangecheckfailure 000000018002e404 f   LIBCMT:gs_report.obj
 0001:0002d418       __report_securityfailure   000000018002e418 f   LIBCMT:gs_report.obj
 0001:0002d8e4       _DllMainCRTStartup         000000018002e8e4 f   LIBCMT:dll_dllmain.obj
 0001:0002d924       _guard_check_icall         000000018002e924 f i LIBCMT:checkcfg.obj
 0001:0002d92c       __GSHandlerCheck           000000018002e92c f   LIBCMT:_gshandler_.obj
 0001:0002d94c       __GSHandlerCheckCommon     000000018002e94c f   LIBCMT:_gshandler_.obj
 0001:0002d9a8       __GSHandlerCheck_EH        000000018002e9a8 f   LIBCMT:gshandlereh.obj
 0001:0002da40       __chkstk                   000000018002ea40 f   LIBCMT:_chkstk_.obj
 0001:0002da40       _alloca_probe              000000018002ea40 f   LIBCMT:_chkstk_.obj
 0001:0002da94       __crt_debugger_hook        000000018002ea94 f   LIBCMT:utility_desktop.obj
 0001:0002da9c       __scrt_fastfail            000000018002ea9c f   LIBCMT:utility_desktop.obj
 0001:0002dbe4       ??0bad_array_new_length@std@@QEAA@AEBV01@@Z 000000018002ebe4 f i LIBCMT:throw_bad_alloc.obj
 0001:0002dc24       ??0bad_array_new_length@std@@QEAA@XZ 000000018002ec24 f i LIBCMT:throw_bad_alloc.obj
 0001:0002dc44       ??_Gexception@std@@UEAAPEAXI@Z 000000018002ec44 f i libcpmt:xthrow.obj
 0001:0002dc44       ??_Elogic_error@std@@UEAAPEAXI@Z 000000018002ec44 f i libcpmt:xthrow.obj
 0001:0002dc44       ??_Eexception@std@@UEAAPEAXI@Z 000000018002ec44 f i libcpmt:xthrow.obj
 0001:0002dc44       ??_Gbad_alloc@std@@UEAAPEAXI@Z 000000018002ec44 f i libcpmt:xthrow.obj
 0001:0002dc44       ??_Ebad_exception@std@@UEAAPEAXI@Z 000000018002ec44 f i libvcruntime:frame.obj
 0001:0002dc44       ??_Gout_of_range@std@@UEAAPEAXI@Z 000000018002ec44 f i libcpmt:xthrow.obj
 0001:0002dc44       ??_Eout_of_range@std@@UEAAPEAXI@Z 000000018002ec44 f i libcpmt:xthrow.obj
 0001:0002dc44       ??_Gbad_exception@std@@UEAAPEAXI@Z 000000018002ec44 f i libvcruntime:frame.obj
 0001:0002dc44       ??_Glength_error@std@@UEAAPEAXI@Z 000000018002ec44 f i libcpmt:xthrow.obj
 0001:0002dc44       ??_Ebad_alloc@std@@UEAAPEAXI@Z 000000018002ec44 f i libcpmt:xthrow.obj
 0001:0002dc44       ??_Ebad_array_new_length@std@@UEAAPEAXI@Z 000000018002ec44 f i LIBCMT:throw_bad_alloc.obj
 0001:0002dc44       ??_Glogic_error@std@@UEAAPEAXI@Z 000000018002ec44 f i libcpmt:xthrow.obj
 0001:0002dc44       ??_Elength_error@std@@UEAAPEAXI@Z 000000018002ec44 f i libcpmt:xthrow.obj
 0001:0002dc44       ??_Gbad_array_new_length@std@@UEAAPEAXI@Z 000000018002ec44 f i LIBCMT:throw_bad_alloc.obj
 0001:0002dc88       ?__scrt_throw_std_bad_alloc@@YAXXZ 000000018002ec88 f   LIBCMT:throw_bad_alloc.obj
 0001:0002dc88       ?_Xbad_alloc@std@@YAXXZ    000000018002ec88 f   libcpmt:xthrow.obj
 0001:0002dca8       ?__scrt_throw_std_bad_array_new_length@@YAXXZ 000000018002eca8 f   LIBCMT:throw_bad_alloc.obj
 0001:0002dcc8       __isa_available_init       000000018002ecc8 f   LIBCMT:_cpu_disp_.obj
 0001:0002de90       _get_startup_argv_mode     000000018002ee90 f   LIBCMT:argv_mode.obj
 0001:0002de90       DllMain                    000000018002ee90 f   LIBCMT:dll_dllmain_stub.obj
 0001:0002de98       __scrt_is_ucrt_dll_in_use  000000018002ee98 f   LIBCMT:ucrt_detection.obj
 0001:0002dea4       __security_init_cookie     000000018002eea4 f   LIBCMT:gs_support.obj
 0001:0002df50       ?__scrt_initialize_type_info@@YAXXZ 000000018002ef50 f   LIBCMT:tncleanup.obj
 0001:0002df60       ?__scrt_uninitialize_type_info@@YAXXZ 000000018002ef60 f   LIBCMT:tncleanup.obj
 0001:0002df6c       __local_stdio_scanf_options 000000018002ef6c f i LIBCMT:default_local_stdio_options.obj
 0001:0002df74       __scrt_initialize_default_local_stdio_options 000000018002ef74 f   LIBCMT:default_local_stdio_options.obj
 0001:0002df90       __scrt_get_dyn_tls_init_callback 000000018002ef90 f   LIBCMT:dyn_tls_init.obj
 0001:0002df98       _RTC_Initialize            000000018002ef98 f   LIBCMT:_initsect_.obj
 0001:0002dfe4       _RTC_Terminate             000000018002efe4 f   LIBCMT:_initsect_.obj
 0001:0002e040       memcpy                     000000018002f040 f   libvcruntime:memcpy.obj
 0001:0002e040       memmove                    000000018002f040 f   libvcruntime:memcpy.obj
 0001:0002e478       _purecall                  000000018002f478 f   libvcruntime:purevirt.obj
 0001:0002e4b4       __DestructExceptionObject  000000018002f4b4 f   libvcruntime:frame.obj
 0001:0002e53c       ??0bad_exception@std@@QEAA@AEBV01@@Z 000000018002f53c f i libvcruntime:frame.obj
 0001:0002e57c       ??0bad_exception@std@@QEAA@XZ 000000018002f57c f i libvcruntime:frame.obj
 0001:0002e59c       ??1out_of_range@std@@UEAA@XZ 000000018002f59c f i libcpmt:xthrow.obj
 0001:0002e59c       ??1length_error@std@@UEAA@XZ 000000018002f59c f i libcpmt:xthrow.obj
 0001:0002e59c       ??1bad_array_new_length@std@@UEAA@XZ 000000018002f59c f i LIBCMT:throw_bad_alloc.obj
 0001:0002e59c       ??1bad_exception@std@@UEAA@XZ 000000018002f59c f i libvcruntime:frame.obj
 0001:0002e59c       ??1bad_alloc@std@@UEAA@XZ  000000018002f59c f i libcpmt:xthrow.obj
 0001:0002ef0c       ?_CallMemberFunction0@@YAXPEAXP6AX0@Z@Z 000000018002ff0c f i libvcruntime:frame.obj
 0001:0002ef10       ?_CallMemberFunction1@@YAXPEAXP6AX0@Z0@Z 000000018002ff10 f i libvcruntime:frame.obj
 0001:0002ef1c       ?_CallMemberFunction2@@YAXPEAXP6AX0@Z0H@Z 000000018002ff1c f i libvcruntime:frame.obj
 0001:0002ef2c       __AdjustPointer            000000018002ff2c f   libvcruntime:frame.obj
 0001:0002ef50       __BuildCatchObject         000000018002ff50 f   libvcruntime:frame.obj
 0001:0002f014       __BuildCatchObjectHelper   0000000180030014 f   libvcruntime:frame.obj
 0001:0002f1f4       __CxxCallCatchBlock        00000001800301f4 f   libvcruntime:frame.obj
 0001:0002f3e0       __FrameUnwindFilter        00000001800303e0 f   libvcruntime:frame.obj
 0001:0002f42c       __FrameUnwindToState       000000018003042c f   libvcruntime:frame.obj
 0001:0002f5c0       __InternalCxxFrameHandler  00000001800305c0 f   libvcruntime:frame.obj
 0001:0002f818       __TypeMatch                0000000180030818 f   libvcruntime:frame.obj
 0001:0002f958       __std_terminate            0000000180030958 f   libvcruntime:frame.obj
 0001:0002f964       ?_ExecutionInCatch@@YAHPEAU_xDISPATCHER_CONTEXT@@PEBU_s_FuncInfo@@@Z 0000000180030964 f   libvcruntime:trnsctrl.obj
 0001:0002f9d8       ?_GetEstablisherFrame@@YAPEA_KPEA_KPEAU_xDISPATCHER_CONTEXT@@PEBU_s_FuncInfo@@0@Z 00000001800309d8 f   libvcruntime:trnsctrl.obj
 0001:0002faa4       ?_GetRangeOfTrysToCheck@@YAPEBU_s_TryBlockMapEntry@@PEA_KPEBU_s_FuncInfo@@HHPEAI2PEAU_xDISPATCHER_CONTEXT@@@Z 0000000180030aa4 f   libvcruntime:trnsctrl.obj
 0001:0002fbd0       ?__FrameUnwindToEmptyState@@YAXPEA_KPEAU_xDISPATCHER_CONTEXT@@PEBU_s_FuncInfo@@@Z 0000000180030bd0 f   libvcruntime:trnsctrl.obj
 0001:0002fc64       ?__SehTransFilter@@YAHPEAU_EXCEPTION_POINTERS@@PEAUEHExceptionRecord@@PEA_KPEAU_CONTEXT@@PEAU_xDISPATCHER_CONTEXT@@PEBU_s_FuncInfo@@PEAH@Z 0000000180030c64 f   libvcruntime:trnsctrl.obj
 0001:0002fcfc       _CallSETranslator          0000000180030cfc f   libvcruntime:trnsctrl.obj
 0001:0002fd54       _CreateFrameInfo           0000000180030d54 f   libvcruntime:trnsctrl.obj
 0001:0002fd90       _FindAndUnlinkFrame        0000000180030d90 f   libvcruntime:trnsctrl.obj
 0001:0002fde8       _GetImageBase              0000000180030de8 f   libvcruntime:trnsctrl.obj
 0001:0002fdfc       _GetThrowImageBase         0000000180030dfc f   libvcruntime:trnsctrl.obj
 0001:0002fe10       _IsExceptionObjectToBeDestroyed 0000000180030e10 f   libvcruntime:trnsctrl.obj
 0001:0002fe40       _SetImageBase              0000000180030e40 f   libvcruntime:trnsctrl.obj
 0001:0002fe58       _SetThrowImageBase         0000000180030e58 f   libvcruntime:trnsctrl.obj
 0001:0002fe70       _UnwindNestedFrames        0000000180030e70 f   libvcruntime:trnsctrl.obj
 0001:0002ff94       __CxxFrameHandler3         0000000180030f94 f   libvcruntime:trnsctrl.obj
 0001:00030014       __std_exception_copy       0000000180031014 f   libvcruntime:std_exception.obj
 0001:000300a4       __std_exception_destroy    00000001800310a4 f   libvcruntime:std_exception.obj
 0001:000300cc       _CxxThrowException         00000001800310cc f   libvcruntime:throw.obj
 0001:000301c0       memset                     00000001800311c0 f   libvcruntime:memset.obj
 0001:00030370       memcmp                     0000000180031370 f   libvcruntime:memcmp.obj
 0001:00030600       __vcrt_FlsAlloc            0000000180031600 f   libvcruntime:winapi_downlevel.obj
 0001:00030654       __vcrt_FlsFree             0000000180031654 f   libvcruntime:winapi_downlevel.obj
 0001:000306a8       __vcrt_FlsGetValue         00000001800316a8 f   libvcruntime:winapi_downlevel.obj
 0001:000306fc       __vcrt_FlsSetValue         00000001800316fc f   libvcruntime:winapi_downlevel.obj
 0001:00030764       __vcrt_InitializeCriticalSectionEx 0000000180031764 f   libvcruntime:winapi_downlevel.obj
 0001:000307dc       __vcrt_initialize_winapi_thunks 00000001800317dc f   libvcruntime:winapi_downlevel.obj
 0001:00030828       __vcrt_uninitialize_winapi_thunks 0000000180031828 f   libvcruntime:winapi_downlevel.obj
 0001:00030868       __vcrt_initialize          0000000180031868 f   libvcruntime:initialization.obj
 0001:0003089c       __vcrt_thread_attach       000000018003189c f   libvcruntime:initialization.obj
 0001:000308b0       __vcrt_thread_detach       00000001800318b0 f   libvcruntime:initialization.obj
 0001:000308c4       __vcrt_uninitialize        00000001800318c4 f   libvcruntime:initialization.obj
 0001:000308e4       __vcrt_uninitialize_critical 00000001800318e4 f   libvcruntime:initialization.obj
 0001:000308f4       __C_specific_handler       00000001800318f4 f   libvcruntime:_chandler_.obj
 0001:00030af0       __std_type_info_compare    0000000180031af0 f   libvcruntime:std_type_info.obj
 0001:00030b18       __std_type_info_destroy_list 0000000180031b18 f   libvcruntime:std_type_info.obj
 0001:00030b44       __vcrt_initialize_pure_virtual_call_handler 0000000180031b44 f   libvcruntime:purevirt_data.obj
 0001:00030b68       __vcrt_freefls             0000000180031b68 f   libvcruntime:per_thread_data.obj
 0001:00030b88       __vcrt_freeptd             0000000180031b88 f   libvcruntime:per_thread_data.obj
 0001:00030bd8       __vcrt_getptd              0000000180031bd8 f   libvcruntime:per_thread_data.obj
 0001:00030bf4       __vcrt_getptd_noexit       0000000180031bf4 f   libvcruntime:per_thread_data.obj
 0001:00030cac       __vcrt_initialize_ptd      0000000180031cac f   libvcruntime:per_thread_data.obj
 0001:00030cec       __vcrt_uninitialize_ptd    0000000180031cec f   libvcruntime:per_thread_data.obj
 0001:00030d10       ?__GetCurrentState@@YAHPEA_KPEAU_xDISPATCHER_CONTEXT@@PEBU_s_FuncInfo@@@Z 0000000180031d10 f   libvcruntime:ehstate.obj
 0001:00030d38       ?__GetUnwindTryBlock@@YAHPEA_KPEAU_xDISPATCHER_CONTEXT@@PEBU_s_FuncInfo@@@Z 0000000180031d38 f   libvcruntime:ehstate.obj
 0001:00030d64       ?__SetState@@YAXPEA_KPEAU_xDISPATCHER_CONTEXT@@PEBU_s_FuncInfo@@H@Z 0000000180031d64 f   libvcruntime:ehstate.obj
 0001:00030d70       ?__SetUnwindTryBlock@@YAXPEA_KPEAU_xDISPATCHER_CONTEXT@@PEBU_s_FuncInfo@@H@Z 0000000180031d70 f   libvcruntime:ehstate.obj
 0001:00030dac       ?__StateFromControlPc@@YAHPEBU_s_FuncInfo@@PEAU_xDISPATCHER_CONTEXT@@@Z 0000000180031dac f   libvcruntime:ehstate.obj
 0001:00030db4       ?__StateFromIp@@YAHPEBU_s_FuncInfo@@PEAU_xDISPATCHER_CONTEXT@@_J@Z 0000000180031db4 f   libvcruntime:ehstate.obj
 0001:00030e30       _CallSettingFrame          0000000180031e30 f   libvcruntime:handlers.obj
 0001:00030e80       _local_unwind              0000000180031e80 f   libvcruntime:_jmpuwind_.obj
 0001:00030eb0       _NLG_Notify                0000000180031eb0 f   libvcruntime:_jmpuwind_.obj
 0001:00030ed0       __NLG_Dispatch2            0000000180031ed0 f   libvcruntime:_jmpuwind_.obj
 0001:00030ee0       __NLG_Return2              0000000180031ee0 f   libvcruntime:_jmpuwind_.obj
 0001:00030ee4       __vcrt_initialize_locks    0000000180031ee4 f   libvcruntime:locks.obj
 0001:00030f2c       __vcrt_uninitialize_locks  0000000180031f2c f   libvcruntime:locks.obj
 0001:00030f64       abort                      0000000180031f64 f   libucrt:abort.obj
 0001:00030fbc       calloc                     0000000180031fbc f   libucrt:calloc.obj
 0001:00030fc4       __acrt_call_reportfault    0000000180031fc4 f   libucrt:invalid_parameter.obj
 0001:00031120       __acrt_initialize_invalid_parameter_handler 0000000180032120 f   libucrt:invalid_parameter.obj
 0001:00031128       _invalid_parameter         0000000180032128 f   libucrt:invalid_parameter.obj
 0001:000311d0       _invalid_parameter_noinfo  00000001800321d0 f   libucrt:invalid_parameter.obj
 0001:000311f0       _invalid_parameter_noinfo_noreturn 00000001800321f0 f   libucrt:invalid_parameter.obj
 0001:00031220       _invoke_watson             0000000180032220 f   libucrt:invalid_parameter.obj
 0001:00031268       strcspn                    0000000180032268 f   libucrt:strcspn.obj
 0001:00031308       ??$?RV<lambda_7b91131dde12e1c3dfc74ff76b3f2eac>@@AEAV<lambda_dd75445284c072d0bd3768540cc698fa>@@V<lambda_16bc4ecb55b4718497c16bceaea2ceaf>@@@?$__crt_seh_guarded_call@H@@QEAAH$$QEAV<lambda_7b91131dde12e1c3dfc74ff76b3f2eac>@@AEAV<lambda_dd75445284c072d0bd3768540cc698fa>@@$$QEAV<lambda_16bc4ecb55b4718497c16bceaea2ceaf>@@@Z 0000000180032308 f i libucrt:output.obj
 0001:000314f0       ??$ensure_buffer_is_big_enough@D@formatting_buffer@__crt_stdio_output@@QEAA_N_K@Z 00000001800324f0 f i libucrt:output.obj
 0001:0003159c       ??$is_wide_character_specifier@D@__crt_stdio_output@@YA_N_KDW4length_modifier@0@@Z 000000018003259c f i libucrt:output.obj
 0001:000315cc       ??$is_wide_character_specifier@_W@__crt_stdio_output@@YA_N_K_WW4length_modifier@0@@Z 00000001800325cc f i libucrt:output.obj
 0001:00031610       ??$type_case_integer_parse_into_buffer@I@?$output_processor@_WV?$stream_output_adapter@_W@__crt_stdio_output@@V?$standard_base@_WV?$stream_output_adapter@_W@__crt_stdio_output@@@2@@__crt_stdio_output@@AEAAXII_N@Z 0000000180032610 f i libucrt:output.obj
 0001:00031610       ??$type_case_integer_parse_into_buffer@I@?$output_processor@DV?$string_output_adapter@D@__crt_stdio_output@@V?$format_validation_base@DV?$string_output_adapter@D@__crt_stdio_output@@@2@@__crt_stdio_output@@AEAAXII_N@Z 0000000180032610 f i libucrt:output.obj
 0001:00031610       ??$type_case_integer_parse_into_buffer@I@?$output_processor@_WV?$string_output_adapter@_W@__crt_stdio_output@@V?$standard_base@_WV?$string_output_adapter@_W@__crt_stdio_output@@@2@@__crt_stdio_output@@AEAAXII_N@Z 0000000180032610 f i libucrt:output.obj
 0001:00031610       ??$type_case_integer_parse_into_buffer@I@?$output_processor@DV?$string_output_adapter@D@__crt_stdio_output@@V?$standard_base@DV?$string_output_adapter@D@__crt_stdio_output@@@2@@__crt_stdio_output@@AEAAXII_N@Z 0000000180032610 f i libucrt:output.obj
 0001:000316ac       ??$type_case_integer_parse_into_buffer@_K@?$output_processor@_WV?$stream_output_adapter@_W@__crt_stdio_output@@V?$standard_base@_WV?$stream_output_adapter@_W@__crt_stdio_output@@@2@@__crt_stdio_output@@AEAAX_KI_N@Z 00000001800326ac f i libucrt:output.obj
 0001:000316ac       ??$type_case_integer_parse_into_buffer@_K@?$output_processor@DV?$string_output_adapter@D@__crt_stdio_output@@V?$format_validation_base@DV?$string_output_adapter@D@__crt_stdio_output@@@2@@__crt_stdio_output@@AEAAX_KI_N@Z 00000001800326ac f i libucrt:output.obj
 0001:000316ac       ??$type_case_integer_parse_into_buffer@_K@?$output_processor@_WV?$string_output_adapter@_W@__crt_stdio_output@@V?$standard_base@_WV?$string_output_adapter@_W@__crt_stdio_output@@@2@@__crt_stdio_output@@AEAAX_KI_N@Z 00000001800326ac f i libucrt:output.obj
 0001:000316ac       ??$type_case_integer_parse_into_buffer@_K@?$output_processor@DV?$string_output_adapter@D@__crt_stdio_output@@V?$standard_base@DV?$string_output_adapter@D@__crt_stdio_output@@@2@@__crt_stdio_output@@AEAAX_KI_N@Z 00000001800326ac f i libucrt:output.obj
 0001:00031748       ??$write_multiple_characters@V?$stream_output_adapter@_W@__crt_stdio_output@@D@__crt_stdio_output@@YAXAEBV?$stream_output_adapter@_W@0@DHQEAH@Z 0000000180032748 f i libucrt:output.obj
 0001:000317d8       ??$write_multiple_characters@V?$string_output_adapter@D@__crt_stdio_output@@D@__crt_stdio_output@@YAXAEBV?$string_output_adapter@D@0@DHQEAH@Z 00000001800327d8 f i libucrt:output.obj
 0001:00031834       ??$write_multiple_characters@V?$string_output_adapter@_W@__crt_stdio_output@@D@__crt_stdio_output@@YAXAEBV?$string_output_adapter@_W@0@DHQEAH@Z 0000000180032834 f i libucrt:output.obj
 0001:000318a4       ??0?$output_processor@DV?$string_output_adapter@D@__crt_stdio_output@@V?$format_validation_base@DV?$string_output_adapter@D@__crt_stdio_output@@@2@@__crt_stdio_output@@QEAA@AEBV?$string_output_adapter@D@1@_KQEBDQEAU__crt_locale_pointers@@QEAD@Z 00000001800328a4 f i libucrt:output.obj
 0001:000318a4       ??0?$output_processor@DV?$string_output_adapter@D@__crt_stdio_output@@V?$standard_base@DV?$string_output_adapter@D@__crt_stdio_output@@@2@@__crt_stdio_output@@QEAA@AEBV?$string_output_adapter@D@1@_KQEBDQEAU__crt_locale_pointers@@QEAD@Z 00000001800328a4 f i libucrt:output.obj
 0001:00031920       ??0?$output_processor@_WV?$string_output_adapter@_W@__crt_stdio_output@@V?$standard_base@_WV?$string_output_adapter@_W@__crt_stdio_output@@@2@@__crt_stdio_output@@QEAA@AEBV?$string_output_adapter@_W@1@_KQEB_WQEAU__crt_locale_pointers@@QEAD@Z 0000000180032920 f i libucrt:output.obj
 0001:00031920       ??0?$output_processor@_WV?$stream_output_adapter@_W@__crt_stdio_output@@V?$standard_base@_WV?$stream_output_adapter@_W@__crt_stdio_output@@@2@@__crt_stdio_output@@QEAA@AEBV?$stream_output_adapter@_W@1@_KQEB_WQEAU__crt_locale_pointers@@QEAD@Z 0000000180032920 f i libucrt:output.obj
 0001:000319a0       ??0_LocaleUpdate@@QEAA@QEAU__crt_locale_pointers@@@Z 00000001800329a0 f i libucrt:output.obj
 0001:00031b20       ?force_decimal_point@__crt_stdio_output@@YAXPEADQEAU__crt_locale_pointers@@@Z 0000000180032b20 f i libucrt:output.obj
 0001:00031b90       ?parse_int_from_format_string@?$output_processor@DV?$string_output_adapter@D@__crt_stdio_output@@V?$format_validation_base@DV?$string_output_adapter@D@__crt_stdio_output@@@2@@__crt_stdio_output@@AEAA_NQEAH@Z 0000000180032b90 f i libucrt:output.obj
 0001:00031b90       ?parse_int_from_format_string@?$output_processor@DV?$string_output_adapter@D@__crt_stdio_output@@V?$standard_base@DV?$string_output_adapter@D@__crt_stdio_output@@@2@@__crt_stdio_output@@AEAA_NQEAH@Z 0000000180032b90 f i libucrt:output.obj
 0001:00031c14       ?parse_int_from_format_string@?$output_processor@_WV?$string_output_adapter@_W@__crt_stdio_output@@V?$standard_base@_WV?$string_output_adapter@_W@__crt_stdio_output@@@2@@__crt_stdio_output@@AEAA_NQEAH@Z 0000000180032c14 f i libucrt:output.obj
 0001:00031c14       ?parse_int_from_format_string@?$output_processor@_WV?$stream_output_adapter@_W@__crt_stdio_output@@V?$standard_base@_WV?$stream_output_adapter@_W@__crt_stdio_output@@@2@@__crt_stdio_output@@AEAA_NQEAH@Z 0000000180032c14 f i libucrt:output.obj
 0001:00031c94       ?process@?$output_processor@DV?$string_output_adapter@D@__crt_stdio_output@@V?$format_validation_base@DV?$string_output_adapter@D@__crt_stdio_output@@@2@@__crt_stdio_output@@QEAAHXZ 0000000180032c94 f i libucrt:output.obj
 0001:00031ea8       ?process@?$output_processor@DV?$string_output_adapter@D@__crt_stdio_output@@V?$standard_base@DV?$string_output_adapter@D@__crt_stdio_output@@@2@@__crt_stdio_output@@QEAAHXZ 0000000180032ea8 f i libucrt:output.obj
 0001:000320ac       ?process@?$output_processor@_WV?$stream_output_adapter@_W@__crt_stdio_output@@V?$standard_base@_WV?$stream_output_adapter@_W@__crt_stdio_output@@@2@@__crt_stdio_output@@QEAAHXZ 00000001800330ac f i libucrt:output.obj
 0001:00032324       ?process@?$output_processor@_WV?$string_output_adapter@_W@__crt_stdio_output@@V?$standard_base@_WV?$string_output_adapter@_W@__crt_stdio_output@@@2@@__crt_stdio_output@@QEAAHXZ 0000000180033324 f i libucrt:output.obj
 0001:000325a0       ?state_case_normal@?$output_processor@DV?$string_output_adapter@D@__crt_stdio_output@@V?$standard_base@DV?$string_output_adapter@D@__crt_stdio_output@@@2@@__crt_stdio_output@@AEAA_NXZ 00000001800335a0 f i libucrt:output.obj
 0001:000325a0       ?state_case_normal@?$output_processor@DV?$string_output_adapter@D@__crt_stdio_output@@V?$format_validation_base@DV?$string_output_adapter@D@__crt_stdio_output@@@2@@__crt_stdio_output@@AEAA_NXZ 00000001800335a0 f i libucrt:output.obj
 0001:00032614       ?state_case_normal_tchar@?$output_processor@DV?$string_output_adapter@D@__crt_stdio_output@@V?$standard_base@DV?$string_output_adapter@D@__crt_stdio_output@@@2@@__crt_stdio_output@@AEAA_ND@Z 0000000180033614 f i libucrt:output.obj
 0001:00032614       ?state_case_normal_tchar@?$output_processor@DV?$string_output_adapter@D@__crt_stdio_output@@V?$format_validation_base@DV?$string_output_adapter@D@__crt_stdio_output@@@2@@__crt_stdio_output@@AEAA_ND@Z 0000000180033614 f i libucrt:output.obj
 0001:000326ac       ?state_case_size@?$output_processor@DV?$string_output_adapter@D@__crt_stdio_output@@V?$format_validation_base@DV?$string_output_adapter@D@__crt_stdio_output@@@2@@__crt_stdio_output@@AEAA_NXZ 00000001800336ac f i libucrt:output.obj
 0001:000326ac       ?state_case_size@?$output_processor@DV?$string_output_adapter@D@__crt_stdio_output@@V?$standard_base@DV?$string_output_adapter@D@__crt_stdio_output@@@2@@__crt_stdio_output@@AEAA_NXZ 00000001800336ac f i libucrt:output.obj
 0001:00032828       ?state_case_size@?$output_processor@_WV?$stream_output_adapter@_W@__crt_stdio_output@@V?$standard_base@_WV?$stream_output_adapter@_W@__crt_stdio_output@@@2@@__crt_stdio_output@@AEAA_NXZ 0000000180033828 f i libucrt:output.obj
 0001:000329cc       ?state_case_size@?$output_processor@_WV?$string_output_adapter@_W@__crt_stdio_output@@V?$standard_base@_WV?$string_output_adapter@_W@__crt_stdio_output@@@2@@__crt_stdio_output@@AEAA_NXZ 00000001800339cc f i libucrt:output.obj
 0001:00032b70       ?state_case_type@?$output_processor@DV?$string_output_adapter@D@__crt_stdio_output@@V?$format_validation_base@DV?$string_output_adapter@D@__crt_stdio_output@@@2@@__crt_stdio_output@@AEAA_NXZ 0000000180033b70 f i libucrt:output.obj
 0001:00032b70       ?state_case_type@?$output_processor@DV?$string_output_adapter@D@__crt_stdio_output@@V?$standard_base@DV?$string_output_adapter@D@__crt_stdio_output@@@2@@__crt_stdio_output@@AEAA_NXZ 0000000180033b70 f i libucrt:output.obj
 0001:00032dec       ?state_case_type@?$output_processor@_WV?$stream_output_adapter@_W@__crt_stdio_output@@V?$standard_base@_WV?$stream_output_adapter@_W@__crt_stdio_output@@@2@@__crt_stdio_output@@AEAA_NXZ 0000000180033dec f i libucrt:output.obj
 0001:000330b8       ?state_case_type@?$output_processor@_WV?$string_output_adapter@_W@__crt_stdio_output@@V?$standard_base@_WV?$string_output_adapter@_W@__crt_stdio_output@@@2@@__crt_stdio_output@@AEAA_NXZ 00000001800340b8 f i libucrt:output.obj
 0001:00033384       ?type_case_Z@?$output_processor@DV?$string_output_adapter@D@__crt_stdio_output@@V?$standard_base@DV?$string_output_adapter@D@__crt_stdio_output@@@2@@__crt_stdio_output@@AEAA_NXZ 0000000180034384 f i libucrt:output.obj
 0001:00033384       ?type_case_Z@?$output_processor@DV?$string_output_adapter@D@__crt_stdio_output@@V?$format_validation_base@DV?$string_output_adapter@D@__crt_stdio_output@@@2@@__crt_stdio_output@@AEAA_NXZ 0000000180034384 f i libucrt:output.obj
 0001:00033404       ?type_case_Z@?$output_processor@_WV?$string_output_adapter@_W@__crt_stdio_output@@V?$standard_base@_WV?$string_output_adapter@_W@__crt_stdio_output@@@2@@__crt_stdio_output@@AEAA_NXZ 0000000180034404 f i libucrt:output.obj
 0001:00033404       ?type_case_Z@?$output_processor@_WV?$stream_output_adapter@_W@__crt_stdio_output@@V?$standard_base@_WV?$stream_output_adapter@_W@__crt_stdio_output@@@2@@__crt_stdio_output@@AEAA_NXZ 0000000180034404 f i libucrt:output.obj
 0001:00033484       ?type_case_a@?$output_processor@DV?$string_output_adapter@D@__crt_stdio_output@@V?$standard_base@DV?$string_output_adapter@D@__crt_stdio_output@@@2@@__crt_stdio_output@@AEAA_NXZ 0000000180034484 f i libucrt:output.obj
 0001:00033484       ?type_case_a@?$output_processor@DV?$string_output_adapter@D@__crt_stdio_output@@V?$format_validation_base@DV?$string_output_adapter@D@__crt_stdio_output@@@2@@__crt_stdio_output@@AEAA_NXZ 0000000180034484 f i libucrt:output.obj
 0001:000336a0       ?type_case_a@?$output_processor@_WV?$string_output_adapter@_W@__crt_stdio_output@@V?$standard_base@_WV?$string_output_adapter@_W@__crt_stdio_output@@@2@@__crt_stdio_output@@AEAA_NXZ 00000001800346a0 f i libucrt:output.obj
 0001:000336a0       ?type_case_a@?$output_processor@_WV?$stream_output_adapter@_W@__crt_stdio_output@@V?$standard_base@_WV?$stream_output_adapter@_W@__crt_stdio_output@@@2@@__crt_stdio_output@@AEAA_NXZ 00000001800346a0 f i libucrt:output.obj
 0001:000338e4       ?type_case_c_tchar@?$output_processor@DV?$string_output_adapter@D@__crt_stdio_output@@V?$format_validation_base@DV?$string_output_adapter@D@__crt_stdio_output@@@2@@__crt_stdio_output@@AEAA_ND@Z 00000001800348e4 f i libucrt:output.obj
 0001:000338e4       ?type_case_c_tchar@?$output_processor@DV?$string_output_adapter@D@__crt_stdio_output@@V?$standard_base@DV?$string_output_adapter@D@__crt_stdio_output@@@2@@__crt_stdio_output@@AEAA_ND@Z 00000001800348e4 f i libucrt:output.obj
 0001:00033998       ?type_case_c_tchar@?$output_processor@_WV?$string_output_adapter@_W@__crt_stdio_output@@V?$standard_base@_WV?$string_output_adapter@_W@__crt_stdio_output@@@2@@__crt_stdio_output@@AEAA_N_W@Z 0000000180034998 f i libucrt:output.obj
 0001:00033998       ?type_case_c_tchar@?$output_processor@_WV?$stream_output_adapter@_W@__crt_stdio_output@@V?$standard_base@_WV?$stream_output_adapter@_W@__crt_stdio_output@@@2@@__crt_stdio_output@@AEAA_N_W@Z 0000000180034998 f i libucrt:output.obj
 0001:00033a40       ?type_case_integer@?$output_processor@DV?$string_output_adapter@D@__crt_stdio_output@@V?$standard_base@DV?$string_output_adapter@D@__crt_stdio_output@@@2@@__crt_stdio_output@@AEAA_NI_N@Z 0000000180034a40 f i libucrt:output.obj
 0001:00033a40       ?type_case_integer@?$output_processor@_WV?$string_output_adapter@_W@__crt_stdio_output@@V?$standard_base@_WV?$string_output_adapter@_W@__crt_stdio_output@@@2@@__crt_stdio_output@@AEAA_NI_N@Z 0000000180034a40 f i libucrt:output.obj
 0001:00033a40       ?type_case_integer@?$output_processor@_WV?$stream_output_adapter@_W@__crt_stdio_output@@V?$standard_base@_WV?$stream_output_adapter@_W@__crt_stdio_output@@@2@@__crt_stdio_output@@AEAA_NI_N@Z 0000000180034a40 f i libucrt:output.obj
 0001:00033a40       ?type_case_integer@?$output_processor@DV?$string_output_adapter@D@__crt_stdio_output@@V?$format_validation_base@DV?$string_output_adapter@D@__crt_stdio_output@@@2@@__crt_stdio_output@@AEAA_NI_N@Z 0000000180034a40 f i libucrt:output.obj
 0001:00033be0       ?type_case_n@?$output_processor@DV?$string_output_adapter@D@__crt_stdio_output@@V?$format_validation_base@DV?$string_output_adapter@D@__crt_stdio_output@@@2@@__crt_stdio_output@@AEAA_NXZ 0000000180034be0 f i libucrt:output.obj
 0001:00033be0       ?type_case_n@?$output_processor@DV?$string_output_adapter@D@__crt_stdio_output@@V?$standard_base@DV?$string_output_adapter@D@__crt_stdio_output@@@2@@__crt_stdio_output@@AEAA_NXZ 0000000180034be0 f i libucrt:output.obj
 0001:00033be0       ?type_case_n@?$output_processor@_WV?$string_output_adapter@_W@__crt_stdio_output@@V?$standard_base@_WV?$string_output_adapter@_W@__crt_stdio_output@@@2@@__crt_stdio_output@@AEAA_NXZ 0000000180034be0 f i libucrt:output.obj
 0001:00033be0       ?type_case_n@?$output_processor@_WV?$stream_output_adapter@_W@__crt_stdio_output@@V?$standard_base@_WV?$stream_output_adapter@_W@__crt_stdio_output@@@2@@__crt_stdio_output@@AEAA_NXZ 0000000180034be0 f i libucrt:output.obj
 0001:00033cbc       ?type_case_s@?$output_processor@DV?$string_output_adapter@D@__crt_stdio_output@@V?$standard_base@DV?$string_output_adapter@D@__crt_stdio_output@@@2@@__crt_stdio_output@@AEAA_NXZ 0000000180034cbc f i libucrt:output.obj
 0001:00033cbc       ?type_case_s@?$output_processor@DV?$string_output_adapter@D@__crt_stdio_output@@V?$format_validation_base@DV?$string_output_adapter@D@__crt_stdio_output@@@2@@__crt_stdio_output@@AEAA_NXZ 0000000180034cbc f i libucrt:output.obj
 0001:00033d4c       ?type_case_s@?$output_processor@_WV?$stream_output_adapter@_W@__crt_stdio_output@@V?$standard_base@_WV?$stream_output_adapter@_W@__crt_stdio_output@@@2@@__crt_stdio_output@@AEAA_NXZ 0000000180034d4c f i libucrt:output.obj
 0001:00033d4c       ?type_case_s@?$output_processor@_WV?$string_output_adapter@_W@__crt_stdio_output@@V?$standard_base@_WV?$string_output_adapter@_W@__crt_stdio_output@@@2@@__crt_stdio_output@@AEAA_NXZ 0000000180034d4c f i libucrt:output.obj
 0001:00033e14       ?write_stored_string_tchar@?$output_processor@DV?$string_output_adapter@D@__crt_stdio_output@@V?$format_validation_base@DV?$string_output_adapter@D@__crt_stdio_output@@@2@@__crt_stdio_output@@AEAA_ND@Z 0000000180034e14 f i libucrt:output.obj
 0001:00033e14       ?write_stored_string_tchar@?$output_processor@DV?$string_output_adapter@D@__crt_stdio_output@@V?$standard_base@DV?$string_output_adapter@D@__crt_stdio_output@@@2@@__crt_stdio_output@@AEAA_ND@Z 0000000180034e14 f i libucrt:output.obj
 0001:00033eec       ?write_stored_string_tchar@?$output_processor@_WV?$stream_output_adapter@_W@__crt_stdio_output@@V?$standard_base@_WV?$stream_output_adapter@_W@__crt_stdio_output@@@2@@__crt_stdio_output@@AEAA_N_W@Z 0000000180034eec f i libucrt:output.obj
 0001:00033fd8       ?write_stored_string_tchar@?$output_processor@_WV?$string_output_adapter@_W@__crt_stdio_output@@V?$standard_base@_WV?$string_output_adapter@_W@__crt_stdio_output@@@2@@__crt_stdio_output@@AEAA_N_W@Z 0000000180034fd8 f i libucrt:output.obj
 0001:000340c8       ?write_string@?$stream_output_adapter@_W@__crt_stdio_output@@QEBAXQEB_WHQEAH1@Z 00000001800350c8 f i libucrt:output.obj
 0001:000341d4       ?write_string@?$string_output_adapter@D@__crt_stdio_output@@QEBAXQEBDHQEAH1@Z 00000001800351d4 f i libucrt:output.obj
 0001:00034290       ?write_string@?$string_output_adapter@_W@__crt_stdio_output@@QEBAXQEB_WHQEAH1@Z 0000000180035290 f i libucrt:output.obj
 0001:00034350       __stdio_common_vfwprintf   0000000180035350 f   libucrt:output.obj
 0001:000343dc       __stdio_common_vsprintf    00000001800353dc f   libucrt:output.obj
 0001:00034610       __stdio_common_vsprintf_s  0000000180035610 f   libucrt:output.obj
 0001:00034674       __stdio_common_vswprintf   0000000180035674 f   libucrt:output.obj
 0001:000348ac       localeconv                 00000001800358ac f   libucrt:localeconv.obj
 0001:000348e0       free                       00000001800358e0 f   libucrt:free.obj
 0001:000348e8       frexp                      00000001800358e8 f   libucrt:frexp.obj
 0001:000353c8       ??$ftprintf@PEAU_iobuf@@PEB_WAEBQEB_WAEBQEB_WAEBI@?$__crt_char_traits@_W@@SAH$$QEAPEAU_iobuf@@$$QEAPEB_WAEBQEB_W2AEBI@Z 00000001800363c8 f i libucrt:assert.obj
 0001:000353f0       _wassert                   00000001800363f0 f   libucrt:assert.obj
 0001:00035474       fwprintf                   0000000180036474 f i libucrt:assert.obj
 0001:000354b8       swprintf                   00000001800364b8 f i libucrt:assert.obj
 0001:0003550c       malloc                     000000018003650c f   libucrt:malloc.obj
 0001:00035514       realloc                    0000000180036514 f   libucrt:realloc.obj
 0001:000355b4       _time64                    00000001800365b4 f   libucrt:time.obj
 0001:000355f4       __ascii_stricmp            00000001800365f4 f   libucrt:stricmp.obj
 0001:00035630       _stricmp                   0000000180036630 f   libucrt:stricmp.obj
 0001:00035678       _stricmp_l                 0000000180036678 f   libucrt:stricmp.obj
 0001:0003572c       __acrt_initialize_locks    000000018003672c f   libucrt:locks.obj
 0001:00035774       __acrt_lock                0000000180036774 f   libucrt:locks.obj
 0001:00035790       __acrt_uninitialize_locks  0000000180036790 f   libucrt:locks.obj
 0001:000357c8       __acrt_unlock              00000001800367c8 f   libucrt:locks.obj
 0001:000357e4       _lock_locales              00000001800367e4 f   libucrt:locks.obj
 0001:000357f4       _unlock_locales            00000001800367f4 f   libucrt:locks.obj
 0001:000358ec       setlocale                  00000001800368ec f   libucrt:setlocale.obj
 0001:00035ab8       _calloc_base               0000000180036ab8 f   libucrt:calloc_base.obj
 0001:00035b30       __pctype_func              0000000180036b30 f   libucrt:ctype.obj
 0001:00035b60       isdigit                    0000000180036b60 f i libucrt:_ctype.obj
 0001:00035bd4       islower                    0000000180036bd4 f i libucrt:_ctype.obj
 0001:00035c48       isupper                    0000000180036c48 f i libucrt:_ctype.obj
 0001:00035cbc       _wcsdup                    0000000180036cbc f   libucrt:wcsdup.obj
 0001:00035d40       ___lc_codepage_func        0000000180036d40 f   libucrt:initctype.obj
 0001:00035d70       ___lc_locale_name_func     0000000180036d70 f   libucrt:initctype.obj
 0001:00035da4       ___mb_cur_max_func         0000000180036da4 f   libucrt:initctype.obj
 0001:00035dd4       __acrt_locale_initialize_ctype 0000000180036dd4 f   libucrt:initctype.obj
 0001:000363a8       __acrt_errno_from_os_error 00000001800373a8 f   libucrt:errno.obj
 0001:000363f0       __acrt_errno_map_os_error  00000001800373f0 f   libucrt:errno.obj
 0001:00036440       __doserrno                 0000000180037440 f   libucrt:errno.obj
 0001:00036460       _errno                     0000000180037460 f   libucrt:errno.obj
 0001:000364f8       _ismbblead                 00000001800374f8 f   libucrt:ismbbyte.obj
 0001:0003650c       _malloc_base               000000018003750c f   libucrt:malloc_base.obj
 0001:0003656c       _realloc_base              000000018003756c f   libucrt:realloc_base.obj
 0001:000365f0       ??$make_c_string_character_source@DPEAPEAD@__crt_strtox@@YA?AV?$c_string_character_source@D@0@QEBDQEAPEAD@Z 00000001800375f0 f i libucrt:strtod.obj
 0001:000365f0       ??$make_c_string_character_source@_WPEAPEA_W@__crt_strtox@@YA?AV?$c_string_character_source@_W@0@QEB_WQEAPEA_W@Z 00000001800375f0 f i libucrt:strtod.obj
 0001:000365f0       ??$make_c_string_character_source@_W$$T@__crt_strtox@@YA?AV?$c_string_character_source@_W@0@QEB_W$$T@Z 00000001800375f0 f i libucrt:atox.obj
 0001:00036610       ?divide@__crt_strtox@@YA_KAEAUbig_integer@1@AEBU21@@Z 0000000180037610 f i libucrt:strtod.obj
 0001:00036b70       pow                        0000000180037b70 f   libucrt:pow.obj
 0001:00038210       powf                       0000000180039210 f   libucrt:powf.obj
 0001:000390d8       __strncnt                  000000018003a0d8 f   libucrt:strncnt.obj
 0001:000390f0       _free_base                 000000018003a0f0 f   libucrt:free_base.obj
 0001:00039180       _tolower_l                 000000018003a180 f   libucrt:tolower_toupper.obj
 0001:000392c0       tolower                    000000018003a2c0 f   libucrt:tolower_toupper.obj
 0001:000392ec       wcscpy_s                   000000018003a2ec f   libucrt:wcscpy_s.obj
 0001:00039354       strnlen                    000000018003a354 f   libucrt:strnlen.obj
 0001:000394b0       wcsnlen                    000000018003a4b0 f   libucrt:strnlen.obj
 0001:000396a0       __acrt_initialize_new_handler 000000018003a6a0 f   libucrt:new_handler.obj
 0001:000396a8       _callnewh                  000000018003a6a8 f   libucrt:new_handler.obj
 0001:000396e8       _query_new_handler         000000018003a6e8 f   libucrt:new_handler.obj
 0001:0003971c       _seh_filter_dll            000000018003a71c f   libucrt:exception_filter.obj
 0001:00039730       _seh_filter_exe            000000018003a730 f   libucrt:exception_filter.obj
 0001:00039af0       __acrt_initialize_thread_local_exit_callback 000000018003aaf0 f   libucrt:exit.obj
 0001:00039af8       _cexit                     000000018003aaf8 f   libucrt:exit.obj
 0001:00039b08       _exit                      000000018003ab08 f   libucrt:exit.obj
 0001:00039b14       _is_c_termination_complete 000000018003ab14 f   libucrt:exit.obj
 0001:00039cd8       __acrt_allocate_buffer_for_argv 000000018003acd8 f   libucrt:argv_parsing.obj
 0001:00039d3c       _configure_narrow_argv     000000018003ad3c f   libucrt:argv_parsing.obj
 0001:0003a098       __dcrt_uninitialize_environments_nolock 000000018003b098 f   libucrt:environment_initialization.obj
 0001:0003a0d0       _initialize_narrow_environment 000000018003b0d0 f   libucrt:environment_initialization.obj
 0001:0003a0d8       ??$?RV<lambda_b8c45f8f788dd370798f47cfe8ac3a86>@@AEAV<lambda_4e60a939b0d047cfe11ddc22648dfba9>@@V<lambda_332c3edc96d0294ec56c57d38c1cdfd5>@@@?$__crt_seh_guarded_call@H@@QEAAH$$QEAV<lambda_b8c45f8f788dd370798f47cfe8ac3a86>@@AEAV<lambda_4e60a939b0d047cfe11ddc22648dfba9>@@$$QEAV<lambda_332c3edc96d0294ec56c57d38c1cdfd5>@@@Z 000000018003b0d8 f i libucrt:onexit.obj
 0001:0003a114       ??$?RV<lambda_e24bbb7b643b32fcea6fa61b31d4c984>@@AEAV<lambda_275893d493268fdec8709772e3fcec0e>@@V<lambda_9d71df4d7cf3f480f8d633942495c3b0>@@@?$__crt_seh_guarded_call@H@@QEAAH$$QEAV<lambda_e24bbb7b643b32fcea6fa61b31d4c984>@@AEAV<lambda_275893d493268fdec8709772e3fcec0e>@@$$QEAV<lambda_9d71df4d7cf3f480f8d633942495c3b0>@@@Z 000000018003b114 f i libucrt:onexit.obj
 0001:0003a490       _crt_atexit                000000018003b490 f   libucrt:onexit.obj
 0001:0003a4a0       _execute_onexit_table      000000018003b4a0 f   libucrt:onexit.obj
 0001:0003a4dc       _initialize_onexit_table   000000018003b4dc f   libucrt:onexit.obj
 0001:0003a51c       _register_onexit_function  000000018003b51c f   libucrt:onexit.obj
 0001:0003a698       __acrt_uninitialize_command_line 000000018003b698 f   libucrt:argv_data.obj
 0001:0003a69c       __acrt_initialize          000000018003b69c f   libucrt:initialization.obj
 0001:0003a6b0       __acrt_thread_attach       000000018003b6b0 f   libucrt:initialization.obj
 0001:0003a6c4       __acrt_thread_detach       000000018003b6c4 f   libucrt:initialization.obj
 0001:0003a6d4       __acrt_uninitialize        000000018003b6d4 f   libucrt:initialization.obj
 0001:0003a6e8       __acrt_uninitialize_critical 000000018003b6e8 f   libucrt:initialization.obj
 0001:0003a6f8       terminate                  000000018003b6f8 f   libucrt:terminate.obj
 0001:0003a720       _initterm                  000000018003b720 f   libucrt:initterm.obj
 0001:0003a798       _initterm_e                000000018003b798 f   libucrt:initterm.obj
 0001:0003a7e4       strcpy_s                   000000018003b7e4 f   libucrt:strcpy_s.obj
 0001:0003a844       ??$is_overflow_condition@K@__crt_strtox@@YA_NIK@Z 000000018003b844 f i libucrt:atox.obj
 0001:0003a870       ??$parse_integer@KV?$c_string_character_source@D@__crt_strtox@@@__crt_strtox@@YAKQEAU__crt_locale_pointers@@V?$c_string_character_source@D@0@H_N@Z 000000018003b870 f i libucrt:atox.obj
 0001:0003ab84       ??$parse_integer@KV?$c_string_character_source@_W@__crt_strtox@@@__crt_strtox@@YAKQEAU__crt_locale_pointers@@V?$c_string_character_source@_W@0@H_N@Z 000000018003bb84 f i libucrt:atox.obj
 0001:0003b258       _wtol                      000000018003c258 f   libucrt:atox.obj
 0001:0003b284       ??$?RV<lambda_c36588078e9f5dfd39652860aa6b3aaf>@@AEAV<lambda_ec61778202f4f5fc7e7711acc23c3bca>@@V<lambda_dc9d2797ccde5d239b4a0efae8ebd7db>@@@?$__crt_seh_guarded_call@P6AXH@Z@@QEAAP6AXH@Z$$QEAV<lambda_c36588078e9f5dfd39652860aa6b3aaf>@@AEAV<lambda_ec61778202f4f5fc7e7711acc23c3bca>@@$$QEAV<lambda_dc9d2797ccde5d239b4a0efae8ebd7db>@@@Z 000000018003c284 f i libucrt:signal.obj
 0001:0003b2cc       __acrt_get_sigabrt_handler 000000018003c2cc f   libucrt:signal.obj
 0001:0003b2fc       __acrt_initialize_signal_handlers 000000018003c2fc f   libucrt:signal.obj
 0001:0003b31c       raise                      000000018003c31c f   libucrt:signal.obj
 0001:0003b5b8       ??$?RV<lambda_46352004c1216016012b18bd6f87e700>@@AEAV<lambda_3bd07e1a1191394380780325891bf33f>@@V<lambda_334532d3f185bcaa59b5be82d7d22bff>@@@?$__crt_seh_guarded_call@X@@QEAAX$$QEAV<lambda_46352004c1216016012b18bd6f87e700>@@AEAV<lambda_3bd07e1a1191394380780325891bf33f>@@$$QEAV<lambda_334532d3f185bcaa59b5be82d7d22bff>@@@Z 000000018003c5b8 f i libucrt:per_thread_data.obj
 0001:0003b618       ??$?RV<lambda_5e887d1dcbef67a5eb4283622ba103bf>@@AEAV<lambda_4466841279450cc726390878d4a41900>@@V<lambda_341c25c0346d94847f1f3c463c57e077>@@@?$__crt_seh_guarded_call@X@@QEAAX$$QEAV<lambda_5e887d1dcbef67a5eb4283622ba103bf>@@AEAV<lambda_4466841279450cc726390878d4a41900>@@$$QEAV<lambda_341c25c0346d94847f1f3c463c57e077>@@@Z 000000018003c618 f i libucrt:per_thread_data.obj
 0001:0003b660       ??$?RV<lambda_72d1df2b273a38828b1ce30cbf4cdab5>@@AEAV<lambda_876a65b173b8412d3a47c70a915b0cf4>@@V<lambda_41932305e351933ebe8f8be3ed8bb5dc>@@@?$__crt_seh_guarded_call@X@@QEAAX$$QEAV<lambda_72d1df2b273a38828b1ce30cbf4cdab5>@@AEAV<lambda_876a65b173b8412d3a47c70a915b0cf4>@@$$QEAV<lambda_41932305e351933ebe8f8be3ed8bb5dc>@@@Z 000000018003c660 f i libucrt:per_thread_data.obj
 0001:0003b6a0       ??$?RV<lambda_fb3a7dec4e47f37f22dae91bb15c9095>@@AEAV<lambda_698284760c8add0bfb0756c19673e34b>@@V<lambda_dfb8eca1e75fef3034a8fb18dd509707>@@@?$__crt_seh_guarded_call@X@@QEAAX$$QEAV<lambda_fb3a7dec4e47f37f22dae91bb15c9095>@@AEAV<lambda_698284760c8add0bfb0756c19673e34b>@@$$QEAV<lambda_dfb8eca1e75fef3034a8fb18dd509707>@@@Z 000000018003c6a0 f i libucrt:per_thread_data.obj
 0001:0003b930       __acrt_freeptd             000000018003c930 f   libucrt:per_thread_data.obj
 0001:0003b974       __acrt_getptd              000000018003c974 f   libucrt:per_thread_data.obj
 0001:0003ba08       __acrt_getptd_noexit       000000018003ca08 f   libucrt:per_thread_data.obj
 0001:0003baa8       __acrt_initialize_ptd      000000018003caa8 f   libucrt:per_thread_data.obj
 0001:0003bae4       __acrt_uninitialize_ptd    000000018003cae4 f   libucrt:per_thread_data.obj
 0001:0003bb08       strtol                     000000018003cb08 f   libucrt:strtox.obj
 0001:0003bb38       wcstol                     000000018003cb38 f   libucrt:strtox.obj
 0001:0003bb68       _mbtowc_l                  000000018003cb68 f   libucrt:mbtowc.obj
 0001:0003bcb0       mbtowc                     000000018003ccb0 f   libucrt:mbtowc.obj
 0001:0003bcb8       _wctomb_s_l                000000018003ccb8 f   libucrt:wctomb.obj
 0001:0003be3c       wctomb_s                   000000018003ce3c f   libucrt:wctomb.obj
 0001:0003be50       __acrt_update_locale_info  000000018003ce50 f   libucrt:locale_update.obj
 0001:0003be84       __acrt_update_multibyte_info 000000018003ce84 f   libucrt:locale_update.obj
 0001:0003beb8       ?__acrt_fp_classify@@YA?AW4__acrt_fp_class@@AEBN@Z 000000018003ceb8 f i libucrt:cvt.obj
 0001:0003c8f0       __acrt_fp_format           000000018003d8f0 f   libucrt:cvt.obj
 0001:0003cb34       _fputwc_nolock             000000018003db34 f   libucrt:fputwc.obj
 0001:0003ccb0       _fileno                    000000018003dcb0 f   libucrt:fileno.obj
 0001:0003ccd8       __acrt_initialize_stdio    000000018003dcd8 f   libucrt:_file.obj
 0001:0003cdf8       __acrt_iob_func            000000018003ddf8 f   libucrt:_file.obj
 0001:0003ce0c       __acrt_uninitialize_stdio  000000018003de0c f   libucrt:_file.obj
 0001:0003ce68       _lock_file                 000000018003de68 f   libucrt:_file.obj
 0001:0003ce74       _unlock_file               000000018003de74 f   libucrt:_file.obj
 0001:0003ce80       _fputc_nolock              000000018003de80 f   libucrt:fputc.obj
 0001:0003ce98       _get_printf_count_output   000000018003de98 f   libucrt:printf_count_output.obj
 0001:0003ceb0       __acrt_stdio_begin_temporary_buffering_nolock 000000018003deb0 f   libucrt:_sftbuf.obj
 0001:0003cf80       __acrt_stdio_end_temporary_buffering_nolock 000000018003df80 f   libucrt:_sftbuf.obj
 0001:0003cfbc       ??$?RV<lambda_5df02c53a8f32f81fd64e5bbb78039f1>@@AEAV<lambda_2af78c5f5901b1372d98f9ab3177dfa6>@@AEAV<lambda_f51fe5fd7c79a33db34fc9310f277369>@@@?$__crt_seh_guarded_call@X@@QEAAX$$QEAV<lambda_5df02c53a8f32f81fd64e5bbb78039f1>@@AEAV<lambda_2af78c5f5901b1372d98f9ab3177dfa6>@@AEAV<lambda_f51fe5fd7c79a33db34fc9310f277369>@@@Z 000000018003dfbc f i libucrt:wsetlocale.obj
 0001:0003cfe8       ??$?RV<lambda_d67e8342c384adda8f857579ab50b2ae>@@AEAV<lambda_30712929f77e709619002f448b6a9510>@@V<lambda_4525336fd7e478d965fb7ca7a337cad8>@@@?$__crt_seh_guarded_call@X@@QEAAX$$QEAV<lambda_d67e8342c384adda8f857579ab50b2ae>@@AEAV<lambda_30712929f77e709619002f448b6a9510>@@$$QEAV<lambda_4525336fd7e478d965fb7ca7a337cad8>@@@Z 000000018003dfe8 f i libucrt:wsetlocale.obj
 0001:0003d1b4       __acrt_copy_locale_name    000000018003e1b4 f   libucrt:wsetlocale.obj
 0001:0003d238       __acrt_set_locale_changed  000000018003e238 f   libucrt:wsetlocale.obj
 0001:0003d244       __acrt_uninitialize_locale 000000018003e244 f   libucrt:wsetlocale.obj
 0001:0003d28c       __lc_lctowcs               000000018003e28c f   libucrt:wsetlocale.obj
 0001:0003d330       __lc_wcstolc               000000018003e330 f   libucrt:wsetlocale.obj
 0001:0003d5a8       _expandlocale              000000018003e5a8 f   libucrt:wsetlocale.obj
 0001:0003d9a4       _wcscats                   000000018003e9a4 f   libucrt:wsetlocale.obj
 0001:0003da0c       _wsetlocale                000000018003ea0c f   libucrt:wsetlocale.obj
 0001:0003e440       __acrt_initialize_lowio    000000018003f440 f   libucrt:ioinit.obj
 0001:0003e47c       __acrt_uninitialize_lowio  000000018003f47c f   libucrt:ioinit.obj
 0001:0003e4bc       _dsign                     000000018003f4bc f   libucrt:nan.obj
 0001:0003e4d4       _errcode                   000000018003f4d4 f   libucrt:fpexcept.obj
 0001:0003e518       _except1                   000000018003f518 f   libucrt:fpexcept.obj
 0001:0003e60c       _handle_exc                000000018003f60c f   libucrt:fpexcept.obj
 0001:0003e874       _raise_exc                 000000018003f874 f   libucrt:fpexcept.obj
 0001:0003e89c       _raise_exc_ex              000000018003f89c f   libucrt:fpexcept.obj
 0001:0003eba4       _raise_excf                000000018003fba4 f   libucrt:fpexcept.obj
 0001:0003ebd0       _set_errno_from_matherr    000000018003fbd0 f   libucrt:fpexcept.obj
 0001:0003ec00       _umatherr                  000000018003fc00 f   libucrt:fpexcept.obj
 0001:0003ecd4       _decomp                    000000018003fcd4 f   libucrt:util.obj
 0001:0003ee08       _sptype                    000000018003fe08 f   libucrt:util.obj
 0001:0003ee7c       _clrfp                     000000018003fe7c f   libucrt:fpctrl.obj
 0001:0003ee9c       _ctrlfp                    000000018003fe9c f   libucrt:fpctrl.obj
 0001:0003ef18       _set_statfp                000000018003ff18 f   libucrt:fpctrl.obj
 0001:0003ef38       _statfp                    000000018003ff38 f   libucrt:fpctrl.obj
 0001:0003ef4c       _query_app_type            000000018003ff4c f   libucrt:report_runtime_error.obj
 0001:0003f07c       _itow_s                    000000018004007c f   libucrt:xtoa.obj
 0001:0003f09c       _set_error_mode            000000018004009c f   libucrt:set_error_mode.obj
 0001:0003f0dc       wcscat_s                   00000001800400dc f   libucrt:wcscat_s.obj
 0001:0003f15c       wcsncat_s                  000000018004015c f   libucrt:wcsncat_s.obj
 0001:0003f284       __acrt_show_wide_message_box 0000000180040284 f   libucrt:crtmbox.obj
 0001:0003f3a0       __acrt_stdio_flush_nolock  00000001800403a0 f   libucrt:fflush.obj
 0001:0003f418       _fflush_nolock             0000000180040418 f   libucrt:fflush.obj
 0001:0003f464       _flushall                  0000000180040464 f   libucrt:fflush.obj
 0001:0003f554       fflush                     0000000180040554 f   libucrt:fflush.obj
 0001:0003f598       ??$?RV<lambda_7a5ef57ff966f610505f1d28a3d40618>@@AEAV<lambda_b721fa326cdb32351d23dfa67958c160>@@V<lambda_5e0fb27672408a07956fe59e48ccb2aa>@@@?$__crt_seh_guarded_call@H@@QEAAH$$QEAV<lambda_7a5ef57ff966f610505f1d28a3d40618>@@AEAV<lambda_b721fa326cdb32351d23dfa67958c160>@@$$QEAV<lambda_5e0fb27672408a07956fe59e48ccb2aa>@@@Z 0000000180040598 f i libucrt:setvbuf.obj
 0001:0003f6c8       setvbuf                    00000001800406c8 f   libucrt:setvbuf.obj
 0001:0003f7ac       ??$?RV<lambda_630b2aca97f6d20d5b5ea6529ea6b6af>@@AEAV<lambda_af91936f1d075d609f72d9d8cba980af>@@V<lambda_e82fa975f615b5c7c7b0e4d178fdae67>@@@?$__crt_seh_guarded_call@H@@QEAAH$$QEAV<lambda_630b2aca97f6d20d5b5ea6529ea6b6af>@@AEAV<lambda_af91936f1d075d609f72d9d8cba980af>@@$$QEAV<lambda_e82fa975f615b5c7c7b0e4d178fdae67>@@@Z 00000001800407ac f i libucrt:winapi_thunks.obj
 0001:0003f9e4       __acrt_EnumSystemLocalesEx 00000001800409e4 f   libucrt:winapi_thunks.obj
 0001:0003fa8c       __acrt_FlsAlloc            0000000180040a8c f   libucrt:winapi_thunks.obj
 0001:0003fae4       __acrt_FlsFree             0000000180040ae4 f   libucrt:winapi_thunks.obj
 0001:0003fb3c       __acrt_FlsGetValue         0000000180040b3c f   libucrt:winapi_thunks.obj
 0001:0003fb94       __acrt_FlsSetValue         0000000180040b94 f   libucrt:winapi_thunks.obj
 0001:0003fbfc       __acrt_GetLocaleInfoEx     0000000180040bfc f   libucrt:winapi_thunks.obj
 0001:0003fc94       __acrt_GetSystemTimePreciseAsFileTime 0000000180040c94 f   libucrt:winapi_thunks.obj
 0001:0003fcec       __acrt_GetUserDefaultLocaleName 0000000180040cec f   libucrt:winapi_thunks.obj
 0001:0003fd60       __acrt_InitializeCriticalSectionEx 0000000180040d60 f   libucrt:winapi_thunks.obj
 0001:0003fdd8       __acrt_IsValidLocaleName   0000000180040dd8 f   libucrt:winapi_thunks.obj
 0001:0003fe40       __acrt_LCIDToLocaleName    0000000180040e40 f   libucrt:winapi_thunks.obj
 0001:0003fecc       __acrt_LCMapStringEx       0000000180040ecc f   libucrt:winapi_thunks.obj
 0001:0003ffbc       __acrt_LocaleNameToLCID    0000000180040fbc f   libucrt:winapi_thunks.obj
 0001:00040024       __acrt_MessageBoxW         0000000180041024 f   libucrt:winapi_thunks.obj
 0001:000400ac       __acrt_can_show_message_box 00000001800410ac f   libucrt:winapi_thunks.obj
 0001:00040108       __acrt_can_use_vista_locale_apis 0000000180041108 f   libucrt:winapi_thunks.obj
 0001:00040138       __acrt_get_parent_window   0000000180041138 f   libucrt:winapi_thunks.obj
 0001:000401c8       __acrt_initialize_winapi_thunks 00000001800411c8 f   libucrt:winapi_thunks.obj
 0001:00040200       __acrt_is_interactive      0000000180041200 f   libucrt:winapi_thunks.obj
 0001:000402d4       __acrt_is_packaged_app     00000001800412d4 f   libucrt:winapi_thunks.obj
 0001:0004035c       __acrt_uninitialize_winapi_thunks 000000018004135c f   libucrt:winapi_thunks.obj
 0001:0004057c       _mbstowcs_s_l              000000018004157c f   libucrt:mbstowcs.obj
 0001:000406ac       mbstowcs_s                 00000001800416ac f   libucrt:mbstowcs.obj
 0001:00040a00       _wcstombs_s_l              0000000180041a00 f   libucrt:wcstombs.obj
 0001:00040aec       _query_new_mode            0000000180041aec f   libucrt:new_mode.obj
 0001:00040af4       __acrt_initialize_heap     0000000180041af4 f   libucrt:heap_handle.obj
 0001:00040b10       __acrt_uninitialize_heap   0000000180041b10 f   libucrt:heap_handle.obj
 0001:00040b1c       _isctype_l                 0000000180041b1c f   libucrt:isctype.obj
 0001:00040dcc       __acrt_GetLocaleInfoA      0000000180041dcc f   libucrt:getlocaleinfoa.obj
 0001:00040f94       __acrt_GetStringTypeA      0000000180041f94 f   libucrt:getstringtypea.obj
 0001:000414a4       __acrt_LCMapStringA        00000001800424a4 f   libucrt:lcmapstringa.obj
 0001:0004153c       iswctype                   000000018004253c f   libucrt:iswctype.obj
 0001:000415b0       __acrt_initialize_fma3     00000001800425b0 f   libucrt:fma3_available.obj
 0001:00041620       _pow_special               0000000180042620 f   libucrt:pow_special.obj
 0001:00041744       _powf_special              0000000180042744 f   libucrt:pow_special.obj
 0001:000418d0       _wcsicmp                   00000001800428d0 f   libucrt:wcsicmp.obj
 0001:00041958       _wcsicmp_l                 0000000180042958 f   libucrt:wcsicmp.obj
 0001:00041a48       __acrt_initialize_timeset  0000000180042a48 f   libucrt:timeset.obj
 0001:00041a78       _isleadbyte_l              0000000180042a78 f i libucrt:_wctype.obj
 0001:00041f94       ?expand_if_necessary@?$argument_list@D@?A0xca0879c4@@AEAAHXZ 0000000180042f94 f i libucrt:argv_wildcards.obj
 0001:0004205c       __acrt_expand_narrow_argv_wildcards 000000018004305c f   libucrt:argv_wildcards.obj
 0001:00042064       ??$?RV<lambda_99476a1ad63dd22509b5d3e65b0ffc95>@@AEAV<lambda_ad1ced32f4ac17aa236e5ef05d6b3b7c>@@V<lambda_f7424dd8d45958661754dc4f2697e9c3>@@@?$__crt_seh_guarded_call@X@@QEAAX$$QEAV<lambda_99476a1ad63dd22509b5d3e65b0ffc95>@@AEAV<lambda_ad1ced32f4ac17aa236e5ef05d6b3b7c>@@$$QEAV<lambda_f7424dd8d45958661754dc4f2697e9c3>@@@Z 0000000180043064 f i libucrt:mbctype.obj
 0001:00042760       __acrt_initialize_multibyte 0000000180043760 f   libucrt:mbctype.obj
 0001:00042788       __acrt_update_thread_multibyte_data 0000000180043788 f   libucrt:mbctype.obj
 0001:00042848       _setmbcp_nolock            0000000180043848 f   libucrt:mbctype.obj
 0001:00042af0       __acrt_initialize_command_line 0000000180043af0 f   libucrt:argv_data.obj
 0001:00042b18       __dcrt_get_narrow_environment_from_os 0000000180043b18 f   libucrt:get_environment_from_os.obj
 0001:00042c1c       _recalloc                  0000000180043c1c f   libucrt:recalloc.obj
 0001:00042c24       _recalloc_base             0000000180043c24 f   libucrt:recalloc.obj
 0001:00042cbc       __acrt_execute_initializers 0000000180043cbc f   libucrt:shared_initialization.obj
 0001:00042d50       __acrt_execute_uninitializers 0000000180043d50 f   libucrt:shared_initialization.obj
 0001:00042da0       __acrt_has_user_matherr    0000000180043da0 f   libucrt:matherr.obj
 0001:00042dc0       __acrt_initialize_user_matherr 0000000180043dc0 f   libucrt:matherr.obj
 0001:00042dc8       __acrt_invoke_user_matherr 0000000180043dc8 f   libucrt:matherr.obj
 0001:00042e10       __acrt_add_locale_ref      0000000180043e10 f   libucrt:locale_refcounting.obj
 0001:00042e9c       __acrt_free_locale         0000000180043e9c f   libucrt:locale_refcounting.obj
 0001:00043014       __acrt_locale_add_lc_time_reference 0000000180044014 f   libucrt:locale_refcounting.obj
 0001:0004303c       __acrt_locale_free_lc_time_if_unreferenced 000000018004403c f   libucrt:locale_refcounting.obj
 0001:00043074       __acrt_locale_release_lc_time_reference 0000000180044074 f   libucrt:locale_refcounting.obj
 0001:0004309c       __acrt_release_locale_ref  000000018004409c f   libucrt:locale_refcounting.obj
 0001:00043144       __acrt_update_thread_locale_data 0000000180044144 f   libucrt:locale_refcounting.obj
 0001:000431b4       _updatetlocinfoEx_nolock   00000001800441b4 f   libucrt:locale_refcounting.obj
 0001:0004321c       __acrt_fp_strflt_to_string 000000018004421c f   libucrt:_fptostr.obj
 0001:000432dc       __acrt_fltout              00000001800442dc f   libucrt:cfout.obj
 0001:00044858       __acrt_stdio_flush_and_write_narrow_nolock 0000000180045858 f   libucrt:_flsbuf.obj
 0001:00044940       __acrt_stdio_flush_and_write_wide_nolock 0000000180045940 f   libucrt:_flsbuf.obj
 0001:00044a2c       _fcloseall                 0000000180045a2c f   libucrt:closeall.obj
 0001:00044ae0       __acrt_stdio_free_buffer_nolock 0000000180045ae0 f   libucrt:_freebuf.obj
 0001:00044b20       _isatty                    0000000180045b20 f   libucrt:isatty.obj
 0001:00044b80       __acrt_locale_free_monetary 0000000180045b80 f   libucrt:initmon.obj
 0001:00044c8c       __acrt_locale_initialize_monetary 0000000180045c8c f   libucrt:initmon.obj
 0001:000451c4       __acrt_locale_free_numeric 00000001800461c4 f   libucrt:initnum.obj
 0001:00045230       __acrt_locale_initialize_numeric 0000000180046230 f   libucrt:initnum.obj
 0001:000458b4       __acrt_locale_free_time    00000001800468b4 f   libucrt:inittime.obj
 0001:000459bc       __acrt_locale_initialize_time 00000001800469bc f   libucrt:inittime.obj
 0001:00045a50       wcsncpy_s                  0000000180046a50 f   libucrt:wcsncpy_s.obj
 0001:00045b34       wcscspn                    0000000180046b34 f   libucrt:wcscspn.obj
 0001:00045b74       wcsncmp                    0000000180046b74 f   libucrt:wcsncmp.obj
 0001:00045ba0       wcspbrk                    0000000180046ba0 f   libucrt:wcspbrk.obj
 0001:00046444       __acrt_get_qualified_locale 0000000180047444 f   libucrt:get_qualified_locale.obj
 0001:00046e30       __acrt_get_qualified_locale_downlevel 0000000180047e30 f   libucrt:getqloc_downlevel.obj
 0001:000470c0       __acrt_lowio_create_handle_array 00000001800480c0 f   libucrt:osfinfo.obj
 0001:00047158       __acrt_lowio_destroy_handle_array 0000000180048158 f   libucrt:osfinfo.obj
 0001:000471a8       __acrt_lowio_ensure_fh_exists 00000001800481a8 f   libucrt:osfinfo.obj
 0001:00047260       __acrt_lowio_lock_fh       0000000180048260 f   libucrt:osfinfo.obj
 0001:00047284       __acrt_lowio_unlock_fh     0000000180048284 f   libucrt:osfinfo.obj
 0001:000472a8       _free_osfhnd               00000001800482a8 f   libucrt:osfinfo.obj
 0001:00047364       _get_osfhandle             0000000180048364 f   libucrt:osfinfo.obj
 0001:000473f0       _get_fpsr                  00000001800483f0 f   libucrt:fpsr.obj
 0001:00047400       _set_fpsr                  0000000180048400 f   libucrt:fpsr.obj
 0001:0004740a       _fclrf                     000000018004840a f   libucrt:fpsr.obj
 0001:0004741e       _frnd                      000000018004841e f   libucrt:fpsr.obj
 0001:00047440       ??$?RV<lambda_b521505b218e5242e90febf6bfebc422>@@AEAV<lambda_6978c1fb23f02e42e1d9e99668cc68aa>@@V<lambda_314360699dd331753a4119843814e9a7>@@@?$__crt_seh_guarded_call@H@@QEAAH$$QEAV<lambda_b521505b218e5242e90febf6bfebc422>@@AEAV<lambda_6978c1fb23f02e42e1d9e99668cc68aa>@@$$QEAV<lambda_314360699dd331753a4119843814e9a7>@@@Z 0000000180048440 f i libucrt:commit.obj
 0001:000474cc       _commit                    00000001800484cc f   libucrt:commit.obj
 0001:00047b00       _write                     0000000180048b00 f   libucrt:write.obj
 0001:00047bec       _write_nolock              0000000180048bec f   libucrt:write.obj
 0001:00047f98       __acrt_DownlevelLCIDToLocaleName 0000000180048f98 f   libucrt:lcidtoname_downlevel.obj
 0001:0004807c       __acrt_DownlevelLocaleNameToLCID 000000018004907c f   libucrt:lcidtoname_downlevel.obj
 0001:000480b0       strncpy_s                  00000001800490b0 f   libucrt:strncpy_s.obj
 0001:00048184       _getfpcontrolword          0000000180049184 f   libucrt:_fenvutils.obj
 0001:0004819c       _getfpstatusword           000000018004919c f   libucrt:_fenvutils.obj
 0001:000481b0       _setfpcontrolword          00000001800491b0 f   libucrt:_fenvutils.obj
 0001:000481bc       _setfpstatusword           00000001800491bc f   libucrt:_fenvutils.obj
 0001:00048330       _handle_error              0000000180049330 f   libucrt:libm_error.obj
 0001:00048458       _handle_errorf             0000000180049458 f   libucrt:libm_error.obj
 0001:0004858c       _handle_nan                000000018004958c f   libucrt:libm_error.obj
 0001:000485a8       _handle_nanf               00000001800495a8 f   libucrt:libm_error.obj
 0001:000485b8       _towlower_l                00000001800495b8 f   libucrt:towlower.obj
 0001:00048750       qsort                      0000000180049750 f   libucrt:qsort.obj
 0001:00048a84       strpbrk                    0000000180049a84 f   libucrt:strpbrk.obj
 0001:00048b24       _mbsdec                    0000000180049b24 f   libucrt:mbsdec.obj
 0001:00048b2c       _mbsdec_l                  0000000180049b2c f   libucrt:mbsdec.obj
 0001:00048bdc       _msize                     0000000180049bdc f   libucrt:msize.obj
 0001:00048c18       fegetenv                   0000000180049c18 f   libucrt:fegetenv.obj
 0001:00048c38       fesetenv                   0000000180049c38 f   libucrt:fesetenv.obj
 0001:00048c84       feholdexcept               0000000180049c84 f   libucrt:feholdexcept.obj
 0001:00048cd4       ceil                       0000000180049cd4 f   libucrt:ceil.obj
 0001:00048da0       log10                      0000000180049da0 f   libucrt:log10.obj
 0001:000494d8       _lseeki64                  000000018004a4d8 f   libucrt:lseek.obj
 0001:000494e0       _lseeki64_nolock           000000018004a4e0 f   libucrt:lseek.obj
 0001:000494e8       __acrt_stdio_allocate_buffer_nolock 000000018004a4e8 f   libucrt:_getbuf.obj
 0001:0004954c       _fclose_nolock             000000018004a54c f   libucrt:fclose.obj
 0001:000495d0       fclose                     000000018004a5d0 f   libucrt:fclose.obj
 0001:0004963c       _wcsnicmp                  000000018004a63c f   libucrt:wcsnicmp.obj
 0001:000496d8       _wcsnicmp_l                000000018004a6d8 f   libucrt:wcsnicmp.obj
 0001:000497f0       wcscmp                     000000018004a7f0 f   libucrt:wcscmp.obj
 0001:00049828       _putwch_nolock             000000018004a828 f   libucrt:putwch.obj
 0001:00049884       _clearfp                   000000018004a884 f   libucrt:ieee.obj
 0001:000498d8       _controlfp                 000000018004a8d8 f   libucrt:ieee.obj
 0001:000498e4       _statusfp                  000000018004a8e4 f   libucrt:ieee.obj
 0001:00049bc4       __acrt_LCMapStringW        000000018004abc4 f   libucrt:lcmapstringw.obj
 0001:00049c50       _log10_special             000000018004ac50 f   libucrt:log_special.obj
 0001:00049d08       ??$?RV<lambda_bfedae4ebbf01fab1bb6dcc6a9e276e0>@@AEAV<lambda_2fe9b910cf3cbf4a0ab98a02ba45b3ec>@@V<lambda_237c231691f317818eb88cc1d5d642d6>@@@?$__crt_seh_guarded_call@H@@QEAAH$$QEAV<lambda_bfedae4ebbf01fab1bb6dcc6a9e276e0>@@AEAV<lambda_2fe9b910cf3cbf4a0ab98a02ba45b3ec>@@$$QEAV<lambda_237c231691f317818eb88cc1d5d642d6>@@@Z 000000018004ad08 f i libucrt:close.obj
 0001:00049d7c       _close                     000000018004ad7c f   libucrt:close.obj
 0001:00049e20       _close_nolock              000000018004ae20 f   libucrt:close.obj
 0001:00049edc       ?__acrt_stdio_free_stream@@YAXV__crt_stdio_stream@@@Z 000000018004aedc f   libucrt:stream.obj
 0001:00049f20       __dcrt_lowio_initialize_console_output 000000018004af20 f   libucrt:initcon.obj
 0001:00049f5c       __dcrt_terminate_console_output 000000018004af5c f   libucrt:initcon.obj
 0001:00049f7c       IsProcessorFeaturePresent  000000018004af7c f   kernel32:KERNEL32.dll
 0001:00049f82       RtlUnwindEx                000000018004af82 f   kernel32:KERNEL32.dll
 0001:00049f88       ?DloadAcquireSectionWriteAccess@@YAXXZ 000000018004af88 f i DelayImp:delayhlp.obj
 0001:0004a044       ?DloadGetSRWLockFunctionPointers@@YAEXZ 000000018004b044 f i DelayImp:delayhlp.obj
 0001:0004a0e0       ?DloadMakePermanentImageCommit@@YAXPEAX_K@Z 000000018004b0e0 f i DelayImp:delayhlp.obj
 0001:0004a178       ?DloadObtainSection@@YAPEAXPEAK0@Z 000000018004b178 f i DelayImp:delayhlp.obj
 0001:0004a210       ?DloadProtectSection@@YAXKPEAK@Z 000000018004b210 f i DelayImp:delayhlp.obj
 0001:0004a2a0       ?DloadReleaseSectionWriteAccess@@YAXXZ 000000018004b2a0 f i DelayImp:delayhlp.obj
 0001:0004a344       __delayLoadHelper2         000000018004b344 f   DelayImp:delayhlp.obj
 0001:0004a640       _FindPESection             000000018004b640 f   LIBCMT:pesect.obj
 0001:0004a690       _IsNonwritableInCurrentImage 000000018004b690 f   LIBCMT:pesect.obj
 0001:0004a6e0       _ValidateImageBase         000000018004b6e0 f   LIBCMT:pesect.obj
 0001:0004a710       strrchr                    000000018004b710 f   libvcruntime:strrchr.obj
 0001:0004a850       wcschr                     000000018004b850 f   libvcruntime:wcschr.obj
 0001:0004a900       _guard_dispatch_icall_nop  000000018004b900 f   LIBCMT:_guard_dispatch_.obj
 0001:0004e5c0       ??__F_Static@?1???$_Immortalize@V_Iostream_error_category@std@@@std@@YAAEAV_Iostream_error_category@0@XZ@YAXXZ 000000018004f5c0 f i njsOracle.obj
 0002:00000000       __imp_GetModuleHandleA     0000000180050000     kernel32:KERNEL32.dll
 0002:00000008       __imp_VirtualQuery         0000000180050008     kernel32:KERNEL32.dll
 0002:00000010       __imp_VirtualProtect       0000000180050010     kernel32:KERNEL32.dll
 0002:00000018       __imp_GetSystemInfo        0000000180050018     kernel32:KERNEL32.dll
 0002:00000020       __imp_CreateFileW          0000000180050020     kernel32:KERNEL32.dll
 0002:00000028       __imp_SetFilePointerEx     0000000180050028     kernel32:KERNEL32.dll
 0002:00000030       __imp_HeapSize             0000000180050030     kernel32:KERNEL32.dll
 0002:00000038       __imp_GetConsoleMode       0000000180050038     kernel32:KERNEL32.dll
 0002:00000040       __imp_GetConsoleCP         0000000180050040     kernel32:KERNEL32.dll
 0002:00000048       __imp_FlushFileBuffers     0000000180050048     kernel32:KERNEL32.dll
 0002:00000050       __imp_SetStdHandle         0000000180050050     kernel32:KERNEL32.dll
 0002:00000058       __imp_FreeEnvironmentStringsW 0000000180050058     kernel32:KERNEL32.dll
 0002:00000060       __imp_GetEnvironmentStringsW 0000000180050060     kernel32:KERNEL32.dll
 0002:00000068       __imp_GetCommandLineW      0000000180050068     kernel32:KERNEL32.dll
 0002:00000070       __imp_GetCommandLineA      0000000180050070     kernel32:KERNEL32.dll
 0002:00000078       __imp_GetOEMCP             0000000180050078     kernel32:KERNEL32.dll
 0002:00000080       __imp_IsValidCodePage      0000000180050080     kernel32:KERNEL32.dll
 0002:00000088       __imp_FindNextFileA        0000000180050088     kernel32:KERNEL32.dll
 0002:00000090       __imp_FindFirstFileExA     0000000180050090     kernel32:KERNEL32.dll
 0002:00000098       __imp_FindClose            0000000180050098     kernel32:KERNEL32.dll
 0002:000000a0       __imp_GetProcessHeap       00000001800500a0     kernel32:KERNEL32.dll
 0002:000000a8       __imp_EnumSystemLocalesW   00000001800500a8     kernel32:KERNEL32.dll
 0002:000000b0       __imp_GetUserDefaultLCID   00000001800500b0     kernel32:KERNEL32.dll
 0002:000000b8       __imp_IsValidLocale        00000001800500b8     kernel32:KERNEL32.dll
 0002:000000c0       __imp_CreateThread         00000001800500c0     kernel32:KERNEL32.dll
 0002:000000c8       __imp_OutputDebugStringW   00000001800500c8     kernel32:KERNEL32.dll
 0002:000000d0       __imp_WriteFile            00000001800500d0     kernel32:KERNEL32.dll
 0002:000000d8       __imp_GetACP               00000001800500d8     kernel32:KERNEL32.dll
 0002:000000e0       __imp_ExitProcess          00000001800500e0     kernel32:KERNEL32.dll
 0002:000000e8       __imp_HeapFree             00000001800500e8     kernel32:KERNEL32.dll
 0002:000000f0       __imp_HeapReAlloc          00000001800500f0     kernel32:KERNEL32.dll
 0002:000000f8       __imp_HeapAlloc            00000001800500f8     kernel32:KERNEL32.dll
 0002:00000100       __imp_WriteConsoleW        0000000180050100     kernel32:KERNEL32.dll
 0002:00000108       __imp_GetModuleHandleExW   0000000180050108     kernel32:KERNEL32.dll
 0002:00000110       __imp_GetModuleFileNameW   0000000180050110     kernel32:KERNEL32.dll
 0002:00000118       __imp_GetModuleFileNameA   0000000180050118     kernel32:KERNEL32.dll
 0002:00000120       __imp_GetFileType          0000000180050120     kernel32:KERNEL32.dll
 0002:00000128       __imp_GetStdHandle         0000000180050128     kernel32:KERNEL32.dll
 0002:00000130       __imp_InterlockedFlushSList 0000000180050130     kernel32:KERNEL32.dll
 0002:00000138       __imp_WideCharToMultiByte  0000000180050138     kernel32:KERNEL32.dll
 0002:00000140       __imp_EnterCriticalSection 0000000180050140     kernel32:KERNEL32.dll
 0002:00000148       __imp_LeaveCriticalSection 0000000180050148     kernel32:KERNEL32.dll
 0002:00000150       __imp_DeleteCriticalSection 0000000180050150     kernel32:KERNEL32.dll
 0002:00000158       __imp_EncodePointer        0000000180050158     kernel32:KERNEL32.dll
 0002:00000160       __imp_DecodePointer        0000000180050160     kernel32:KERNEL32.dll
 0002:00000168       __imp_MultiByteToWideChar  0000000180050168     kernel32:KERNEL32.dll
 0002:00000170       __imp_SetLastError         0000000180050170     kernel32:KERNEL32.dll
 0002:00000178       __imp_InitializeCriticalSectionAndSpinCount 0000000180050178     kernel32:KERNEL32.dll
 0002:00000180       __imp_CreateEventW         0000000180050180     kernel32:KERNEL32.dll
 0002:00000188       __imp_TlsAlloc             0000000180050188     kernel32:KERNEL32.dll
 0002:00000190       __imp_TlsGetValue          0000000180050190     kernel32:KERNEL32.dll
 0002:00000198       __imp_TlsSetValue          0000000180050198     kernel32:KERNEL32.dll
 0002:000001a0       __imp_TlsFree              00000001800501a0     kernel32:KERNEL32.dll
 0002:000001a8       __imp_GetSystemTimeAsFileTime 00000001800501a8     kernel32:KERNEL32.dll
 0002:000001b0       __imp_GetModuleHandleW     00000001800501b0     kernel32:KERNEL32.dll
 0002:000001b8       __imp_GetProcAddress       00000001800501b8     kernel32:KERNEL32.dll
 0002:000001c0       __imp_LCMapStringW         00000001800501c0     kernel32:KERNEL32.dll
 0002:000001c8       __imp_GetLocaleInfoW       00000001800501c8     kernel32:KERNEL32.dll
 0002:000001d0       __imp_GetStringTypeW       00000001800501d0     kernel32:KERNEL32.dll
 0002:000001d8       __imp_GetCPInfo            00000001800501d8     kernel32:KERNEL32.dll
 0002:000001e0       __imp_CloseHandle          00000001800501e0     kernel32:KERNEL32.dll
 0002:000001e8       __imp_SetEvent             00000001800501e8     kernel32:KERNEL32.dll
 0002:000001f0       __imp_ResetEvent           00000001800501f0     kernel32:KERNEL32.dll
 0002:000001f8       __imp_WaitForSingleObjectEx 00000001800501f8     kernel32:KERNEL32.dll
 0002:00000200       __imp_RtlCaptureContext    0000000180050200     kernel32:KERNEL32.dll
 0002:00000208       __imp_RtlLookupFunctionEntry 0000000180050208     kernel32:KERNEL32.dll
 0002:00000210       __imp_RtlVirtualUnwind     0000000180050210     kernel32:KERNEL32.dll
 0002:00000218       __imp_UnhandledExceptionFilter 0000000180050218     kernel32:KERNEL32.dll
 0002:00000220       __imp_SetUnhandledExceptionFilter 0000000180050220     kernel32:KERNEL32.dll
 0002:00000228       __imp_GetCurrentProcess    0000000180050228     kernel32:KERNEL32.dll
 0002:00000230       __imp_TerminateProcess     0000000180050230     kernel32:KERNEL32.dll
 0002:00000238       __imp_IsProcessorFeaturePresent 0000000180050238     kernel32:KERNEL32.dll
 0002:00000240       __imp_IsDebuggerPresent    0000000180050240     kernel32:KERNEL32.dll
 0002:00000248       __imp_GetStartupInfoW      0000000180050248     kernel32:KERNEL32.dll
 0002:00000250       __imp_QueryPerformanceCounter 0000000180050250     kernel32:KERNEL32.dll
 0002:00000258       __imp_GetCurrentProcessId  0000000180050258     kernel32:KERNEL32.dll
 0002:00000260       __imp_GetCurrentThreadId   0000000180050260     kernel32:KERNEL32.dll
 0002:00000268       __imp_InitializeSListHead  0000000180050268     kernel32:KERNEL32.dll
 0002:00000270       __imp_RtlPcToFileHeader    0000000180050270     kernel32:KERNEL32.dll
 0002:00000278       __imp_RaiseException       0000000180050278     kernel32:KERNEL32.dll
 0002:00000280       __imp_RtlUnwindEx          0000000180050280     kernel32:KERNEL32.dll
 0002:00000288       __imp_GetLastError         0000000180050288     kernel32:KERNEL32.dll
 0002:00000290       __imp_FreeLibrary          0000000180050290     kernel32:KERNEL32.dll
 0002:00000298       __imp_LoadLibraryExW       0000000180050298     kernel32:KERNEL32.dll
 0002:000002a0       __imp_LoadLibraryExA       00000001800502a0     kernel32:KERNEL32.dll
 0002:000002a8       \177KERNEL32_NULL_THUNK_DATA 00000001800502a8     kernel32:KERNEL32.dll
 0002:000002b0       __imp_OCIClientVersion     00000001800502b0     oci:OCI.dll
 0002:000002b8       __imp_OCILobCreateTemporary 00000001800502b8     oci:OCI.dll
 0002:000002c0       __imp_OCILobIsTemporary    00000001800502c0     oci:OCI.dll
 0002:000002c8       __imp_OCILobLocatorAssign  00000001800502c8     oci:OCI.dll
 0002:000002d0       __imp_OCILobWrite2         00000001800502d0     oci:OCI.dll
 0002:000002d8       __imp_OCILobRead2          00000001800502d8     oci:OCI.dll
 0002:000002e0       __imp_OCILobGetLength2     00000001800502e0     oci:OCI.dll
 0002:000002e8       __imp_OCILobFreeTemporary  00000001800502e8     oci:OCI.dll
 0002:000002f0       __imp_OCILobGetChunkSize   00000001800502f0     oci:OCI.dll
 0002:000002f8       __imp_OCIErrorGet          00000001800502f8     oci:OCI.dll
 0002:00000300       __imp_OCIStmtRelease       0000000180050300     oci:OCI.dll
 0002:00000308       __imp_OCIStmtFetch2        0000000180050308     oci:OCI.dll
 0002:00000310       __imp_OCIBindDynamic       0000000180050310     oci:OCI.dll
 0002:00000318       __imp_OCIParamGet          0000000180050318     oci:OCI.dll
 0002:00000320       __imp_OCIDefineByPos       0000000180050320     oci:OCI.dll
 0002:00000328       __imp_OCIStmtPrepare2      0000000180050328     oci:OCI.dll
 0002:00000330       __imp_OCIBindByName        0000000180050330     oci:OCI.dll
 0002:00000338       __imp_OCIBindByPos         0000000180050338     oci:OCI.dll
 0002:00000340       __imp_OCIStmtExecute       0000000180050340     oci:OCI.dll
 0002:00000348       __imp_OCIDefineDynamic     0000000180050348     oci:OCI.dll
 0002:00000350       __imp_OCISessionPoolDestroy 0000000180050350     oci:OCI.dll
 0002:00000358       __imp_OCISessionPoolCreate 0000000180050358     oci:OCI.dll
 0002:00000360       __imp_OCIIntervalSetDaySecond 0000000180050360     oci:OCI.dll
 0002:00000368       __imp_OCIDateTimeIntervalAdd 0000000180050368     oci:OCI.dll
 0002:00000370       __imp_OCIIntervalGetDaySecond 0000000180050370     oci:OCI.dll
 0002:00000378       __imp_OCIDateTimeSubtract  0000000180050378     oci:OCI.dll
 0002:00000380       __imp_OCIDateTimeConstruct 0000000180050380     oci:OCI.dll
 0002:00000388       __imp_OCIBreak             0000000180050388     oci:OCI.dll
 0002:00000390       __imp_OCIContextSetValue   0000000180050390     oci:OCI.dll
 0002:00000398       __imp_OCIAttrSet           0000000180050398     oci:OCI.dll
 0002:000003a0       __imp_OCIServerRelease     00000001800503a0     oci:OCI.dll
 0002:000003a8       __imp_OCIAttrGet           00000001800503a8     oci:OCI.dll
 0002:000003b0       __imp_OCISessionGet        00000001800503b0     oci:OCI.dll
 0002:000003b8       __imp_OCISessionRelease    00000001800503b8     oci:OCI.dll
 0002:000003c0       __imp_OCITransRollback     00000001800503c0     oci:OCI.dll
 0002:000003c8       __imp_OCIContextGetValue   00000001800503c8     oci:OCI.dll
 0002:000003d0       __imp_OCIPing              00000001800503d0     oci:OCI.dll
 0002:000003d8       __imp_OCIMemoryAlloc       00000001800503d8     oci:OCI.dll
 0002:000003e0       __imp_OCITransCommit       00000001800503e0     oci:OCI.dll
 0002:000003e8       __imp_OCIMemoryFree        00000001800503e8     oci:OCI.dll
 0002:000003f0       __imp_OCIHandleAlloc       00000001800503f0     oci:OCI.dll
 0002:000003f8       __imp_OCIArrayDescriptorAlloc 00000001800503f8     oci:OCI.dll
 0002:00000400       __imp_OCIDescriptorAlloc   0000000180050400     oci:OCI.dll
 0002:00000408       __imp_OCIEnvNlsCreate      0000000180050408     oci:OCI.dll
 0002:00000410       __imp_OCIArrayDescriptorFree 0000000180050410     oci:OCI.dll
 0002:00000418       __imp_OCIHandleFree        0000000180050418     oci:OCI.dll
 0002:00000420       __imp_OCIDescriptorFree    0000000180050420     oci:OCI.dll
 0002:00000428       \177OCI_NULL_THUNK_DATA    0000000180050428     oci:OCI.dll
 0002:00000430       __guard_check_icall_fptr   0000000180050430     LIBCMT:guard_support.obj
 0002:00000438       __guard_dispatch_icall_fptr 0000000180050438     LIBCMT:guard_support.obj
 0002:00000440       __xc_a                     0000000180050440     LIBCMT:initializers.obj
 0002:00000470       _register_oracledb_        0000000180050470     njsOracle.obj
 0002:000004a8       __xc_z                     00000001800504a8     LIBCMT:initializers.obj
 0002:000004b0       __xi_a                     00000001800504b0     LIBCMT:initializers.obj
 0002:000004c8       __acrt_stdio_initializer   00000001800504c8     libucrt:stdio_initializer.obj
 0002:000004d0       __acrt_tran_fma3_initializer 00000001800504d0     libucrt:fma3_initializer.obj
 0002:000004d8       __acrt_timeset_initializer 00000001800504d8     libucrt:timeset_initializer.obj
 0002:000004e0       __acrt_multibyte_initializer 00000001800504e0     libucrt:multibyte_initializer.obj
 0002:000004e8       __xi_z                     00000001800504e8     LIBCMT:initializers.obj
 0002:000004f0       __xl_a                     00000001800504f0     LIBCMT:tlssup.obj
 0002:000004f8       __xl_z                     00000001800504f8     LIBCMT:tlssup.obj
 0002:00000500       __xp_a                     0000000180050500     LIBCMT:initializers.obj
 0002:00000508       __acrt_locale_terminator   0000000180050508     libucrt:locale_initializer.obj
 0002:00000510       __dcrt_console_output_terminator 0000000180050510     libucrt:console_output_initializer.obj
 0002:00000518       __acrt_stdio_terminator    0000000180050518     libucrt:stdio_initializer.obj
 0002:00000520       __xp_z                     0000000180050520     LIBCMT:initializers.obj
 0002:00000528       __xt_a                     0000000180050528     LIBCMT:initializers.obj
 0002:00000530       __xt_z                     0000000180050530     LIBCMT:initializers.obj
 0002:00000540       __sz_node_exe              0000000180050540     node:node.exe
 0002:00000620       ??_7_Facet_base@std@@6B@   0000000180050620     libcpmt:locale0.obj
 0002:00000640       ??_7_Locimp@locale@std@@6B@ 0000000180050640     libcpmt:locale0.obj
 0002:00000658       ??_C@_01NBENCBCI@?$CK?$AA@ 0000000180050658     libcpmt:locale0.obj
 0002:0000065c       ??_C@_01GFHCPBMG@C?$AA@    000000018005065c     libcpmt:locale0.obj
 0002:00000668       ??_7exception@std@@6B@     0000000180050668     libcpmt:xthrow.obj
 0002:00000678       ??_C@_0BC@EOODALEL@Unknown?5exception?$AA@ 0000000180050678     libcpmt:xthrow.obj
 0002:00000698       ??_7bad_alloc@std@@6B@     0000000180050698     libcpmt:xthrow.obj
 0002:000006a8       ??_C@_0P@GHFPNOJB@bad?5allocation?$AA@ 00000001800506a8     libcpmt:xthrow.obj
 0002:000006c0       ??_7logic_error@std@@6B@   00000001800506c0     libcpmt:xthrow.obj
 0002:000006d8       ??_7length_error@std@@6B@  00000001800506d8     libcpmt:xthrow.obj
 0002:000006f0       ??_7out_of_range@std@@6B@  00000001800506f0     libcpmt:xthrow.obj
 0002:00000708       ??_7runtime_error@std@@6B@ 0000000180050708     libcpmt:xthrow.obj
 0002:00000718       ?_BADOFF@std@@3_JB         0000000180050718     libcpmt:ios.obj
 0002:00000e50       ??_C@_0BN@LKKBCCDB@address?5family?5not?5supported?$AA@ 0000000180050e50     libcpmt:syserror.obj
 0002:00000e70       ??_C@_0P@LDMLAFHI@address?5in?5use?$AA@ 0000000180050e70     libcpmt:syserror.obj
 0002:00000e80       ??_C@_0BG@DHPCNBJB@address?5not?5available?$AA@ 0000000180050e80     libcpmt:syserror.obj
 0002:00000e98       ??_C@_0BC@DFIBIBIL@already?5connected?$AA@ 0000000180050e98     libcpmt:syserror.obj
 0002:00000eb0       ??_C@_0BH@CAKOHOMI@argument?5list?5too?5long?$AA@ 0000000180050eb0     libcpmt:syserror.obj
 0002:00000ec8       ??_C@_0BH@CGIMPKIM@argument?5out?5of?5domain?$AA@ 0000000180050ec8     libcpmt:syserror.obj
 0002:00000ee0       ??_C@_0M@KGHGGJGL@bad?5address?$AA@ 0000000180050ee0     libcpmt:syserror.obj
 0002:00000ef0       ??_C@_0BE@MPJPGCEO@bad?5file?5descriptor?$AA@ 0000000180050ef0     libcpmt:syserror.obj
 0002:00000f08       ??_C@_0M@PMMIEFCP@bad?5message?$AA@ 0000000180050f08     libcpmt:syserror.obj
 0002:00000f18       ??_C@_0M@KPHOFDBE@broken?5pipe?$AA@ 0000000180050f18     libcpmt:syserror.obj
 0002:00000f28       ??_C@_0BD@MGNDDEGM@connection?5aborted?$AA@ 0000000180050f28     libcpmt:syserror.obj
 0002:00000f40       ??_C@_0BP@KAIHPOGN@connection?5already?5in?5progress?$AA@ 0000000180050f40     libcpmt:syserror.obj
 0002:00000f60       ??_C@_0BD@PJLIIJEL@connection?5refused?$AA@ 0000000180050f60     libcpmt:syserror.obj
 0002:00000f78       ??_C@_0BB@IECNJNOI@connection?5reset?$AA@ 0000000180050f78     libcpmt:syserror.obj
 0002:00000f90       ??_C@_0BC@PPHBOELF@cross?5device?5link?$AA@ 0000000180050f90     libcpmt:syserror.obj
 0002:00000fa8       ??_C@_0BN@KDMIFEIP@destination?5address?5required?$AA@ 0000000180050fa8     libcpmt:syserror.obj
 0002:00000fc8       ??_C@_0BI@NGCEHDD@device?5or?5resource?5busy?$AA@ 0000000180050fc8     libcpmt:syserror.obj
 0002:00000fe0       ??_C@_0BE@JIDOCPHM@directory?5not?5empty?$AA@ 0000000180050fe0     libcpmt:syserror.obj
 0002:00000ff8       ??_C@_0BI@BNCLIGPB@executable?5format?5error?$AA@ 0000000180050ff8     libcpmt:syserror.obj
 0002:00001010       ??_C@_0M@MIDIAGJP@file?5exists?$AA@ 0000000180051010     libcpmt:syserror.obj
 0002:00001020       ??_C@_0P@DNAJLBJK@file?5too?5large?$AA@ 0000000180051020     libcpmt:syserror.obj
 0002:00001030       ??_C@_0BC@EJHOMAAK@filename?5too?5long?$AA@ 0000000180051030     libcpmt:syserror.obj
 0002:00001048       ??_C@_0BH@KEFGLDAF@function?5not?5supported?$AA@ 0000000180051048     libcpmt:syserror.obj
 0002:00001060       ??_C@_0BB@DHFDFGDM@host?5unreachable?$AA@ 0000000180051060     libcpmt:syserror.obj
 0002:00001078       ??_C@_0BD@JPHBMONG@identifier?5removed?$AA@ 0000000180051078     libcpmt:syserror.obj
 0002:00001090       ??_C@_0BG@CDNPAGJK@illegal?5byte?5sequence?$AA@ 0000000180051090     libcpmt:syserror.obj
 0002:000010a8       ??_C@_0CD@BNPLBMNA@inappropriate?5io?5control?5operati@ 00000001800510a8     libcpmt:syserror.obj
 0002:000010d0       ??_C@_0M@EGEKIIMP@interrupted?$AA@ 00000001800510d0     libcpmt:syserror.obj
 0002:000010e0       ??_C@_0BB@FCMFBGOM@invalid?5argument?$AA@ 00000001800510e0     libcpmt:syserror.obj
 0002:000010f8       ??_C@_0N@OHAFKDEK@invalid?5seek?$AA@ 00000001800510f8     libcpmt:syserror.obj
 0002:00001108       ??_C@_08GLNPIFBN@io?5error?$AA@ 0000000180051108     libcpmt:syserror.obj
 0002:00001118       ??_C@_0P@FLLDBIDK@is?5a?5directory?$AA@ 0000000180051118     libcpmt:syserror.obj
 0002:00001128       ??_C@_0N@IFLPBIOP@message?5size?$AA@ 0000000180051128     libcpmt:syserror.obj
 0002:00001138       ??_C@_0N@KIIEAAIO@network?5down?$AA@ 0000000180051138     libcpmt:syserror.obj
 0002:00001148       ??_C@_0O@FNPDBHEE@network?5reset?$AA@ 0000000180051148     libcpmt:syserror.obj
 0002:00001158       ??_C@_0BE@IFNCKGE@network?5unreachable?$AA@ 0000000180051158     libcpmt:syserror.obj
 0002:00001170       ??_C@_0BA@PFFCAOFK@no?5buffer?5space?$AA@ 0000000180051170     libcpmt:syserror.obj
 0002:00001180       ??_C@_0BB@IEPBLJHK@no?5child?5process?$AA@ 0000000180051180     libcpmt:syserror.obj
 0002:00001198       ??_C@_07PLECNNKG@no?5link?$AA@ 0000000180051198     libcpmt:syserror.obj
 0002:000011a0       ??_C@_0BC@NJECKMKE@no?5lock?5available?$AA@ 00000001800511a0     libcpmt:syserror.obj
 0002:000011b8       ??_C@_0BF@PBGGPKKE@no?5message?5available?$AA@ 00000001800511b8     libcpmt:syserror.obj
 0002:000011d0       ??_C@_0L@EDOLMPAK@no?5message?$AA@ 00000001800511d0     libcpmt:syserror.obj
 0002:000011e0       ??_C@_0BD@EAMBFIDF@no?5protocol?5option?$AA@ 00000001800511e0     libcpmt:syserror.obj
 0002:000011f8       ??_C@_0BD@IJDJKDEA@no?5space?5on?5device?$AA@ 00000001800511f8     libcpmt:syserror.obj
 0002:00001210       ??_C@_0BE@MKFDAFMP@no?5stream?5resources?$AA@ 0000000180051210     libcpmt:syserror.obj
 0002:00001228       ??_C@_0BK@IMCPHCBI@no?5such?5device?5or?5address?$AA@ 0000000180051228     libcpmt:syserror.obj
 0002:00001248       ??_C@_0P@FDINDDOK@no?5such?5device?$AA@ 0000000180051248     libcpmt:syserror.obj
 0002:00001258       ??_C@_0BK@NDOCBPGE@no?5such?5file?5or?5directory?$AA@ 0000000180051258     libcpmt:syserror.obj
 0002:00001278       ??_C@_0BA@ENLPPKBN@no?5such?5process?$AA@ 0000000180051278     libcpmt:syserror.obj
 0002:00001288       ??_C@_0BA@DOCPFFJG@not?5a?5directory?$AA@ 0000000180051288     libcpmt:syserror.obj
 0002:00001298       ??_C@_0N@POEIPGGF@not?5a?5socket?$AA@ 0000000180051298     libcpmt:syserror.obj
 0002:000012a8       ??_C@_0N@LGAPMMPI@not?5a?5stream?$AA@ 00000001800512a8     libcpmt:syserror.obj
 0002:000012b8       ??_C@_0O@GLMIBBEG@not?5connected?$AA@ 00000001800512b8     libcpmt:syserror.obj
 0002:000012c8       ??_C@_0BC@ENOOLCNF@not?5enough?5memory?$AA@ 00000001800512c8     libcpmt:syserror.obj
 0002:000012e0       ??_C@_0O@NHEDABJP@not?5supported?$AA@ 00000001800512e0     libcpmt:syserror.obj
 0002:000012f0       ??_C@_0BD@MOLBPMEA@operation?5canceled?$AA@ 00000001800512f0     libcpmt:syserror.obj
 0002:00001308       ??_C@_0BG@KDKHOPCO@operation?5in?5progress?$AA@ 0000000180051308     libcpmt:syserror.obj
 0002:00001320       ??_C@_0BI@OHIEJAAB@operation?5not?5permitted?$AA@ 0000000180051320     libcpmt:syserror.obj
 0002:00001338       ??_C@_0BI@LNEGIFLN@operation?5not?5supported?$AA@ 0000000180051338     libcpmt:syserror.obj
 0002:00001350       ??_C@_0BG@OEMDKMEE@operation?5would?5block?$AA@ 0000000180051350     libcpmt:syserror.obj
 0002:00001368       ??_C@_0L@BLPOFLNJ@owner?5dead?$AA@ 0000000180051368     libcpmt:syserror.obj
 0002:00001378       ??_C@_0BC@CIJDGCDI@permission?5denied?$AA@ 0000000180051378     libcpmt:syserror.obj
 0002:00001390       ??_C@_0P@FNPOCJBE@protocol?5error?$AA@ 0000000180051390     libcpmt:syserror.obj
 0002:000013a0       ??_C@_0BH@JPPPLHJB@protocol?5not?5supported?$AA@ 00000001800513a0     libcpmt:syserror.obj
 0002:000013b8       ??_C@_0BG@EICBIHDP@read?5only?5file?5system?$AA@ 00000001800513b8     libcpmt:syserror.obj
 0002:000013d0       ??_C@_0BO@BJBOMOEJ@resource?5deadlock?5would?5occur?$AA@ 00000001800513d0     libcpmt:syserror.obj
 0002:000013f0       ??_C@_0BP@LKNGHENJ@resource?5unavailable?5try?5again?$AA@ 00000001800513f0     libcpmt:syserror.obj
 0002:00001410       ??_C@_0BE@GOIPJJHG@result?5out?5of?5range?$AA@ 0000000180051410     libcpmt:syserror.obj
 0002:00001428       ??_C@_0BG@MPLKFPAE@state?5not?5recoverable?$AA@ 0000000180051428     libcpmt:syserror.obj
 0002:00001440       ??_C@_0P@DIIFGFCG@stream?5timeout?$AA@ 0000000180051440     libcpmt:syserror.obj
 0002:00001450       ??_C@_0P@IPFDMIFL@text?5file?5busy?$AA@ 0000000180051450     libcpmt:syserror.obj
 0002:00001460       ??_C@_09KJPPMAOI@timed?5out?$AA@ 0000000180051460     libcpmt:syserror.obj
 0002:00001470       ??_C@_0BO@HACHBEKI@too?5many?5files?5open?5in?5system?$AA@ 0000000180051470     libcpmt:syserror.obj
 0002:00001490       ??_C@_0BE@GHAFMPAH@too?5many?5files?5open?$AA@ 0000000180051490     libcpmt:syserror.obj
 0002:000014a8       ??_C@_0P@HCOMKFCC@too?5many?5links?$AA@ 00000001800514a8     libcpmt:syserror.obj
 0002:000014b8       ??_C@_0BO@EFGOJEF@too?5many?5symbolic?5link?5levels?$AA@ 00000001800514b8     libcpmt:syserror.obj
 0002:000014d8       ??_C@_0BA@KGKGOOJA@value?5too?5large?$AA@ 00000001800514d8     libcpmt:syserror.obj
 0002:000014e8       ??_C@_0BE@MIEJDDNH@wrong?5protocol?5type?$AA@ 00000001800514e8     libcpmt:syserror.obj
 0002:00001500       ??_C@_0O@BFJCFAAK@unknown?5error?$AA@ 0000000180051500     libcpmt:syserror.obj
 0002:00001540       ??_7?$ctype@D@std@@6B@     0000000180051540     libcpmt:locale.obj
 0002:000015a0       ??_7?$num_put@DV?$ostreambuf_iterator@DU?$char_traits@D@std@@@std@@@std@@6B@ 00000001800515a0     libcpmt:locale.obj
 0002:00001600       ??_7?$numpunct@D@std@@6B@  0000000180051600     libcpmt:locale.obj
 0002:00001640       ??_C@_1BK@MGMFAEKH@?$AAk?$AAe?$AAr?$AAn?$AAe?$AAl?$AA3?$AA2?$AA?4?$AAd?$AAl?$AAl?$AA?$AA@ 0000000180051640     libcpmt:winapisupp.obj
 0002:00001660       ??_C@_08KNHFBNJ@FlsAlloc?$AA@ 0000000180051660     libcpmt:winapisupp.obj
 0002:00001670       ??_C@_07PEJMOBNF@FlsFree?$AA@ 0000000180051670     libcpmt:winapisupp.obj
 0002:00001678       ??_C@_0M@GDNOONDI@FlsGetValue?$AA@ 0000000180051678     libcpmt:winapisupp.obj
 0002:00001688       ??_C@_0M@JCPCPOEF@FlsSetValue?$AA@ 0000000180051688     libcpmt:winapisupp.obj
 0002:00001698       ??_C@_0BM@HCFOFFN@InitializeCriticalSectionEx?$AA@ 0000000180051698     libcpmt:winapisupp.obj
 0002:000016b8       ??_C@_0BE@GPLMMCMH@InitOnceExecuteOnce?$AA@ 00000001800516b8     libcpmt:winapisupp.obj
 0002:000016d0       ??_C@_0P@DLHPPCNH@CreateEventExW?$AA@ 00000001800516d0     libcpmt:winapisupp.obj
 0002:000016e0       ??_C@_0BB@MEFPJLHN@CreateSemaphoreW?$AA@ 00000001800516e0     libcpmt:winapisupp.obj
 0002:000016f8       ??_C@_0BD@KIEEOEEH@CreateSemaphoreExW?$AA@ 00000001800516f8     libcpmt:winapisupp.obj
 0002:00001710       ??_C@_0BG@OGFAJCKC@CreateThreadpoolTimer?$AA@ 0000000180051710     libcpmt:winapisupp.obj
 0002:00001728       ??_C@_0BD@LPLEMMDI@SetThreadpoolTimer?$AA@ 0000000180051728     libcpmt:winapisupp.obj
 0002:00001740       ??_C@_0CA@FMNJENH@WaitForThreadpoolTimerCallbacks?$AA@ 0000000180051740     libcpmt:winapisupp.obj
 0002:00001760       ??_C@_0BF@DCFCCNOC@CloseThreadpoolTimer?$AA@ 0000000180051760     libcpmt:winapisupp.obj
 0002:00001778       ??_C@_0BF@FLABGKKM@CreateThreadpoolWait?$AA@ 0000000180051778     libcpmt:winapisupp.obj
 0002:00001790       ??_C@_0BC@MGCOHNA@SetThreadpoolWait?$AA@ 0000000180051790     libcpmt:winapisupp.obj
 0002:000017a8       ??_C@_0BE@OCIOMIMP@CloseThreadpoolWait?$AA@ 00000001800517a8     libcpmt:winapisupp.obj
 0002:000017c0       ??_C@_0BJ@LKGHFHBO@FlushProcessWriteBuffers?$AA@ 00000001800517c0     libcpmt:winapisupp.obj
 0002:000017e0       ??_C@_0BP@KALKKPMO@FreeLibraryWhenCallbackReturns?$AA@ 00000001800517e0     libcpmt:winapisupp.obj
 0002:00001800       ??_C@_0BK@DFNBACLA@GetCurrentProcessorNumber?$AA@ 0000000180051800     libcpmt:winapisupp.obj
 0002:00001820       ??_C@_0BE@FKKLLFLM@CreateSymbolicLinkW?$AA@ 0000000180051820     libcpmt:winapisupp.obj
 0002:00001838       ??_C@_0BE@JOGNEJCI@GetCurrentPackageId?$AA@ 0000000180051838     libcpmt:winapisupp.obj
 0002:00001850       ??_C@_0P@CDHHOHKP@GetTickCount64?$AA@ 0000000180051850     libcpmt:winapisupp.obj
 0002:00001860       ??_C@_0BN@NEEHBBPO@GetFileInformationByHandleEx?$AA@ 0000000180051860     libcpmt:winapisupp.obj
 0002:00001880       ??_C@_0BL@KBBHGKCM@SetFileInformationByHandle?$AA@ 0000000180051880     libcpmt:winapisupp.obj
 0002:000018a0       ??_C@_0BP@FPNJPEJC@GetSystemTimePreciseAsFileTime?$AA@ 00000001800518a0     libcpmt:winapisupp.obj
 0002:000018c0       ??_C@_0BM@HLJJNPAH@InitializeConditionVariable?$AA@ 00000001800518c0     libcpmt:winapisupp.obj
 0002:000018e0       ??_C@_0BG@BFNILBLN@WakeConditionVariable?$AA@ 00000001800518e0     libcpmt:winapisupp.obj
 0002:000018f8       ??_C@_0BJ@PGPPEPCC@WakeAllConditionVariable?$AA@ 00000001800518f8     libcpmt:winapisupp.obj
 0002:00001918       ??_C@_0BJ@JEBJOJFJ@SleepConditionVariableCS?$AA@ 0000000180051918     libcpmt:winapisupp.obj
 0002:00001938       ??_C@_0BC@MMLHEBPB@InitializeSRWLock?$AA@ 0000000180051938     libcpmt:winapisupp.obj
 0002:00001950       ??_C@_0BI@OMNLIJDB@AcquireSRWLockExclusive?$AA@ 0000000180051950     libcpmt:winapisupp.obj
 0002:00001968       ??_C@_0BL@OGHFEMNA@TryAcquireSRWLockExclusive?$AA@ 0000000180051968     libcpmt:winapisupp.obj
 0002:00001988       ??_C@_0BI@HMIEPCNJ@ReleaseSRWLockExclusive?$AA@ 0000000180051988     libcpmt:winapisupp.obj
 0002:000019a0       ??_C@_0BK@LGACAGIC@SleepConditionVariableSRW?$AA@ 00000001800519a0     libcpmt:winapisupp.obj
 0002:000019c0       ??_C@_0BF@GGPHFPJA@CreateThreadpoolWork?$AA@ 00000001800519c0     libcpmt:winapisupp.obj
 0002:000019d8       ??_C@_0BF@NHDAIMMO@SubmitThreadpoolWork?$AA@ 00000001800519d8     libcpmt:winapisupp.obj
 0002:000019f0       ??_C@_0BE@NPHIPNPD@CloseThreadpoolWork?$AA@ 00000001800519f0     libcpmt:winapisupp.obj
 0002:00001a08       ??_C@_0BA@IHGNDAEB@CompareStringEx?$AA@ 0000000180051a08     libcpmt:winapisupp.obj
 0002:00001a18       ??_C@_0BA@ONOKGCMP@GetLocaleInfoEx?$AA@ 0000000180051a18     libcpmt:winapisupp.obj
 0002:00001a28       ??_C@_0O@KKBNKAPF@LCMapStringEx?$AA@ 0000000180051a28     libcpmt:winapisupp.obj
 0002:00001a38       ??_C@_11LOCGONAA@?$AA?$AA@ 0000000180051a38     libcpmt:wlocale.obj
 0002:00001a40       __xmm@80000000000000008000000000000000 0000000180051a40     libcpmt:wlocale.obj
 0002:00001af0       ??_C@_1M@JKFFICHJ@?$AAe?$AAs?$AA?9?$AAv?$AAe?$AA?$AA@ 0000000180051af0     libcpmt:winapinls.obj
 0002:00001b00       ??_C@_1M@PNMLOJDF@?$AAe?$AAt?$AA?9?$AAe?$AAe?$AA?$AA@ 0000000180051b00     libcpmt:winapinls.obj
 0002:00001b10       ??_C@_1M@GHHLIKEI@?$AAe?$AAu?$AA?9?$AAe?$AAs?$AA?$AA@ 0000000180051b10     libcpmt:winapinls.obj
 0002:00001b20       ??_C@_1M@PBNONODE@?$AAf?$AAa?$AA?9?$AAi?$AAr?$AA?$AA@ 0000000180051b20     libcpmt:winapinls.obj
 0002:00001b30       ??_C@_1M@JEEHPMIL@?$AAf?$AAi?$AA?9?$AAf?$AAi?$AA?$AA@ 0000000180051b30     libcpmt:winapinls.obj
 0002:00001b40       ??_C@_1M@LMDCNDBA@?$AAf?$AAo?$AA?9?$AAf?$AAo?$AA?$AA@ 0000000180051b40     libcpmt:winapinls.obj
 0002:00001b50       ??_C@_1M@JKEOHLDK@?$AAf?$AAr?$AA?9?$AAb?$AAe?$AA?$AA@ 0000000180051b50     libcpmt:winapinls.obj
 0002:00001b60       ??_C@_1M@NOHADPMI@?$AAf?$AAr?$AA?9?$AAc?$AAa?$AA?$AA@ 0000000180051b60     libcpmt:winapinls.obj
 0002:00001b70       ??_C@_1M@KDHIHAEC@?$AAf?$AAr?$AA?9?$AAc?$AAh?$AA?$AA@ 0000000180051b70     libcpmt:winapinls.obj
 0002:00001b80       ??_C@_1M@MMBBFGAK@?$AAf?$AAr?$AA?9?$AAf?$AAr?$AA?$AA@ 0000000180051b80     libcpmt:winapinls.obj
 0002:00001b90       ??_C@_1M@PAFNENNF@?$AAf?$AAr?$AA?9?$AAl?$AAu?$AA?$AA@ 0000000180051b90     libcpmt:winapinls.obj
 0002:00001ba0       ??_C@_1M@EOHDJGDD@?$AAf?$AAr?$AA?9?$AAm?$AAc?$AA?$AA@ 0000000180051ba0     libcpmt:winapinls.obj
 0002:00001bb0       ??_C@_1M@FAPLLOPF@?$AAg?$AAl?$AA?9?$AAe?$AAs?$AA?$AA@ 0000000180051bb0     libcpmt:winapinls.obj
 0002:00001bc0       ??_C@_1M@FOPBFLOO@?$AAg?$AAu?$AA?9?$AAi?$AAn?$AA?$AA@ 0000000180051bc0     libcpmt:winapinls.obj
 0002:00001bd0       ??_C@_1M@KBMCINPM@?$AAh?$AAe?$AA?9?$AAi?$AAl?$AA?$AA@ 0000000180051bd0     libcpmt:winapinls.obj
 0002:00001be0       ??_C@_1M@BBPHKFPJ@?$AAh?$AAi?$AA?9?$AAi?$AAn?$AA?$AA@ 0000000180051be0     libcpmt:winapinls.obj
 0002:00001bf0       ??_C@_1M@PMBNDPHD@?$AAh?$AAr?$AA?9?$AAb?$AAa?$AA?$AA@ 0000000180051bf0     libcpmt:winapinls.obj
 0002:00001c00       ??_C@_1M@BPCKOEGE@?$AAh?$AAr?$AA?9?$AAh?$AAr?$AA?$AA@ 0000000180051c00     libcpmt:winapinls.obj
 0002:00001c10       ??_C@_1M@GACBMHKE@?$AAh?$AAu?$AA?9?$AAh?$AAu?$AA?$AA@ 0000000180051c10     libcpmt:winapinls.obj
 0002:00001c20       ??_C@_1M@MILPAJJC@?$AAh?$AAy?$AA?9?$AAa?$AAm?$AA?$AA@ 0000000180051c20     libcpmt:winapinls.obj
 0002:00001c30       ??_C@_1M@BABBICEC@?$AAi?$AAd?$AA?9?$AAi?$AAd?$AA?$AA@ 0000000180051c30     libcpmt:winapinls.obj
 0002:00001c40       ??_C@_1M@BIKNHHPF@?$AAi?$AAs?$AA?9?$AAi?$AAs?$AA?$AA@ 0000000180051c40     libcpmt:winapinls.obj
 0002:00001c50       ??_C@_1M@NMPCJPHE@?$AAi?$AAt?$AA?9?$AAc?$AAh?$AA?$AA@ 0000000180051c50     libcpmt:winapinls.obj
 0002:00001c60       ??_C@_1M@GHKGFEDF@?$AAi?$AAt?$AA?9?$AAi?$AAt?$AA?$AA@ 0000000180051c60     libcpmt:winapinls.obj
 0002:00001c70       ??_C@_1M@NIEJCJJA@?$AAj?$AAa?$AA?9?$AAj?$AAp?$AA?$AA@ 0000000180051c70     libcpmt:winapinls.obj
 0002:00001c80       ??_C@_1M@JILFNBIM@?$AAk?$AAa?$AA?9?$AAg?$AAe?$AA?$AA@ 0000000180051c80     libcpmt:winapinls.obj
 0002:00001c90       ??_C@_1M@PACPMGPH@?$AAk?$AAk?$AA?9?$AAk?$AAz?$AA?$AA@ 0000000180051c90     libcpmt:winapinls.obj
 0002:00001ca0       ??_C@_1M@IELFGMHA@?$AAk?$AAn?$AA?9?$AAi?$AAn?$AA?$AA@ 0000000180051ca0     libcpmt:winapinls.obj
 0002:00001cb0       ??_C@_1M@DMHAEOGC@?$AAk?$AAo?$AA?9?$AAk?$AAr?$AA?$AA@ 0000000180051cb0     libcpmt:winapinls.obj
 0002:00001cc0       ??_C@_1O@IBBJHCH@?$AAk?$AAo?$AAk?$AA?9?$AAi?$AAn?$AA?$AA@ 0000000180051cc0     libcpmt:winapinls.obj
 0002:00001cd0       ??_C@_1M@HBAHBIGA@?$AAk?$AAy?$AA?9?$AAk?$AAg?$AA?$AA@ 0000000180051cd0     libcpmt:winapinls.obj
 0002:00001ce0       ??_C@_1M@KPMILCJG@?$AAl?$AAt?$AA?9?$AAl?$AAt?$AA?$AA@ 0000000180051ce0     libcpmt:winapinls.obj
 0002:00001cf0       ??_C@_1M@BDEKKCA@?$AAl?$AAv?$AA?9?$AAl?$AAv?$AA?$AA@ 0000000180051cf0     libcpmt:winapinls.obj
 0002:00001d00       ??_C@_1M@ELCKCCJJ@?$AAm?$AAi?$AA?9?$AAn?$AAz?$AA?$AA@ 0000000180051d00     libcpmt:winapinls.obj
 0002:00001d10       ??_C@_1M@CBOOLAPA@?$AAm?$AAk?$AA?9?$AAm?$AAk?$AA?$AA@ 0000000180051d10     libcpmt:winapinls.obj
 0002:00001d20       ??_C@_1M@GPHNBJKN@?$AAm?$AAl?$AA?9?$AAi?$AAn?$AA?$AA@ 0000000180051d20     libcpmt:winapinls.obj
 0002:00001d30       ??_C@_1M@PABJILIG@?$AAm?$AAn?$AA?9?$AAm?$AAn?$AA?$AA@ 0000000180051d30     libcpmt:winapinls.obj
 0002:00001d40       ??_C@_1M@FGBKKIPG@?$AAm?$AAr?$AA?9?$AAi?$AAn?$AA?$AA@ 0000000180051d40     libcpmt:winapinls.obj
 0002:00001d50       ??_C@_1M@NDBPDDAL@?$AAm?$AAs?$AA?9?$AAb?$AAn?$AA?$AA@ 0000000180051d50     libcpmt:winapinls.obj
 0002:00001d60       ??_C@_1M@OPIHOOPI@?$AAm?$AAs?$AA?9?$AAm?$AAy?$AA?$AA@ 0000000180051d60     libcpmt:winapinls.obj
 0002:00001d70       ??_C@_1M@PPDBCNFM@?$AAm?$AAt?$AA?9?$AAm?$AAt?$AA?$AA@ 0000000180051d70     libcpmt:winapinls.obj
 0002:00001d80       ??_C@_1M@KDJDKMDD@?$AAn?$AAb?$AA?9?$AAn?$AAo?$AA?$AA@ 0000000180051d80     libcpmt:winapinls.obj
 0002:00001d90       ??_C@_1M@KFCFLMJP@?$AAn?$AAl?$AA?9?$AAb?$AAe?$AA?$AA@ 0000000180051d90     libcpmt:winapinls.obj
 0002:00001da0       ??_C@_1M@KPOPDDGO@?$AAn?$AAl?$AA?9?$AAn?$AAl?$AA?$AA@ 0000000180051da0     libcpmt:winapinls.obj
 0002:00001db0       ??_C@_1M@LJKPEMLN@?$AAn?$AAn?$AA?9?$AAn?$AAo?$AA?$AA@ 0000000180051db0     libcpmt:winapinls.obj
 0002:00001dc0       ??_C@_1M@BDGHHBFL@?$AAn?$AAs?$AA?9?$AAz?$AAa?$AA?$AA@ 0000000180051dc0     libcpmt:winapinls.obj
 0002:00001dd0       ??_C@_1M@IDEHOAP@?$AAp?$AAa?$AA?9?$AAi?$AAn?$AA?$AA@ 0000000180051dd0     libcpmt:winapinls.obj
 0002:00001de0       ??_C@_1M@HDBKGOGH@?$AAp?$AAl?$AA?9?$AAp?$AAl?$AA?$AA@ 0000000180051de0     libcpmt:winapinls.obj
 0002:00001df0       ??_C@_1M@LJLLCMEH@?$AAp?$AAt?$AA?9?$AAb?$AAr?$AA?$AA@ 0000000180051df0     libcpmt:winapinls.obj
 0002:00001e00       ??_C@_1M@NCMONAAL@?$AAp?$AAt?$AA?9?$AAp?$AAt?$AA?$AA@ 0000000180051e00     libcpmt:winapinls.obj
 0002:00001e10       ??_C@_1O@EAKMAJDN@?$AAq?$AAu?$AAz?$AA?9?$AAb?$AAo?$AA?$AA@ 0000000180051e10     libcpmt:winapinls.obj
 0002:00001e20       ??_C@_1O@BHHPIGDN@?$AAq?$AAu?$AAz?$AA?9?$AAe?$AAc?$AA?$AA@ 0000000180051e20     libcpmt:winapinls.obj
 0002:00001e30       ??_C@_1O@GBAPEKMJ@?$AAq?$AAu?$AAz?$AA?9?$AAp?$AAe?$AA?$AA@ 0000000180051e30     libcpmt:winapinls.obj
 0002:00001e40       ??_C@_1M@CLGLEFBO@?$AAr?$AAo?$AA?9?$AAr?$AAo?$AA?$AA@ 0000000180051e40     libcpmt:winapinls.obj
 0002:00001e50       ??_C@_1M@CEEDODME@?$AAr?$AAu?$AA?9?$AAr?$AAu?$AA?$AA@ 0000000180051e50     libcpmt:winapinls.obj
 0002:00001e60       ??_C@_1M@HPKKKMPP@?$AAs?$AAa?$AA?9?$AAi?$AAn?$AA?$AA@ 0000000180051e60     libcpmt:winapinls.obj
 0002:00001e70       ??_C@_1M@BKMAIGOJ@?$AAs?$AAe?$AA?9?$AAf?$AAi?$AA?$AA@ 0000000180051e70     libcpmt:winapinls.obj
 0002:00001e80       ??_C@_1M@NDPIFLFI@?$AAs?$AAe?$AA?9?$AAn?$AAo?$AA?$AA@ 0000000180051e80     libcpmt:winapinls.obj
 0002:00001e90       ??_C@_1M@DANKKHJ@?$AAs?$AAe?$AA?9?$AAs?$AAe?$AA?$AA@ 0000000180051e90     libcpmt:winapinls.obj
 0002:00001ea0       ??_C@_1M@PNBLONPJ@?$AAs?$AAk?$AA?9?$AAs?$AAk?$AA?$AA@ 0000000180051ea0     libcpmt:winapinls.obj
 0002:00001eb0       ??_C@_1M@LFMODOAL@?$AAs?$AAl?$AA?9?$AAs?$AAi?$AA?$AA@ 0000000180051eb0     libcpmt:winapinls.obj
 0002:00001ec0       ??_C@_1O@DFKOMPG@?$AAs?$AAm?$AAa?$AA?9?$AAn?$AAo?$AA?$AA@ 0000000180051ec0     libcpmt:winapinls.obj
 0002:00001ed0       ??_C@_1O@NDKPBNNH@?$AAs?$AAm?$AAa?$AA?9?$AAs?$AAe?$AA?$AA@ 0000000180051ed0     libcpmt:winapinls.obj
 0002:00001ee0       ??_C@_1O@PLLKBHAB@?$AAs?$AAm?$AAj?$AA?9?$AAn?$AAo?$AA?$AA@ 0000000180051ee0     libcpmt:winapinls.obj
 0002:00001ef0       ??_C@_1O@CLEPOGCA@?$AAs?$AAm?$AAj?$AA?9?$AAs?$AAe?$AA?$AA@ 0000000180051ef0     libcpmt:winapinls.obj
 0002:00001f00       ??_C@_1O@DLGJGKMK@?$AAs?$AAm?$AAn?$AA?9?$AAf?$AAi?$AA?$AA@ 0000000180051f00     libcpmt:winapinls.obj
 0002:00001f10       ??_C@_1O@OJDJGAJC@?$AAs?$AAm?$AAs?$AA?9?$AAf?$AAi?$AA?$AA@ 0000000180051f10     libcpmt:winapinls.obj
 0002:00001f20       ??_C@_1M@BOFOGHPB@?$AAs?$AAq?$AA?9?$AAa?$AAl?$AA?$AA@ 0000000180051f20     libcpmt:winapinls.obj
 0002:00001f30       ??_C@_1BG@LJBBIPGB@?$AAs?$AAr?$AA?9?$AAb?$AAa?$AA?9?$AAc?$AAy?$AAr?$AAl?$AA?$AA@ 0000000180051f30     libcpmt:winapinls.obj
 0002:00001f48       ??_C@_1BG@JLBENFOE@?$AAs?$AAr?$AA?9?$AAb?$AAa?$AA?9?$AAl?$AAa?$AAt?$AAn?$AA?$AA@ 0000000180051f48     libcpmt:winapinls.obj
 0002:00001f60       ??_C@_1BG@KODPNHE@?$AAs?$AAr?$AA?9?$AAs?$AAp?$AA?9?$AAc?$AAy?$AAr?$AAl?$AA?$AA@ 0000000180051f60     libcpmt:winapinls.obj
 0002:00001f78       ??_C@_1BG@CIOGKHPB@?$AAs?$AAr?$AA?9?$AAs?$AAp?$AA?9?$AAl?$AAa?$AAt?$AAn?$AA?$AA@ 0000000180051f78     libcpmt:winapinls.obj
 0002:00001f90       ??_C@_1M@NGFJLMAC@?$AAs?$AAv?$AA?9?$AAf?$AAi?$AA?$AA@ 0000000180051f90     libcpmt:winapinls.obj
 0002:00001fa0       ??_C@_1M@MPJEJAJC@?$AAs?$AAv?$AA?9?$AAs?$AAe?$AA?$AA@ 0000000180051fa0     libcpmt:winapinls.obj
 0002:00001fb0       ??_C@_1M@MPNDHLFK@?$AAs?$AAw?$AA?9?$AAk?$AAe?$AA?$AA@ 0000000180051fb0     libcpmt:winapinls.obj
 0002:00001fc0       ??_C@_1O@KOHBJJI@?$AAs?$AAy?$AAr?$AA?9?$AAs?$AAy?$AA?$AA@ 0000000180051fc0     libcpmt:winapinls.obj
 0002:00001fd0       ??_C@_1M@LDCEFHA@?$AAt?$AAa?$AA?9?$AAi?$AAn?$AA?$AA@ 0000000180051fd0     libcpmt:winapinls.obj
 0002:00001fe0       ??_C@_1M@CNJOFAK@?$AAt?$AAe?$AA?9?$AAi?$AAn?$AA?$AA@ 0000000180051fe0     libcpmt:winapinls.obj
 0002:00001ff0       ??_C@_1M@GNAECACD@?$AAt?$AAh?$AA?9?$AAt?$AAh?$AA?$AA@ 0000000180051ff0     libcpmt:winapinls.obj
 0002:00002000       ??_C@_1M@CHBIHOJO@?$AAt?$AAn?$AA?9?$AAz?$AAa?$AA?$AA@ 0000000180052000     libcpmt:winapinls.obj
 0002:00002010       ??_C@_1M@GCCMIGPJ@?$AAt?$AAr?$AA?9?$AAt?$AAr?$AA?$AA@ 0000000180052010     libcpmt:winapinls.obj
 0002:00002020       ??_C@_1M@CELMCNBK@?$AAt?$AAt?$AA?9?$AAr?$AAu?$AA?$AA@ 0000000180052020     libcpmt:winapinls.obj
 0002:00002030       ??_C@_1M@KLMCELGA@?$AAu?$AAk?$AA?9?$AAu?$AAa?$AA?$AA@ 0000000180052030     libcpmt:winapinls.obj
 0002:00002040       ??_C@_1M@EPAJJAJF@?$AAu?$AAr?$AA?9?$AAp?$AAk?$AA?$AA@ 0000000180052040     libcpmt:winapinls.obj
 0002:00002050       ??_C@_1BG@GEGPMCDJ@?$AAu?$AAz?$AA?9?$AAu?$AAz?$AA?9?$AAc?$AAy?$AAr?$AAl?$AA?$AA@ 0000000180052050     libcpmt:winapinls.obj
 0002:00002068       ??_C@_1BG@EGGKJILM@?$AAu?$AAz?$AA?9?$AAu?$AAz?$AA?9?$AAl?$AAa?$AAt?$AAn?$AA?$AA@ 0000000180052068     libcpmt:winapinls.obj
 0002:00002080       ??_C@_1M@GFOCLFF@?$AAv?$AAi?$AA?9?$AAv?$AAn?$AA?$AA@ 0000000180052080     libcpmt:winapinls.obj
 0002:00002090       ??_C@_1M@CPAMEDFI@?$AAx?$AAh?$AA?9?$AAz?$AAa?$AA?$AA@ 0000000180052090     libcpmt:winapinls.obj
 0002:000020a0       ??_C@_1O@EBKIFIGN@?$AAz?$AAh?$AA?9?$AAc?$AAh?$AAs?$AA?$AA@ 00000001800520a0     libcpmt:winapinls.obj
 0002:000020b0       ??_C@_1O@NMHPGANE@?$AAz?$AAh?$AA?9?$AAc?$AAh?$AAt?$AA?$AA@ 00000001800520b0     libcpmt:winapinls.obj
 0002:000020c0       ??_C@_1M@LPINJOMC@?$AAz?$AAh?$AA?9?$AAc?$AAn?$AA?$AA@ 00000001800520c0     libcpmt:winapinls.obj
 0002:000020d0       ??_C@_1M@OCJEJODD@?$AAz?$AAh?$AA?9?$AAh?$AAk?$AA?$AA@ 00000001800520d0     libcpmt:winapinls.obj
 0002:000020e0       ??_C@_1M@DNDLJINH@?$AAz?$AAh?$AA?9?$AAm?$AAo?$AA?$AA@ 00000001800520e0     libcpmt:winapinls.obj
 0002:000020f0       ??_C@_1M@MBFDNDND@?$AAz?$AAh?$AA?9?$AAs?$AAg?$AA?$AA@ 00000001800520f0     libcpmt:winapinls.obj
 0002:00002100       ??_C@_1M@IMEPLEPE@?$AAz?$AAh?$AA?9?$AAt?$AAw?$AA?$AA@ 0000000180052100     libcpmt:winapinls.obj
 0002:00002110       ??_C@_1M@BBGHNHJP@?$AAz?$AAu?$AA?9?$AAz?$AAa?$AA?$AA@ 0000000180052110     libcpmt:winapinls.obj
 0002:00003da0       ??_C@_15EMKDOKLE@?$AAa?$AAr?$AA?$AA@ 0000000180053da0     libcpmt:winapinls.obj
 0002:00003da8       ??_C@_15KNPADPLH@?$AAb?$AAg?$AA?$AA@ 0000000180053da8     libcpmt:winapinls.obj
 0002:00003db0       ??_C@_15EDMHLDMO@?$AAc?$AAa?$AA?$AA@ 0000000180053db0     libcpmt:winapinls.obj
 0002:00003db8       ??_C@_1O@BPEAJADD@?$AAz?$AAh?$AA?9?$AAC?$AAH?$AAS?$AA?$AA@ 0000000180053db8     libcpmt:winapinls.obj
 0002:00003dc8       ??_C@_15LJNHCMNK@?$AAc?$AAs?$AA?$AA@ 0000000180053dc8     libcpmt:winapinls.obj
 0002:00003dd0       ??_C@_15FOMCIDHG@?$AAd?$AAa?$AA?$AA@ 0000000180053dd0     libcpmt:winapinls.obj
 0002:00003dd8       ??_C@_15NBKABECB@?$AAd?$AAe?$AA?$AA@ 0000000180053dd8     libcpmt:winapinls.obj
 0002:00003de0       ??_C@_15GHPEIIAO@?$AAe?$AAl?$AA?$AA@ 0000000180053de0     libcpmt:winapinls.obj
 0002:00003de8       ??_C@_15MNPNEAIF@?$AAe?$AAn?$AA?$AA@ 0000000180053de8     libcpmt:winapinls.obj
 0002:00003df0       ??_C@_15GPIOMPMH@?$AAe?$AAs?$AA?$AA@ 0000000180053df0     libcpmt:winapinls.obj
 0002:00003df8       ??_C@_15NGLOAKJC@?$AAf?$AAi?$AA?$AA@ 0000000180053df8     libcpmt:winapinls.obj
 0002:00003e00       ??_C@_15FBKGNKAM@?$AAf?$AAr?$AA?$AA@ 0000000180053e00     libcpmt:winapinls.obj
 0002:00003e08       ??_C@_15KGGCNEFK@?$AAh?$AAe?$AA?$AA@ 0000000180053e08     libcpmt:winapinls.obj
 0002:00003e10       ??_C@_15PGHLIDMF@?$AAh?$AAu?$AA?$AA@ 0000000180053e10     libcpmt:winapinls.obj
 0002:00003e18       ??_C@_15BIEMAPLM@?$AAi?$AAs?$AA?$AA@ 0000000180053e18     libcpmt:winapinls.obj
 0002:00003e20       ??_C@_15IFJLDHAF@?$AAi?$AAt?$AA?$AA@ 0000000180053e20     libcpmt:winapinls.obj
 0002:00003e28       ??_C@_15GEMIOCAG@?$AAj?$AAa?$AA?$AA@ 0000000180053e28     libcpmt:winapinls.obj
 0002:00003e30       ??_C@_15EPELEGJA@?$AAk?$AAo?$AA?$AA@ 0000000180053e30     libcpmt:winapinls.obj
 0002:00003e38       ??_C@_15NDDHIMN@?$AAn?$AAl?$AA?$AA@ 0000000180053e38     libcpmt:winapinls.obj
 0002:00003e40       ??_C@_15BPIGNHCD@?$AAn?$AAo?$AA?$AA@ 0000000180053e40     libcpmt:winapinls.obj
 0002:00003e48       ??_C@_15DEOPBLCG@?$AAp?$AAl?$AA?$AA@ 0000000180053e48     libcpmt:winapinls.obj
 0002:00003e50       ??_C@_15KBECGEFG@?$AAp?$AAt?$AA?$AA@ 0000000180053e50     libcpmt:winapinls.obj
 0002:00003e58       ??_C@_15GLJCBFMD@?$AAr?$AAo?$AA?$AA@ 0000000180053e58     libcpmt:winapinls.obj
 0002:00003e60       ??_C@_15FEDGKCDI@?$AAr?$AAu?$AA?$AA@ 0000000180053e60     libcpmt:winapinls.obj
 0002:00003e68       ??_C@_15GLKMLLHM@?$AAh?$AAr?$AA?$AA@ 0000000180053e68     libcpmt:winapinls.obj
 0002:00003e70       ??_C@_15CPKMFBDB@?$AAs?$AAk?$AA?$AA@ 0000000180053e70     libcpmt:winapinls.obj
 0002:00003e78       ??_C@_15BAAIOGMK@?$AAs?$AAq?$AA?$AA@ 0000000180053e78     libcpmt:winapinls.obj
 0002:00003e80       ??_C@_15INNPNOHD@?$AAs?$AAv?$AA?$AA@ 0000000180053e80     libcpmt:winapinls.obj
 0002:00003e88       ??_C@_15CABMMOGH@?$AAt?$AAh?$AA?$AA@ 0000000180053e88     libcpmt:winapinls.obj
 0002:00003e90       ??_C@_15BPLIHJJM@?$AAt?$AAr?$AA?$AA@ 0000000180053e90     libcpmt:winapinls.obj
 0002:00003e98       ??_C@_15NEOEKKDJ@?$AAu?$AAr?$AA?$AA@ 0000000180053e98     libcpmt:winapinls.obj
 0002:00003ea0       ??_C@_15NFICGAJK@?$AAi?$AAd?$AA?$AA@ 0000000180053ea0     libcpmt:winapinls.obj
 0002:00003ea8       ??_C@_15PJPFLCCM@?$AAu?$AAk?$AA?$AA@ 0000000180053ea8     libcpmt:winapinls.obj
 0002:00003eb0       ??_C@_15HPJPHDM@?$AAb?$AAe?$AA?$AA@ 0000000180053eb0     libcpmt:winapinls.obj
 0002:00003eb8       ??_C@_15LCHLGJII@?$AAs?$AAl?$AA?$AA@ 0000000180053eb8     libcpmt:winapinls.obj
 0002:00003ec0       ??_C@_15PCFJPHHO@?$AAe?$AAt?$AA?$AA@ 0000000180053ec0     libcpmt:winapinls.obj
 0002:00003ec8       ??_C@_15HPFPGODN@?$AAl?$AAv?$AA?$AA@ 0000000180053ec8     libcpmt:winapinls.obj
 0002:00003ed0       ??_C@_15NFFGKGLG@?$AAl?$AAt?$AA?$AA@ 0000000180053ed0     libcpmt:winapinls.obj
 0002:00003ed8       ??_C@_15BDAKCCHN@?$AAf?$AAa?$AA?$AA@ 0000000180053ed8     libcpmt:winapinls.obj
 0002:00003ee0       ??_C@_15NFGIAIAJ@?$AAv?$AAi?$AA?$AA@ 0000000180053ee0     libcpmt:winapinls.obj
 0002:00003ee8       ??_C@_15LMKNDMHN@?$AAh?$AAy?$AA?$AA@ 0000000180053ee8     libcpmt:winapinls.obj
 0002:00003ef0       ??_C@_15IJBHMCFL@?$AAa?$AAz?$AA?$AA@ 0000000180053ef0     libcpmt:winapinls.obj
 0002:00003ef8       ??_C@_15EKOFJABL@?$AAe?$AAu?$AA?$AA@ 0000000180053ef8     libcpmt:winapinls.obj
 0002:00003f00       ??_C@_15BGHADCNK@?$AAm?$AAk?$AA?$AA@ 0000000180053f00     libcpmt:winapinls.obj
 0002:00003f08       ??_C@_15JDNICKHM@?$AAa?$AAf?$AA?$AA@ 0000000180053f08     libcpmt:winapinls.obj
 0002:00003f10       ??_C@_15KPJEDBKD@?$AAk?$AAa?$AA?$AA@ 0000000180053f10     libcpmt:winapinls.obj
 0002:00003f18       ??_C@_15PDNFFFEO@?$AAf?$AAo?$AA?$AA@ 0000000180053f18     libcpmt:winapinls.obj
 0002:00003f20       ??_C@_15OMLEGLOC@?$AAh?$AAi?$AA?$AA@ 0000000180053f20     libcpmt:winapinls.obj
 0002:00003f28       ??_C@_15IDNNENKK@?$AAm?$AAs?$AA?$AA@ 0000000180053f28     libcpmt:winapinls.obj
 0002:00003f30       ??_C@_15MACJNBMH@?$AAk?$AAk?$AA?$AA@ 0000000180053f30     libcpmt:winapinls.obj
 0002:00003f38       ??_C@_15DKDJEOND@?$AAk?$AAy?$AA?$AA@ 0000000180053f38     libcpmt:winapinls.obj
 0002:00003f40       ??_C@_15DFGDLJBG@?$AAs?$AAw?$AA?$AA@ 0000000180053f40     libcpmt:winapinls.obj
 0002:00003f48       ??_C@_15BBFAICNG@?$AAu?$AAz?$AA?$AA@ 0000000180053f48     libcpmt:winapinls.obj
 0002:00003f50       ??_C@_15DKNDCGEA@?$AAt?$AAt?$AA?$AA@ 0000000180053f50     libcpmt:winapinls.obj
 0002:00003f58       ??_C@_15MGIFMDPL@?$AAp?$AAa?$AA?$AA@ 0000000180053f58     libcpmt:winapinls.obj
 0002:00003f60       ??_C@_15HCNDBBA@?$AAg?$AAu?$AA?$AA@ 0000000180053f60     libcpmt:winapinls.obj
 0002:00003f68       ??_C@_15FNBEIBON@?$AAt?$AAa?$AA?$AA@ 0000000180053f68     libcpmt:winapinls.obj
 0002:00003f70       ??_C@_15NCHGBGLK@?$AAt?$AAe?$AA?$AA@ 0000000180053f70     libcpmt:winapinls.obj
 0002:00003f78       ??_C@_15PHPHCBPF@?$AAk?$AAn?$AA?$AA@ 0000000180053f78     libcpmt:winapinls.obj
 0002:00003f80       ??_C@_15DLGBCKMP@?$AAm?$AAr?$AA?$AA@ 0000000180053f80     libcpmt:winapinls.obj
 0002:00003f88       ??_C@_15EABBLBFF@?$AAs?$AAa?$AA?$AA@ 0000000180053f88     libcpmt:winapinls.obj
 0002:00003f90       ??_C@_15CBKOMCOI@?$AAm?$AAn?$AA?$AA@ 0000000180053f90     libcpmt:winapinls.obj
 0002:00003f98       ??_C@_15CKDMCJAF@?$AAg?$AAl?$AA?$AA@ 0000000180053f98     libcpmt:winapinls.obj
 0002:00003fa0       ??_C@_17CNJFBPG@?$AAk?$AAo?$AAk?$AA?$AA@ 0000000180053fa0     libcpmt:winapinls.obj
 0002:00003fa8       ??_C@_17FFBJICPL@?$AAs?$AAy?$AAr?$AA?$AA@ 0000000180053fa8     libcpmt:winapinls.obj
 0002:00003fb0       ??_C@_17KPNDCPAF@?$AAd?$AAi?$AAv?$AA?$AA@ 0000000180053fb0     libcpmt:winapinls.obj
 0002:00003fb8       ??_C@_1M@OKAHONE@?$AAa?$AAr?$AA?9?$AAS?$AAA?$AA?$AA@ 0000000180053fb8     libcpmt:winapinls.obj
 0002:00003fc8       ??_C@_1M@FFFIGIGK@?$AAb?$AAg?$AA?9?$AAB?$AAG?$AA?$AA@ 0000000180053fc8     libcpmt:winapinls.obj
 0002:00003fd8       ??_C@_1M@BJNKEDC@?$AAc?$AAa?$AA?9?$AAE?$AAS?$AA?$AA@ 0000000180053fd8     libcpmt:winapinls.obj
 0002:00003fe8       ??_C@_1M@CLNBBOPM@?$AAz?$AAh?$AA?9?$AAT?$AAW?$AA?$AA@ 0000000180053fe8     libcpmt:winapinls.obj
 0002:00003ff8       ??_C@_1M@IJJHFJHA@?$AAc?$AAs?$AA?9?$AAC?$AAZ?$AA?$AA@ 0000000180053ff8     libcpmt:winapinls.obj
 0002:00004008       ??_C@_1M@CLPEOBGI@?$AAd?$AAa?$AA?9?$AAD?$AAK?$AA?$AA@ 0000000180054008     libcpmt:winapinls.obj
 0002:00004018       ??_C@_1M@MCMADGCB@?$AAd?$AAe?$AA?9?$AAD?$AAE?$AA?$AA@ 0000000180054018     libcpmt:winapinls.obj
 0002:00004028       ??_C@_1M@OOCKEMAM@?$AAe?$AAl?$AA?9?$AAG?$AAR?$AA?$AA@ 0000000180054028     libcpmt:winapinls.obj
 0002:00004038       ??_C@_1M@BMHNFIME@?$AAe?$AAn?$AA?9?$AAU?$AAS?$AA?$AA@ 0000000180054038     libcpmt:winapinls.obj
 0002:00004048       ??_C@_1M@DDNJFGID@?$AAf?$AAi?$AA?9?$AAF?$AAI?$AA?$AA@ 0000000180054048     libcpmt:winapinls.obj
 0002:00004058       ??_C@_1M@GLIPPMAC@?$AAf?$AAr?$AA?9?$AAF?$AAR?$AA?$AA@ 0000000180054058     libcpmt:winapinls.obj
 0002:00004068       ??_C@_1M@GFMCHPE@?$AAh?$AAe?$AA?9?$AAI?$AAL?$AA?$AA@ 0000000180054068     libcpmt:winapinls.obj
 0002:00004078       ??_C@_1M@MHLPGNKM@?$AAh?$AAu?$AA?9?$AAH?$AAU?$AA?$AA@ 0000000180054078     libcpmt:winapinls.obj
 0002:00004088       ??_C@_1M@LPDDNNPN@?$AAi?$AAs?$AA?9?$AAI?$AAS?$AA?$AA@ 0000000180054088     libcpmt:winapinls.obj
 0002:00004098       ??_C@_1M@MADIPODN@?$AAi?$AAt?$AA?9?$AAI?$AAT?$AA?$AA@ 0000000180054098     libcpmt:winapinls.obj
 0002:000040a8       ??_C@_1M@HPNHIDJI@?$AAj?$AAa?$AA?9?$AAJ?$AAP?$AA?$AA@ 00000001800540a8     libcpmt:winapinls.obj
 0002:000040b8       ??_C@_1M@JLOOOEGK@?$AAk?$AAo?$AA?9?$AAK?$AAR?$AA?$AA@ 00000001800540b8     libcpmt:winapinls.obj
 0002:000040c8       ??_C@_1M@IHBJJGG@?$AAn?$AAl?$AA?9?$AAN?$AAL?$AA?$AA@ 00000001800540c8     libcpmt:winapinls.obj
 0002:000040d8       ??_C@_1M@EANAGDL@?$AAn?$AAb?$AA?9?$AAN?$AAO?$AA?$AA@ 00000001800540d8     libcpmt:winapinls.obj
 0002:000040e8       ??_C@_1M@NEIEMEGP@?$AAp?$AAl?$AA?9?$AAP?$AAL?$AA?$AA@ 00000001800540e8     libcpmt:winapinls.obj
 0002:000040f8       ??_C@_1M@BOCFIGEP@?$AAp?$AAt?$AA?9?$AAB?$AAR?$AA?$AA@ 00000001800540f8     libcpmt:winapinls.obj
 0002:00004108       ??_C@_1M@IMPFOPBG@?$AAr?$AAo?$AA?9?$AAR?$AAO?$AA?$AA@ 0000000180054108     libcpmt:winapinls.obj
 0002:00004118       ??_C@_1M@IDNNEJMM@?$AAr?$AAu?$AA?9?$AAR?$AAU?$AA?$AA@ 0000000180054118     libcpmt:winapinls.obj
 0002:00004128       ??_C@_1M@LILEEOGM@?$AAh?$AAr?$AA?9?$AAH?$AAR?$AA?$AA@ 0000000180054128     libcpmt:winapinls.obj
 0002:00004138       ??_C@_1M@FKIFEHPB@?$AAs?$AAk?$AA?9?$AAS?$AAK?$AA?$AA@ 0000000180054138     libcpmt:winapinls.obj
 0002:00004148       ??_C@_1M@LJMAMNPJ@?$AAs?$AAq?$AA?9?$AAA?$AAL?$AA?$AA@ 0000000180054148     libcpmt:winapinls.obj
 0002:00004158       ??_C@_1M@GIAKDKJK@?$AAs?$AAv?$AA?9?$AAS?$AAE?$AA?$AA@ 0000000180054158     libcpmt:winapinls.obj
 0002:00004168       ??_C@_1M@MKJKIKCL@?$AAt?$AAh?$AA?9?$AAT?$AAH?$AA?$AA@ 0000000180054168     libcpmt:winapinls.obj
 0002:00004178       ??_C@_1M@MFLCCMPB@?$AAt?$AAr?$AA?9?$AAT?$AAR?$AA?$AA@ 0000000180054178     libcpmt:winapinls.obj
 0002:00004188       ??_C@_1M@OIJHDKJN@?$AAu?$AAr?$AA?9?$AAP?$AAK?$AA?$AA@ 0000000180054188     libcpmt:winapinls.obj
 0002:00004198       ??_C@_1M@LHIPCIEK@?$AAi?$AAd?$AA?9?$AAI?$AAD?$AA?$AA@ 0000000180054198     libcpmt:winapinls.obj
 0002:000041a8       ??_C@_1M@MFMOBGI@?$AAu?$AAk?$AA?9?$AAU?$AAA?$AA?$AA@ 00000001800541a8     libcpmt:winapinls.obj
 0002:000041b8       ??_C@_1M@OBGLJIPL@?$AAb?$AAe?$AA?9?$AAB?$AAY?$AA?$AA@ 00000001800541b8     libcpmt:winapinls.obj
 0002:000041c8       ??_C@_1M@BCFAJEAD@?$AAs?$AAl?$AA?9?$AAS?$AAI?$AA?$AA@ 00000001800541c8     libcpmt:winapinls.obj
 0002:000041d8       ??_C@_1M@FKFFEDDN@?$AAe?$AAt?$AA?9?$AAE?$AAE?$AA?$AA@ 00000001800541d8     libcpmt:winapinls.obj
 0002:000041e8       ??_C@_1M@KGKKAACI@?$AAl?$AAv?$AA?9?$AAL?$AAV?$AA?$AA@ 00000001800541e8     libcpmt:winapinls.obj
 0002:000041f8       ??_C@_1M@IFGBIJO@?$AAl?$AAt?$AA?9?$AAL?$AAT?$AA?$AA@ 00000001800541f8     libcpmt:winapinls.obj
 0002:00004208       ??_C@_1M@FGEAHEDM@?$AAf?$AAa?$AA?9?$AAI?$AAR?$AA?$AA@ 0000000180054208     libcpmt:winapinls.obj
 0002:00004218       ??_C@_1M@KBMAIBFN@?$AAv?$AAi?$AA?9?$AAV?$AAN?$AA?$AA@ 0000000180054218     libcpmt:winapinls.obj
 0002:00004228       ??_C@_1M@GPCBKDJK@?$AAh?$AAy?$AA?9?$AAA?$AAM?$AA?$AA@ 0000000180054228     libcpmt:winapinls.obj
 0002:00004238       ??_C@_1BG@BECMDDJB@?$AAa?$AAz?$AA?9?$AAA?$AAZ?$AA?9?$AAL?$AAa?$AAt?$AAn?$AA?$AA@ 0000000180054238     libcpmt:winapinls.obj
 0002:00004250       ??_C@_1M@MAOFCAEA@?$AAe?$AAu?$AA?9?$AAE?$AAS?$AA?$AA@ 0000000180054250     libcpmt:winapinls.obj
 0002:00004260       ??_C@_1M@IGHABKPI@?$AAm?$AAk?$AA?9?$AAM?$AAK?$AA?$AA@ 0000000180054260     libcpmt:winapinls.obj
 0002:00004270       ??_C@_1M@IAIGNEJG@?$AAt?$AAn?$AA?9?$AAZ?$AAA?$AA?$AA@ 0000000180054270     libcpmt:winapinls.obj
 0002:00004280       ??_C@_1M@IIJCOJFA@?$AAx?$AAh?$AA?9?$AAZ?$AAA?$AA?$AA@ 0000000180054280     libcpmt:winapinls.obj
 0002:00004290       ??_C@_1M@LGPJHNJH@?$AAz?$AAu?$AA?9?$AAZ?$AAA?$AA?$AA@ 0000000180054290     libcpmt:winapinls.obj
 0002:000042a0       ??_C@_1M@HOKAOIO@?$AAa?$AAf?$AA?9?$AAZ?$AAA?$AA?$AA@ 00000001800542a0     libcpmt:winapinls.obj
 0002:000042b0       ??_C@_1M@DPCLHLIE@?$AAk?$AAa?$AA?9?$AAG?$AAE?$AA?$AA@ 00000001800542b0     libcpmt:winapinls.obj
 0002:000042c0       ??_C@_1M@BLKMHJBI@?$AAf?$AAo?$AA?9?$AAF?$AAO?$AA?$AA@ 00000001800542c0     libcpmt:winapinls.obj
 0002:000042d0       ??_C@_1M@LGGJAPPB@?$AAh?$AAi?$AA?9?$AAI?$AAN?$AA?$AA@ 00000001800542d0     libcpmt:winapinls.obj
 0002:000042e0       ??_C@_1M@FIKPIHFE@?$AAm?$AAt?$AA?9?$AAM?$AAT?$AA?$AA@ 00000001800542e0     libcpmt:winapinls.obj
 0002:000042f0       ??_C@_1M@HEGGPBFA@?$AAs?$AAe?$AA?9?$AAN?$AAO?$AA?$AA@ 00000001800542f0     libcpmt:winapinls.obj
 0002:00004300       ??_C@_1M@EIBJEEPA@?$AAm?$AAs?$AA?9?$AAM?$AAY?$AA?$AA@ 0000000180054300     libcpmt:winapinls.obj
 0002:00004310       ??_C@_1M@FHLBGMPP@?$AAk?$AAk?$AA?9?$AAK?$AAZ?$AA?$AA@ 0000000180054310     libcpmt:winapinls.obj
 0002:00004320       ??_C@_1M@NGJJLCGI@?$AAk?$AAy?$AA?9?$AAK?$AAG?$AA?$AA@ 0000000180054320     libcpmt:winapinls.obj
 0002:00004330       ??_C@_1M@GIENNBFC@?$AAs?$AAw?$AA?9?$AAK?$AAE?$AA?$AA@ 0000000180054330     libcpmt:winapinls.obj
 0002:00004340       ??_C@_1BG@NDGMJIMJ@?$AAu?$AAz?$AA?9?$AAU?$AAZ?$AA?9?$AAL?$AAa?$AAt?$AAn?$AA?$AA@ 0000000180054340     libcpmt:winapinls.obj
 0002:00004358       ??_C@_1M@IDCCIHBC@?$AAt?$AAt?$AA?9?$AAR?$AAU?$AA?$AA@ 0000000180054358     libcpmt:winapinls.obj
 0002:00004368       ??_C@_1M@LOICPMOJ@?$AAb?$AAn?$AA?9?$AAI?$AAN?$AA?$AA@ 0000000180054368     libcpmt:winapinls.obj
 0002:00004378       ??_C@_1M@KPKKNEAH@?$AAp?$AAa?$AA?9?$AAI?$AAN?$AA?$AA@ 0000000180054378     libcpmt:winapinls.obj
 0002:00004388       ??_C@_1M@PJGPPBOG@?$AAg?$AAu?$AA?9?$AAI?$AAN?$AA?$AA@ 0000000180054388     libcpmt:winapinls.obj
 0002:00004398       ??_C@_1M@KMKMOPHI@?$AAt?$AAa?$AA?9?$AAI?$AAN?$AA?$AA@ 0000000180054398     libcpmt:winapinls.obj
 0002:000043a8       ??_C@_1M@KFEHEPAC@?$AAt?$AAe?$AA?9?$AAI?$AAN?$AA?$AA@ 00000001800543a8     libcpmt:winapinls.obj
 0002:000043b8       ??_C@_1M@CDCLMGHI@?$AAk?$AAn?$AA?9?$AAI?$AAN?$AA?$AA@ 00000001800543b8     libcpmt:winapinls.obj
 0002:000043c8       ??_C@_1M@MIODLDKF@?$AAm?$AAl?$AA?9?$AAI?$AAN?$AA?$AA@ 00000001800543c8     libcpmt:winapinls.obj
 0002:000043d8       ??_C@_1M@PBIEACPO@?$AAm?$AAr?$AA?9?$AAI?$AAN?$AA?$AA@ 00000001800543d8     libcpmt:winapinls.obj
 0002:000043e8       ??_C@_1M@NIDEAGPH@?$AAs?$AAa?$AA?9?$AAI?$AAN?$AA?$AA@ 00000001800543e8     libcpmt:winapinls.obj
 0002:000043f8       ??_C@_1M@FHIHCBIO@?$AAm?$AAn?$AA?9?$AAM?$AAN?$AA?$AA@ 00000001800543f8     libcpmt:winapinls.obj
 0002:00004408       ??_C@_1M@JAIJPENP@?$AAc?$AAy?$AA?9?$AAG?$AAB?$AA?$AA@ 0000000180054408     libcpmt:winapinls.obj
 0002:00004418       ??_C@_1M@PHGFBEPN@?$AAg?$AAl?$AA?9?$AAE?$AAS?$AA?$AA@ 0000000180054418     libcpmt:winapinls.obj
 0002:00004428       ??_C@_1O@KPIPDNCP@?$AAk?$AAo?$AAk?$AA?9?$AAI?$AAN?$AA?$AA@ 0000000180054428     libcpmt:winapinls.obj
 0002:00004438       ??_C@_1O@KNHJLDJA@?$AAs?$AAy?$AAr?$AA?9?$AAS?$AAY?$AA?$AA@ 0000000180054438     libcpmt:winapinls.obj
 0002:00004448       ??_C@_1O@MKEKBLAH@?$AAd?$AAi?$AAv?$AA?9?$AAM?$AAV?$AA?$AA@ 0000000180054448     libcpmt:winapinls.obj
 0002:00004458       ??_C@_1O@OHDCKDDF@?$AAq?$AAu?$AAz?$AA?9?$AAB?$AAO?$AA?$AA@ 0000000180054458     libcpmt:winapinls.obj
 0002:00004468       ??_C@_1M@LEPJNLFD@?$AAn?$AAs?$AA?9?$AAZ?$AAA?$AA?$AA@ 0000000180054468     libcpmt:winapinls.obj
 0002:00004478       ??_C@_1M@OMLEIIJB@?$AAm?$AAi?$AA?9?$AAN?$AAZ?$AA?$AA@ 0000000180054478     libcpmt:winapinls.obj
 0002:00004488       ??_C@_1M@PMPEAILG@?$AAa?$AAr?$AA?9?$AAI?$AAQ?$AA?$AA@ 0000000180054488     libcpmt:winapinls.obj
 0002:00004498       ??_C@_1M@BIBDDEMK@?$AAz?$AAh?$AA?9?$AAC?$AAN?$AA?$AA@ 0000000180054498     libcpmt:winapinls.obj
 0002:000044a8       ??_C@_1M@CNKPNOEE@?$AAd?$AAe?$AA?9?$AAC?$AAH?$AA?$AA@ 00000001800544a8     libcpmt:winapinls.obj
 0002:000044b8       ??_C@_1M@LKMGMLKO@?$AAe?$AAn?$AA?9?$AAG?$AAB?$AA?$AA@ 00000001800544b8     libcpmt:winapinls.obj
 0002:000044c8       ??_C@_1M@PGKJFFGL@?$AAe?$AAs?$AA?9?$AAM?$AAX?$AA?$AA@ 00000001800544c8     libcpmt:winapinls.obj
 0002:000044d8       ??_C@_1M@DNNANBDC@?$AAf?$AAr?$AA?9?$AAB?$AAE?$AA?$AA@ 00000001800544d8     libcpmt:winapinls.obj
 0002:000044e8       ??_C@_1M@HLGMDFHM@?$AAi?$AAt?$AA?9?$AAC?$AAH?$AA?$AA@ 00000001800544e8     libcpmt:winapinls.obj
 0002:000044f8       ??_C@_1M@CLLBGJH@?$AAn?$AAl?$AA?9?$AAB?$AAE?$AA?$AA@ 00000001800544f8     libcpmt:winapinls.obj
 0002:00004508       ??_C@_1M@BODBOGLF@?$AAn?$AAn?$AA?9?$AAN?$AAO?$AA?$AA@ 0000000180054508     libcpmt:winapinls.obj
 0002:00004518       ??_C@_1M@HFFAHKAD@?$AAp?$AAt?$AA?9?$AAP?$AAT?$AA?$AA@ 0000000180054518     libcpmt:winapinls.obj
 0002:00004528       ??_C@_1BG@LNOAKHIE@?$AAs?$AAr?$AA?9?$AAS?$AAP?$AA?9?$AAL?$AAa?$AAt?$AAn?$AA?$AA@ 0000000180054528     libcpmt:winapinls.obj
 0002:00004540       ??_C@_1M@HBMHBGAK@?$AAs?$AAv?$AA?9?$AAF?$AAI?$AA?$AA@ 0000000180054540     libcpmt:winapinls.obj
 0002:00004550       ??_C@_1BG@DGCJGJBE@?$AAa?$AAz?$AA?9?$AAA?$AAZ?$AA?9?$AAC?$AAy?$AAr?$AAl?$AA?$AA@ 0000000180054550     libcpmt:winapinls.obj
 0002:00004568       ??_C@_1M@KEJDAAHB@?$AAs?$AAe?$AA?9?$AAS?$AAE?$AA?$AA@ 0000000180054568     libcpmt:winapinls.obj
 0002:00004578       ??_C@_1M@HEIBJJAD@?$AAm?$AAs?$AA?9?$AAB?$AAN?$AA?$AA@ 0000000180054578     libcpmt:winapinls.obj
 0002:00004588       ??_C@_1BG@PBGJMCEM@?$AAu?$AAz?$AA?9?$AAU?$AAZ?$AA?9?$AAC?$AAy?$AAr?$AAl?$AA?$AA@ 0000000180054588     libcpmt:winapinls.obj
 0002:000045a0       ??_C@_1O@LAOBCMDF@?$AAq?$AAu?$AAz?$AA?9?$AAE?$AAC?$AA?$AA@ 00000001800545a0     libcpmt:winapinls.obj
 0002:000045b0       ??_C@_1M@POEEMAIO@?$AAa?$AAr?$AA?9?$AAE?$AAG?$AA?$AA@ 00000001800545b0     libcpmt:winapinls.obj
 0002:000045c0       ??_C@_1M@EFAKDEDL@?$AAz?$AAh?$AA?9?$AAH?$AAK?$AA?$AA@ 00000001800545c0     libcpmt:winapinls.obj
 0002:000045d0       ??_C@_1M@HKKIJHGI@?$AAd?$AAe?$AA?9?$AAA?$AAT?$AA?$AA@ 00000001800545d0     libcpmt:winapinls.obj
 0002:000045e0       ??_C@_1M@KBFBEHJF@?$AAe?$AAn?$AA?9?$AAA?$AAU?$AA?$AA@ 00000001800545e0     libcpmt:winapinls.obj
 0002:000045f0       ??_C@_1M@MNPLFAAH@?$AAe?$AAs?$AA?9?$AAE?$AAS?$AA?$AA@ 00000001800545f0     libcpmt:winapinls.obj
 0002:00004600       ??_C@_1M@HJOOJFMA@?$AAf?$AAr?$AA?9?$AAC?$AAA?$AA?$AA@ 0000000180054600     libcpmt:winapinls.obj
 0002:00004610       ??_C@_1BG@JPOFPNAB@?$AAs?$AAr?$AA?9?$AAS?$AAP?$AA?9?$AAC?$AAy?$AAr?$AAl?$AA?$AA@ 0000000180054610     libcpmt:winapinls.obj
 0002:00004628       ??_C@_1M@LNFOCMOB@?$AAs?$AAe?$AA?9?$AAF?$AAI?$AA?$AA@ 0000000180054628     libcpmt:winapinls.obj
 0002:00004638       ??_C@_1O@MGJBOAMB@?$AAq?$AAu?$AAz?$AA?9?$AAP?$AAE?$AA?$AA@ 0000000180054638     libcpmt:winapinls.obj
 0002:00004648       ??_C@_1M@GJINLBOK@?$AAa?$AAr?$AA?9?$AAL?$AAY?$AA?$AA@ 0000000180054648     libcpmt:winapinls.obj
 0002:00004658       ??_C@_1M@GGMNHJNL@?$AAz?$AAh?$AA?9?$AAS?$AAG?$AA?$AA@ 0000000180054658     libcpmt:winapinls.obj
 0002:00004668       ??_C@_1M@HOIKODND@?$AAd?$AAe?$AA?9?$AAL?$AAU?$AA?$AA@ 0000000180054668     libcpmt:winapinls.obj
 0002:00004678       ??_C@_1M@DDOCCGFG@?$AAe?$AAn?$AA?9?$AAC?$AAA?$AA?$AA@ 0000000180054678     libcpmt:winapinls.obj
 0002:00004688       ??_C@_1M@BNOEMJLF@?$AAe?$AAs?$AA?9?$AAG?$AAT?$AA?$AA@ 0000000180054688     libcpmt:winapinls.obj
 0002:00004698       ??_C@_1M@EOGNKEK@?$AAf?$AAr?$AA?9?$AAC?$AAH?$AA?$AA@ 0000000180054698     libcpmt:winapinls.obj
 0002:000046a8       ??_C@_1M@FLIDJFHL@?$AAh?$AAr?$AA?9?$AAB?$AAA?$AA?$AA@ 00000001800546a8     libcpmt:winapinls.obj
 0002:000046b8       ??_C@_1O@FMCELNAJ@?$AAs?$AAm?$AAj?$AA?9?$AAN?$AAO?$AA?$AA@ 00000001800546b8     libcpmt:winapinls.obj
 0002:000046c8       ??_C@_1M@JHGLJMGJ@?$AAa?$AAr?$AA?9?$AAD?$AAZ?$AA?$AA@ 00000001800546c8     libcpmt:winapinls.obj
 0002:000046d8       ??_C@_1M@JKKFDCNP@?$AAz?$AAh?$AA?9?$AAM?$AAO?$AA?$AA@ 00000001800546d8     libcpmt:winapinls.obj
 0002:000046e8       ??_C@_1M@GEEFALPE@?$AAd?$AAe?$AA?9?$AAL?$AAI?$AA?$AA@ 00000001800546e8     libcpmt:winapinls.obj
 0002:000046f8       ??_C@_1M@IGEOFBG@?$AAe?$AAn?$AA?9?$AAN?$AAZ?$AA?$AA@ 00000001800546f8     libcpmt:winapinls.obj
 0002:00004708       ??_C@_1M@KDBONEHP@?$AAe?$AAs?$AA?9?$AAC?$AAR?$AA?$AA@ 0000000180054708     libcpmt:winapinls.obj
 0002:00004718       ??_C@_1M@FHMDOHNN@?$AAf?$AAr?$AA?9?$AAL?$AAU?$AA?$AA@ 0000000180054718     libcpmt:winapinls.obj
 0002:00004728       ??_C@_1BG@NFKKMAFG@?$AAb?$AAs?$AA?9?$AAB?$AAA?$AA?9?$AAL?$AAa?$AAt?$AAn?$AA?$AA@ 0000000180054728     libcpmt:winapinls.obj
 0002:00004740       ??_C@_1O@IMNBEMCI@?$AAs?$AAm?$AAj?$AA?9?$AAS?$AAE?$AA?$AA@ 0000000180054740     libcpmt:winapinls.obj
 0002:00004750       ??_C@_1M@DHHMBNDP@?$AAa?$AAr?$AA?9?$AAM?$AAA?$AA?$AA@ 0000000180054750     libcpmt:winapinls.obj
 0002:00004760       ??_C@_1M@BNBLJCGH@?$AAe?$AAn?$AA?9?$AAI?$AAE?$AA?$AA@ 0000000180054760     libcpmt:winapinls.obj
 0002:00004770       ??_C@_1M@GEPAFMDL@?$AAe?$AAs?$AA?9?$AAP?$AAA?$AA?$AA@ 0000000180054770     libcpmt:winapinls.obj
 0002:00004780       ??_C@_1M@OJONDMDL@?$AAf?$AAr?$AA?9?$AAM?$AAC?$AA?$AA@ 0000000180054780     libcpmt:winapinls.obj
 0002:00004790       ??_C@_1BG@OBCNFJB@?$AAs?$AAr?$AA?9?$AAB?$AAA?$AA?9?$AAL?$AAa?$AAt?$AAn?$AA?$AA@ 0000000180054790     libcpmt:winapinls.obj
 0002:000047a8       ??_C@_1O@KEMEEGPO@?$AAs?$AAm?$AAa?$AA?9?$AAN?$AAO?$AA?$AA@ 00000001800547a8     libcpmt:winapinls.obj
 0002:000047b8       ??_C@_1M@ELMGFODK@?$AAa?$AAr?$AA?9?$AAT?$AAN?$AA?$AA@ 00000001800547b8     libcpmt:winapinls.obj
 0002:000047c8       ??_C@_1M@BHDLHFAF@?$AAe?$AAn?$AA?9?$AAZ?$AAA?$AA?$AA@ 00000001800547c8     libcpmt:winapinls.obj
 0002:000047d8       ??_C@_1M@BMGIGLIF@?$AAe?$AAs?$AA?9?$AAD?$AAO?$AA?$AA@ 00000001800547d8     libcpmt:winapinls.obj
 0002:000047e8       ??_C@_1BG@CMBHIPBE@?$AAs?$AAr?$AA?9?$AAB?$AAA?$AA?9?$AAC?$AAy?$AAr?$AAl?$AA?$AA@ 00000001800547e8     libcpmt:winapinls.obj
 0002:00004800       ??_C@_1O@HEDBLHNP@?$AAs?$AAm?$AAa?$AA?9?$AAS?$AAE?$AA?$AA@ 0000000180054800     libcpmt:winapinls.obj
 0002:00004810       ??_C@_1M@DAGCADIM@?$AAa?$AAr?$AA?9?$AAO?$AAM?$AA?$AA@ 0000000180054810     libcpmt:winapinls.obj
 0002:00004820       ??_C@_1M@FODLMICG@?$AAe?$AAn?$AA?9?$AAJ?$AAM?$AA?$AA@ 0000000180054820     libcpmt:winapinls.obj
 0002:00004830       ??_C@_1M@DNMLCIHB@?$AAe?$AAs?$AA?9?$AAV?$AAE?$AA?$AA@ 0000000180054830     libcpmt:winapinls.obj
 0002:00004840       ??_C@_1O@EOKHMKJK@?$AAs?$AAm?$AAs?$AA?9?$AAF?$AAI?$AA?$AA@ 0000000180054840     libcpmt:winapinls.obj
 0002:00004850       ??_C@_1M@CAFJMKOF@?$AAa?$AAr?$AA?9?$AAY?$AAE?$AA?$AA@ 0000000180054850     libcpmt:winapinls.obj
 0002:00004860       ??_C@_1M@CBFHIJLI@?$AAe?$AAn?$AA?9?$AAC?$AAB?$AA?$AA@ 0000000180054860     libcpmt:winapinls.obj
 0002:00004870       ??_C@_1M@BGNFLDN@?$AAe?$AAs?$AA?9?$AAC?$AAO?$AA?$AA@ 0000000180054870     libcpmt:winapinls.obj
 0002:00004880       ??_C@_1O@JMPHMAMC@?$AAs?$AAm?$AAn?$AA?9?$AAF?$AAI?$AA?$AA@ 0000000180054880     libcpmt:winapinls.obj
 0002:00004890       ??_C@_1M@JLANABKE@?$AAa?$AAr?$AA?9?$AAS?$AAY?$AA?$AA@ 0000000180054890     libcpmt:winapinls.obj
 0002:000048a0       ??_C@_1M@HPKGCFGN@?$AAe?$AAn?$AA?9?$AAB?$AAZ?$AA?$AA@ 00000001800548a0     libcpmt:winapinls.obj
 0002:000048b0       ??_C@_1M@OLJCMLGM@?$AAe?$AAs?$AA?9?$AAP?$AAE?$AA?$AA@ 00000001800548b0     libcpmt:winapinls.obj
 0002:000048c0       ??_C@_1M@MKKGFKLE@?$AAa?$AAr?$AA?9?$AAJ?$AAO?$AA?$AA@ 00000001800548c0     libcpmt:winapinls.obj
 0002:000048d0       ??_C@_1M@EKPGLDNI@?$AAe?$AAn?$AA?9?$AAT?$AAT?$AA?$AA@ 00000001800548d0     libcpmt:winapinls.obj
 0002:000048e0       ??_C@_1M@OONGHFHE@?$AAe?$AAs?$AA?9?$AAA?$AAR?$AA?$AA@ 00000001800548e0     libcpmt:winapinls.obj
 0002:000048f0       ??_C@_1M@OOJFGBHE@?$AAa?$AAr?$AA?9?$AAL?$AAB?$AA?$AA@ 00000001800548f0     libcpmt:winapinls.obj
 0002:00004900       ??_C@_1M@GCEJHNEG@?$AAe?$AAn?$AA?9?$AAZ?$AAW?$AA?$AA@ 0000000180054900     libcpmt:winapinls.obj
 0002:00004910       ??_C@_1M@JNOCAHJI@?$AAe?$AAs?$AA?9?$AAE?$AAC?$AA?$AA@ 0000000180054910     libcpmt:winapinls.obj
 0002:00004920       ??_C@_1M@JEFHPGGB@?$AAa?$AAr?$AA?9?$AAK?$AAW?$AA?$AA@ 0000000180054920     libcpmt:winapinls.obj
 0002:00004930       ??_C@_1M@MLKIBJOJ@?$AAe?$AAn?$AA?9?$AAP?$AAH?$AA?$AA@ 0000000180054930     libcpmt:winapinls.obj
 0002:00004940       ??_C@_1M@BDNIPEND@?$AAe?$AAs?$AA?9?$AAC?$AAL?$AA?$AA@ 0000000180054940     libcpmt:winapinls.obj
 0002:00004950       ??_C@_1M@MPNMEKBD@?$AAa?$AAr?$AA?9?$AAA?$AAE?$AA?$AA@ 0000000180054950     libcpmt:winapinls.obj
 0002:00004960       ??_C@_1M@KBJALCPI@?$AAe?$AAs?$AA?9?$AAU?$AAY?$AA?$AA@ 0000000180054960     libcpmt:winapinls.obj
 0002:00004970       ??_C@_1M@LLCCOAGA@?$AAa?$AAr?$AA?9?$AAB?$AAH?$AA?$AA@ 0000000180054970     libcpmt:winapinls.obj
 0002:00004980       ??_C@_1M@PBFNCDEL@?$AAe?$AAs?$AA?9?$AAP?$AAY?$AA?$AA@ 0000000180054980     libcpmt:winapinls.obj
 0002:00004990       ??_C@_1M@EDGINPNP@?$AAa?$AAr?$AA?9?$AAQ?$AAA?$AA?$AA@ 0000000180054990     libcpmt:winapinls.obj
 0002:000049a0       ??_C@_1M@MKDBIIJI@?$AAe?$AAs?$AA?9?$AAB?$AAO?$AA?$AA@ 00000001800549a0     libcpmt:winapinls.obj
 0002:000049b0       ??_C@_1M@CPKKEBLD@?$AAe?$AAs?$AA?9?$AAS?$AAV?$AA?$AA@ 00000001800549b0     libcpmt:winapinls.obj
 0002:000049c0       ??_C@_1M@NDBGMMJL@?$AAe?$AAs?$AA?9?$AAH?$AAN?$AA?$AA@ 00000001800549c0     libcpmt:winapinls.obj
 0002:000049d0       ??_C@_1M@JIJIBHDP@?$AAe?$AAs?$AA?9?$AAN?$AAI?$AA?$AA@ 00000001800549d0     libcpmt:winapinls.obj
 0002:000049e0       ??_C@_1M@CGFMKEEK@?$AAe?$AAs?$AA?9?$AAP?$AAR?$AA?$AA@ 00000001800549e0     libcpmt:winapinls.obj
 0002:000049f0       ??_C@_1O@ICJHKIIK@?$AAz?$AAh?$AA?9?$AAC?$AAH?$AAT?$AA?$AA@ 00000001800549f0     libcpmt:winapinls.obj
 0002:00004a00       ??_C@_15CLNEJCE@?$AAs?$AAr?$AA?$AA@ 0000000180054a00     libcpmt:winapinls.obj
 0002:00004a08       ??_C@_1M@KAHEKEIG@?$AAa?$AAf?$AA?9?$AAz?$AAa?$AA?$AA@ 0000000180054a08     libcpmt:winapinls.obj
 0002:00004a18       ??_C@_1M@GIECOABL@?$AAa?$AAr?$AA?9?$AAa?$AAe?$AA?$AA@ 0000000180054a18     libcpmt:winapinls.obj
 0002:00004a28       ??_C@_1M@BMLMEKGI@?$AAa?$AAr?$AA?9?$AAb?$AAh?$AA?$AA@ 0000000180054a28     libcpmt:winapinls.obj
 0002:00004a38       ??_C@_1M@DAPFDGGB@?$AAa?$AAr?$AA?9?$AAd?$AAz?$AA?$AA@ 0000000180054a38     libcpmt:winapinls.obj
 0002:00004a48       ??_C@_1M@FJNKGKIG@?$AAa?$AAr?$AA?9?$AAe?$AAg?$AA?$AA@ 0000000180054a48     libcpmt:winapinls.obj
 0002:00004a58       ??_C@_1M@FLGKKCLO@?$AAa?$AAr?$AA?9?$AAi?$AAq?$AA?$AA@ 0000000180054a58     libcpmt:winapinls.obj
 0002:00004a68       ??_C@_1M@GNDIPALM@?$AAa?$AAr?$AA?9?$AAj?$AAo?$AA?$AA@ 0000000180054a68     libcpmt:winapinls.obj
 0002:00004a78       ??_C@_1M@DDMJFMGJ@?$AAa?$AAr?$AA?9?$AAk?$AAw?$AA?$AA@ 0000000180054a78     libcpmt:winapinls.obj
 0002:00004a88       ??_C@_1M@EJALMLHM@?$AAa?$AAr?$AA?9?$AAl?$AAb?$AA?$AA@ 0000000180054a88     libcpmt:winapinls.obj
 0002:00004a98       ??_C@_1M@MOBDBLOC@?$AAa?$AAr?$AA?9?$AAl?$AAy?$AA?$AA@ 0000000180054a98     libcpmt:winapinls.obj
 0002:00004aa8       ??_C@_1M@JAOCLHDH@?$AAa?$AAr?$AA?9?$AAm?$AAa?$AA?$AA@ 0000000180054aa8     libcpmt:winapinls.obj
 0002:00004ab8       ??_C@_1M@JHPMKJIE@?$AAa?$AAr?$AA?9?$AAo?$AAm?$AA?$AA@ 0000000180054ab8     libcpmt:winapinls.obj
 0002:00004ac8       ??_C@_1M@OEPGHFNH@?$AAa?$AAr?$AA?9?$AAq?$AAa?$AA?$AA@ 0000000180054ac8     libcpmt:winapinls.obj
 0002:00004ad8       ??_C@_1M@KJDONENM@?$AAa?$AAr?$AA?9?$AAs?$AAa?$AA?$AA@ 0000000180054ad8     libcpmt:winapinls.obj
 0002:00004ae8       ??_C@_1M@DMJDKLKM@?$AAa?$AAr?$AA?9?$AAs?$AAy?$AA?$AA@ 0000000180054ae8     libcpmt:winapinls.obj
 0002:00004af8       ??_C@_1M@OMFIPEDC@?$AAa?$AAr?$AA?9?$AAt?$AAn?$AA?$AA@ 0000000180054af8     libcpmt:winapinls.obj
 0002:00004b08       ??_C@_1M@IHMHGAON@?$AAa?$AAr?$AA?9?$AAy?$AAe?$AA?$AA@ 0000000180054b08     libcpmt:winapinls.obj
 0002:00004b18       ??_C@_1BG@KDCPGJGB@?$AAa?$AAz?$AA?9?$AAa?$AAz?$AA?9?$AAc?$AAy?$AAr?$AAl?$AA?$AA@ 0000000180054b18     libcpmt:winapinls.obj
 0002:00004b30       ??_C@_1BG@IBCKDDOE@?$AAa?$AAz?$AA?9?$AAa?$AAz?$AA?9?$AAl?$AAa?$AAt?$AAn?$AA?$AA@ 0000000180054b30     libcpmt:winapinls.obj
 0002:00004b48       ??_C@_1M@EGPFDCPD@?$AAb?$AAe?$AA?9?$AAb?$AAy?$AA?$AA@ 0000000180054b48     libcpmt:winapinls.obj
 0002:00004b58       ??_C@_1M@PCMGMCGC@?$AAb?$AAg?$AA?9?$AAb?$AAg?$AA?$AA@ 0000000180054b58     libcpmt:winapinls.obj
 0002:00004b68       ??_C@_1M@BJBMFGOB@?$AAb?$AAn?$AA?9?$AAi?$AAn?$AA?$AA@ 0000000180054b68     libcpmt:winapinls.obj
 0002:00004b78       ??_C@_1BG@EAKMMACD@?$AAb?$AAs?$AA?9?$AAb?$AAa?$AA?9?$AAl?$AAa?$AAt?$AAn?$AA?$AA@ 0000000180054b78     libcpmt:winapinls.obj
 0002:00004b90       ??_C@_1M@KGADAODK@?$AAc?$AAa?$AA?9?$AAe?$AAs?$AA?$AA@ 0000000180054b90     libcpmt:winapinls.obj
 0002:00004ba0       ??_C@_1M@COAJPDHI@?$AAc?$AAs?$AA?9?$AAc?$AAz?$AA?$AA@ 0000000180054ba0     libcpmt:winapinls.obj
 0002:00004bb0       ??_C@_1M@DHBHFONH@?$AAc?$AAy?$AA?9?$AAg?$AAb?$AA?$AA@ 0000000180054bb0     libcpmt:winapinls.obj
 0002:00004bc0       ??_C@_1M@IMGKELGA@?$AAd?$AAa?$AA?9?$AAd?$AAk?$AA?$AA@ 0000000180054bc0     libcpmt:winapinls.obj
 0002:00004bd0       ??_C@_1M@NNDGDNGA@?$AAd?$AAe?$AA?9?$AAa?$AAt?$AA?$AA@ 0000000180054bd0     libcpmt:winapinls.obj
 0002:00004be0       ??_C@_1M@IKDBHEEM@?$AAd?$AAe?$AA?9?$AAc?$AAh?$AA?$AA@ 0000000180054be0     libcpmt:winapinls.obj
 0002:00004bf0       ??_C@_1M@GFFOJMCJ@?$AAd?$AAe?$AA?9?$AAd?$AAe?$AA?$AA@ 0000000180054bf0     libcpmt:winapinls.obj
 0002:00004c00       ??_C@_1M@MDNLKBPM@?$AAd?$AAe?$AA?9?$AAl?$AAi?$AA?$AA@ 0000000180054c00     libcpmt:winapinls.obj
 0002:00004c10       ??_C@_1M@NJBEEJNL@?$AAd?$AAe?$AA?9?$AAl?$AAu?$AA?$AA@ 0000000180054c10     libcpmt:winapinls.obj
 0002:00004c20       ??_C@_1O@GNNELBAP@?$AAd?$AAi?$AAv?$AA?9?$AAm?$AAv?$AA?$AA@ 0000000180054c20     libcpmt:winapinls.obj
 0002:00004c30       ??_C@_1M@EJLEOGAE@?$AAe?$AAl?$AA?9?$AAg?$AAr?$AA?$AA@ 0000000180054c30     libcpmt:winapinls.obj
 0002:00004c40       ??_C@_1M@GMPONJN@?$AAe?$AAn?$AA?9?$AAa?$AAu?$AA?$AA@ 0000000180054c40     libcpmt:winapinls.obj
 0002:00004c50       ??_C@_1M@NIDIIPGF@?$AAe?$AAn?$AA?9?$AAb?$AAz?$AA?$AA@ 0000000180054c50     libcpmt:winapinls.obj
 0002:00004c60       ??_C@_1M@JEHMIMFO@?$AAe?$AAn?$AA?9?$AAc?$AAa?$AA?$AA@ 0000000180054c60     libcpmt:winapinls.obj
 0002:00004c70       ??_C@_1M@IGMJCDLA@?$AAe?$AAn?$AA?9?$AAc?$AAb?$AA?$AA@ 0000000180054c70     libcpmt:winapinls.obj
 0002:00004c80       ??_C@_1M@BNFIGBKG@?$AAe?$AAn?$AA?9?$AAg?$AAb?$AA?$AA@ 0000000180054c80     libcpmt:winapinls.obj
 0002:00004c90       ??_C@_1M@LKIFDIGP@?$AAe?$AAn?$AA?9?$AAi?$AAe?$AA?$AA@ 0000000180054c90     libcpmt:winapinls.obj
 0002:00004ca0       ??_C@_1M@PJKFGCCO@?$AAe?$AAn?$AA?9?$AAj?$AAm?$AA?$AA@ 0000000180054ca0     libcpmt:winapinls.obj
 0002:00004cb0       ??_C@_1M@KPPKEPBO@?$AAe?$AAn?$AA?9?$AAn?$AAz?$AA?$AA@ 0000000180054cb0     libcpmt:winapinls.obj
 0002:00004cc0       ??_C@_1M@GMDGLDOB@?$AAe?$AAn?$AA?9?$AAp?$AAh?$AA?$AA@ 0000000180054cc0     libcpmt:winapinls.obj
 0002:00004cd0       ??_C@_1M@ONGIBJNA@?$AAe?$AAn?$AA?9?$AAt?$AAt?$AA?$AA@ 0000000180054cd0     libcpmt:winapinls.obj
 0002:00004ce0       ??_C@_1M@LLODPCMM@?$AAe?$AAn?$AA?9?$AAu?$AAs?$AA?$AA@ 0000000180054ce0     libcpmt:winapinls.obj
 0002:00004cf0       ??_C@_1M@LAKFNPAN@?$AAe?$AAn?$AA?9?$AAz?$AAa?$AA?$AA@ 0000000180054cf0     libcpmt:winapinls.obj
 0002:00004d00       ??_C@_1M@MFNHNHEO@?$AAe?$AAn?$AA?9?$AAz?$AAw?$AA?$AA@ 0000000180054d00     libcpmt:winapinls.obj
 0002:00004d10       ??_C@_1M@EJEINPHM@?$AAe?$AAs?$AA?9?$AAa?$AAr?$AA?$AA@ 0000000180054d10     libcpmt:winapinls.obj
 0002:00004d20       ??_C@_1M@GNKPCCJA@?$AAe?$AAs?$AA?9?$AAb?$AAo?$AA?$AA@ 0000000180054d20     libcpmt:winapinls.obj
 0002:00004d30       ??_C@_1M@LEEGFONL@?$AAe?$AAs?$AA?9?$AAc?$AAl?$AA?$AA@ 0000000180054d30     libcpmt:winapinls.obj
 0002:00004d40       ??_C@_1M@KGPDPBDF@?$AAe?$AAs?$AA?9?$AAc?$AAo?$AA?$AA@ 0000000180054d40     libcpmt:winapinls.obj
 0002:00004d50       ??_C@_1M@EIAHOHH@?$AAe?$AAs?$AA?9?$AAc?$AAr?$AA?$AA@ 0000000180054d50     libcpmt:winapinls.obj
 0002:00004d60       ??_C@_1M@LLPGMBIN@?$AAe?$AAs?$AA?9?$AAd?$AAo?$AA?$AA@ 0000000180054d60     libcpmt:winapinls.obj
 0002:00004d70       ??_C@_1M@DKHMKNJA@?$AAe?$AAs?$AA?9?$AAe?$AAc?$AA?$AA@ 0000000180054d70     libcpmt:winapinls.obj
 0002:00004d80       ??_C@_1M@GKGFPKAP@?$AAe?$AAs?$AA?9?$AAe?$AAs?$AA?$AA@ 0000000180054d80     libcpmt:winapinls.obj
 0002:00004d90       ??_C@_1M@LKHKGDLN@?$AAe?$AAs?$AA?9?$AAg?$AAt?$AA?$AA@ 0000000180054d90     libcpmt:winapinls.obj
 0002:00004da0       ??_C@_1M@HEIIGGJD@?$AAe?$AAs?$AA?9?$AAh?$AAn?$AA?$AA@ 0000000180054da0     libcpmt:winapinls.obj
 0002:00004db0       ??_C@_1M@FBDHPPGD@?$AAe?$AAs?$AA?9?$AAm?$AAx?$AA?$AA@ 0000000180054db0     libcpmt:winapinls.obj
 0002:00004dc0       ??_C@_1M@DPAGLNDH@?$AAe?$AAs?$AA?9?$AAn?$AAi?$AA?$AA@ 0000000180054dc0     libcpmt:winapinls.obj
 0002:00004dd0       ??_C@_1M@MDGOPGDD@?$AAe?$AAs?$AA?9?$AAp?$AAa?$AA?$AA@ 0000000180054dd0     libcpmt:winapinls.obj
 0002:00004de0       ??_C@_1M@EMAMGBGE@?$AAe?$AAs?$AA?9?$AAp?$AAe?$AA?$AA@ 0000000180054de0     libcpmt:winapinls.obj
 0002:00004df0       ??_C@_1M@IBMCAOEC@?$AAe?$AAs?$AA?9?$AAp?$AAr?$AA?$AA@ 0000000180054df0     libcpmt:winapinls.obj
 0002:00004e00       ??_C@_1M@FGMDIJED@?$AAe?$AAs?$AA?9?$AAp?$AAy?$AA?$AA@ 0000000180054e00     libcpmt:winapinls.obj
 0002:00004e10       ??_C@_1M@IIDEOLLL@?$AAe?$AAs?$AA?9?$AAs?$AAv?$AA?$AA@ 0000000180054e10     libcpmt:winapinls.obj
 0002:00004e20       ??_C@_1M@GAOBIPA@?$AAe?$AAs?$AA?9?$AAu?$AAy?$AA?$AA@ 0000000180054e20     libcpmt:winapinls.obj
 0002:00004e38       ??_7type_info@@6B@         0000000180054e38     LIBCMT:std_type_info_static.obj
 0002:00004e50       _pDefaultRawDllMain        0000000180054e50     LIBCMT:dll_dllmain.obj
 0002:00004e50       _pRawDllMain               0000000180054e50     LIBCMT:dll_dllmain.obj
 0002:00004e60       ??_7bad_array_new_length@std@@6B@ 0000000180054e60     LIBCMT:throw_bad_alloc.obj
 0002:00004e70       ??_C@_0BF@KINCDENJ@bad?5array?5new?5length?$AA@ 0000000180054e70     LIBCMT:throw_bad_alloc.obj
 0002:00004e88       _pDestructExceptionObject  0000000180054e88     libvcruntime:frame.obj
 0002:00004e98       ??_7bad_exception@std@@6B@ 0000000180054e98     libvcruntime:frame.obj
 0002:00004ea8       ??_C@_0O@DPKOEFFH@bad?5exception?$AA@ 0000000180054ea8     libvcruntime:frame.obj
 0002:00004fc0       ??_C@_1BC@DNHGCMLG@?$AAa?$AAd?$AAv?$AAa?$AAp?$AAi?$AA3?$AA2?$AA?$AA@ 0000000180054fc0     libvcruntime:winapi_downlevel.obj
 0002:00004fd8       ??_C@_1DM@KHCHBNEB@?$AAa?$AAp?$AAi?$AA?9?$AAm?$AAs?$AA?9?$AAw?$AAi?$AAn?$AA?9?$AAc?$AAo?$AAr?$AAe?$AA?9?$AAf?$AAi?$AAb?$AAe?$AAr?$AAs?$AA?9?$AAl?$AA1?$AA?9?$AA1?$AA?9?$AA1?$AA?$AA@ 0000000180054fd8     libvcruntime:winapi_downlevel.obj
 0002:00005018       ??_C@_1DK@LPPGFMPP@?$AAa?$AAp?$AAi?$AA?9?$AAm?$AAs?$AA?9?$AAw?$AAi?$AAn?$AA?9?$AAc?$AAo?$AAr?$AAe?$AA?9?$AAs?$AAy?$AAn?$AAc?$AAh?$AA?9?$AAl?$AA1?$AA?9?$AA2?$AA?9?$AA0?$AA?$AA@ 0000000180055018     libvcruntime:winapi_downlevel.obj
 0002:00005058       ??_C@_1BC@GDMECMAK@?$AAk?$AAe?$AAr?$AAn?$AAe?$AAl?$AA3?$AA2?$AA?$AA@ 0000000180055058     libvcruntime:winapi_downlevel.obj
 0002:000053c0       ??_C@_08EHJDFFNH@__based?$CI?$AA@ 00000001800553c0     libvcruntime:undname.obj
 0002:000053d0       ??_C@_07KOLFKCDI@__cdecl?$AA@ 00000001800553d0     libvcruntime:undname.obj
 0002:000053d8       ??_C@_08GHMPAG@__pascal?$AA@ 00000001800553d8     libvcruntime:undname.obj
 0002:000053e8       ??_C@_09IFJBGAPI@__stdcall?$AA@ 00000001800553e8     libvcruntime:undname.obj
 0002:000053f8       ??_C@_0L@NPHFGOKO@__thiscall?$AA@ 00000001800553f8     libvcruntime:undname.obj
 0002:00005408       ??_C@_0L@JMKHOMEK@__fastcall?$AA@ 0000000180055408     libvcruntime:undname.obj
 0002:00005418       ??_C@_0N@BCKKPABJ@__vectorcall?$AA@ 0000000180055418     libvcruntime:undname.obj
 0002:00005428       ??_C@_09HIJEGCPM@__clrcall?$AA@ 0000000180055428     libvcruntime:undname.obj
 0002:00005434       ??_C@_06GHPCKEAG@__eabi?$AA@ 0000000180055434     libvcruntime:undname.obj
 0002:00005440       ??_C@_07JOMMBBKO@__ptr64?$AA@ 0000000180055440     libvcruntime:undname.obj
 0002:00005448       ??_C@_0L@PILCLIHE@__restrict?$AA@ 0000000180055448     libvcruntime:undname.obj
 0002:00005458       ??_C@_0M@GFIIJFMG@__unaligned?$AA@ 0000000180055458     libvcruntime:undname.obj
 0002:00005468       ??_C@_09DHDLOLLB@restrict?$CI?$AA@ 0000000180055468     libvcruntime:undname.obj
 0002:00005474       ??_C@_04NIHEBCM@?5new?$AA@ 0000000180055474     libvcruntime:undname.obj
 0002:00005480       ??_C@_07FPCDHGMM@?5delete?$AA@ 0000000180055480     libvcruntime:undname.obj
 0002:00005488       ??_C@_01NEMOKFLO@?$DN?$AA@ 0000000180055488     libvcruntime:undname.obj
 0002:0000548c       ??_C@_02GPIOPFAK@?$DO?$DO?$AA@ 000000018005548c     libvcruntime:undname.obj
 0002:00005490       ??_C@_02FODMEDOG@?$DM?$DM?$AA@ 0000000180055490     libvcruntime:undname.obj
 0002:00005494       ??_C@_01DCLJPIOD@?$CB?$AA@ 0000000180055494     libvcruntime:undname.obj
 0002:00005498       ??_C@_02EGOFBIJA@?$DN?$DN?$AA@ 0000000180055498     libvcruntime:undname.obj
 0002:0000549c       ??_C@_02FDNJECIE@?$CB?$DN?$AA@ 000000018005549c     libvcruntime:undname.obj
 0002:000054a0       ??_C@_02GPECMEKF@?$FL?$FN?$AA@ 00000001800554a0     libvcruntime:undname.obj
 0002:000054a8       ??_C@_08LHJFAFGD@operator?$AA@ 00000001800554a8     libvcruntime:undname.obj
 0002:000054b4       ??_C@_02HBOOOICD@?9?$DO?$AA@ 00000001800554b4     libvcruntime:undname.obj
 0002:000054b8       ??_C@_02ECNGHCIF@?$CL?$CL?$AA@ 00000001800554b8     libvcruntime:undname.obj
 0002:000054bc       ??_C@_02BAABKJLB@?9?9?$AA@ 00000001800554bc     libvcruntime:undname.obj
 0002:000054c0       ??_C@_01MIFGBAGJ@?$CL?$AA@ 00000001800554c0     libvcruntime:undname.obj
 0002:000054c4       ??_C@_01HNPIGOCE@?$CG?$AA@ 00000001800554c4     libvcruntime:undname.obj
 0002:000054c8       ??_C@_03MNHNFDLC@?9?$DO?$CK?$AA@ 00000001800554c8     libvcruntime:undname.obj
 0002:000054cc       ??_C@_01KMDKNFGN@?1?$AA@   00000001800554cc     libvcruntime:undname.obj
 0002:000054d0       ??_C@_01FGNFDNOH@?$CF?$AA@ 00000001800554d0     libvcruntime:undname.obj
 0002:000054d4       ??_C@_01MNNFJEPP@?$DM?$AA@ 00000001800554d4     libvcruntime:undname.obj
 0002:000054d8       ??_C@_02EHCHHCKH@?$DM?$DN?$AA@ 00000001800554d8     libvcruntime:undname.obj
 0002:000054dc       ??_C@_01PPODPGHN@?$DO?$AA@ 00000001800554dc     libvcruntime:undname.obj
 0002:000054e0       ??_C@_02EEKDKGMJ@?$DO?$DN?$AA@ 00000001800554e0     libvcruntime:undname.obj
 0002:000054e4       ??_C@_01IHBHIGKO@?0?$AA@   00000001800554e4     libvcruntime:undname.obj
 0002:000054e8       ??_C@_02HCKGKOFO@?$CI?$CJ?$AA@ 00000001800554e8     libvcruntime:undname.obj
 0002:000054ec       ??_C@_01PJKLJHI@?$HO?$AA@  00000001800554ec     libvcruntime:undname.obj
 0002:000054f0       ??_C@_01JKBOJNNK@?$FO?$AA@ 00000001800554f0     libvcruntime:undname.obj
 0002:000054f4       ??_C@_01DNKMNLPK@?$HM?$AA@ 00000001800554f4     libvcruntime:undname.obj
 0002:000054f8       ??_C@_02PPKAJPJL@?$CG?$CG?$AA@ 00000001800554f8     libvcruntime:undname.obj
 0002:000054fc       ??_C@_02NONPIBCD@?$HM?$HM?$AA@ 00000001800554fc     libvcruntime:undname.obj
 0002:00005500       ??_C@_02FPIMKNGF@?$CK?$DN?$AA@ 0000000180055500     libvcruntime:undname.obj
 0002:00005504       ??_C@_02FOEOMHFC@?$CL?$DN?$AA@ 0000000180055504     libvcruntime:undname.obj
 0002:00005508       ??_C@_02FKMDLLOA@?9?$DN?$AA@ 0000000180055508     libvcruntime:undname.obj
 0002:0000550c       ??_C@_02FJEHGPIO@?1?$DN?$AA@ 000000018005550c     libvcruntime:undname.obj
 0002:00005510       ??_C@_02FENAOKFI@?$CF?$DN?$AA@ 0000000180055510     libvcruntime:undname.obj
 0002:00005514       ??_C@_03IKFCCPFF@?$DO?$DO?$DN?$AA@ 0000000180055514     libvcruntime:undname.obj
 0002:00005518       ??_C@_03CDNPDDLA@?$DM?$DM?$DN?$AA@ 0000000180055518     libvcruntime:undname.obj
 0002:0000551c       ??_C@_02FGJGFEAB@?$CG?$DN?$AA@ 000000018005551c     libvcruntime:undname.obj
 0002:00005520       ??_C@_02DHLNPPGH@?$HM?$DN?$AA@ 0000000180055520     libvcruntime:undname.obj
 0002:00005524       ??_C@_02MHEGNOJ@?$FO?$DN?$AA@ 0000000180055524     libvcruntime:undname.obj
 0002:00005528       ??_C@_09IFPLHPGF@?$GAvftable?8?$AA@ 0000000180055528     libvcruntime:undname.obj
 0002:00005538       ??_C@_09BLBHBJP@?$GAvbtable?8?$AA@ 0000000180055538     libvcruntime:undname.obj
 0002:00005548       ??_C@_07FEEIOKP@?$GAvcall?8?$AA@ 0000000180055548     libvcruntime:undname.obj
 0002:00005550       ??_C@_08LLFFHHDJ@?$GAtypeof?8?$AA@ 0000000180055550     libvcruntime:undname.obj
 0002:00005560       ??_C@_0BF@KDPPACIK@?$GAlocal?5static?5guard?8?$AA@ 0000000180055560     libvcruntime:undname.obj
 0002:00005578       ??_C@_08OBABFOLI@?$GAstring?8?$AA@ 0000000180055578     libvcruntime:undname.obj
 0002:00005588       ??_C@_0BD@JDLKDPAB@?$GAvbase?5destructor?8?$AA@ 0000000180055588     libvcruntime:undname.obj
 0002:000055a0       ??_C@_0BN@DEGPLNFK@?$GAvector?5deleting?5destructor?8?$AA@ 00000001800555a0     libvcruntime:undname.obj
 0002:000055c0       ??_C@_0BO@OBMKPJIG@?$GAdefault?5constructor?5closure?8?$AA@ 00000001800555c0     libvcruntime:undname.obj
 0002:000055e0       ??_C@_0BN@IMDCHIKM@?$GAscalar?5deleting?5destructor?8?$AA@ 00000001800555e0     libvcruntime:undname.obj
 0002:00005600       ??_C@_0BO@PFGOCPJJ@?$GAvector?5constructor?5iterator?8?$AA@ 0000000180055600     libvcruntime:undname.obj
 0002:00005620       ??_C@_0BN@LFPFMEDL@?$GAvector?5destructor?5iterator?8?$AA@ 0000000180055620     libvcruntime:undname.obj
 0002:00005640       ??_C@_0CE@IKBNEHA@?$GAvector?5vbase?5constructor?5iterat@ 0000000180055640     libvcruntime:undname.obj
 0002:00005668       ??_C@_0BL@NILFHHPC@?$GAvirtual?5displacement?5map?8?$AA@ 0000000180055668     libvcruntime:undname.obj
 0002:00005688       ??_C@_0CB@JONCMFFK@?$GAeh?5vector?5constructor?5iterator?8@ 0000000180055688     libvcruntime:undname.obj
 0002:000056b0       ??_C@_0CA@GCEOPDGL@?$GAeh?5vector?5destructor?5iterator?8?$AA@ 00000001800556b0     libvcruntime:undname.obj
 0002:000056d0       ??_C@_0CH@OOJPLCPH@?$GAeh?5vector?5vbase?5constructor?5ite@ 00000001800556d0     libvcruntime:undname.obj
 0002:000056f8       ??_C@_0BL@LLKPOHJI@?$GAcopy?5constructor?5closure?8?$AA@ 00000001800556f8     libvcruntime:undname.obj
 0002:00005718       ??_C@_0BA@KBCDOMBN@?$GAudt?5returning?8?$AA@ 0000000180055718     libvcruntime:undname.obj
 0002:00005728       ??_C@_03KLGMFNMG@?$GAEH?$AA@ 0000000180055728     libvcruntime:undname.obj
 0002:0000572c       ??_C@_05KHLCHHI@?$GARTTI?$AA@ 000000018005572c     libvcruntime:undname.obj
 0002:00005738       ??_C@_0BA@KKLDJDLB@?$GAlocal?5vftable?8?$AA@ 0000000180055738     libvcruntime:undname.obj
 0002:00005748       ??_C@_0CE@IIHCMGGL@?$GAlocal?5vftable?5constructor?5closu@ 0000000180055748     libvcruntime:undname.obj
 0002:0000576c       ??_C@_06FHBGPFGH@?5new?$FL?$FN?$AA@ 000000018005576c     libvcruntime:undname.obj
 0002:00005778       ??_C@_09LBNFPBCA@?5delete?$FL?$FN?$AA@ 0000000180055778     libvcruntime:undname.obj
 0002:00005788       ??_C@_0P@HJKNJFNN@?$GAomni?5callsig?8?$AA@ 0000000180055788     libvcruntime:undname.obj
 0002:00005798       ??_C@_0BL@CNOONJFP@?$GAplacement?5delete?5closure?8?$AA@ 0000000180055798     libvcruntime:undname.obj
 0002:000057b8       ??_C@_0BN@CKNJLHMB@?$GAplacement?5delete?$FL?$FN?5closure?8?$AA@ 00000001800557b8     libvcruntime:undname.obj
 0002:000057d8       ??_C@_0CG@CFDHKGGD@?$GAmanaged?5vector?5constructor?5iter@ 00000001800557d8     libvcruntime:undname.obj
 0002:00005800       ??_C@_0CF@IMGKMJNO@?$GAmanaged?5vector?5destructor?5itera@ 0000000180055800     libvcruntime:undname.obj
 0002:00005828       ??_C@_0CG@HLDDJMAG@?$GAeh?5vector?5copy?5constructor?5iter@ 0000000180055828     libvcruntime:undname.obj
 0002:00005850       ??_C@_0CM@FCBBDIGB@?$GAeh?5vector?5vbase?5copy?5constructo@ 0000000180055850     libvcruntime:undname.obj
 0002:00005880       ??_C@_0BL@CLIPGLGB@?$GAdynamic?5initializer?5for?5?8?$AA@ 0000000180055880     libvcruntime:undname.obj
 0002:000058a0       ??_C@_0CB@PDBIFEP@?$GAdynamic?5atexit?5destructor?5for?5?8@ 00000001800558a0     libvcruntime:undname.obj
 0002:000058c8       ??_C@_0CD@CGAJBKEJ@?$GAvector?5copy?5constructor?5iterato@ 00000001800558c8     libvcruntime:undname.obj
 0002:000058f0       ??_C@_0CJ@GJELGAMM@?$GAvector?5vbase?5copy?5constructor?5i@ 00000001800558f0     libvcruntime:undname.obj
 0002:00005920       ??_C@_0CL@FGIJHLCE@?$GAmanaged?5vector?5copy?5constructor@ 0000000180055920     libvcruntime:undname.obj
 0002:00005950       ??_C@_0BM@PMGGMLDN@?$GAlocal?5static?5thread?5guard?8?$AA@ 0000000180055950     libvcruntime:undname.obj
 0002:00005970       ??_C@_0N@BDNMDMOL@operator?5?$CC?$CC?5?$AA@ 0000000180055970     libvcruntime:undname.obj
 0002:00005980       ??_C@_0BC@DAFEJGAK@?5Type?5Descriptor?8?$AA@ 0000000180055980     libvcruntime:undname.obj
 0002:00005998       ??_C@_0BM@LDKODKLH@?5Base?5Class?5Descriptor?5at?5?$CI?$AA@ 0000000180055998     libvcruntime:undname.obj
 0002:000059b8       ??_C@_0BD@LGICGFMM@?5Base?5Class?5Array?8?$AA@ 00000001800559b8     libvcruntime:undname.obj
 0002:000059d0       ??_C@_0BN@MECKDCOJ@?5Class?5Hierarchy?5Descriptor?8?$AA@ 00000001800559d0     libvcruntime:undname.obj
 0002:000059f0       ??_C@_0BK@CFCOFLF@?5Complete?5Object?5Locator?8?$AA@ 00000001800559f0     libvcruntime:undname.obj
 0002:00005a10       standard_lookup_table      0000000180055a10     libucrt:output.obj
 0002:00005a70       format_validation_lookup_table 0000000180055a70     libucrt:output.obj
 0002:00005acc       ??_C@_06OJHGLDPL@?$CInull?$CJ?$AA@ 0000000180055acc     libucrt:output.obj
 0002:00005ad8       ??_C@_1O@CEDCILHN@?$AA?$CI?$AAn?$AAu?$AAl?$AAl?$AA?$CJ?$AA?$AA@ 0000000180055ad8     libucrt:output.obj
 0002:00005ae8       __real@0000000000000000    0000000180055ae8     libucrt:frexp.obj
 0002:00005af0       __real@8000000000000000    0000000180055af0     libucrt:frexp.obj
 0002:00005b00       ??_C@_1EK@MBDPDCGA@?$AAM?$AAi?$AAc?$AAr?$AAo?$AAs?$AAo?$AAf?$AAt?$AA?5?$AAV?$AAi?$AAs?$AAu?$AAa?$AAl?$AA?5?$AAC?$AA?$CL?$AA?$CL?$AA?5?$AAR?$AAu?$AAn?$AAt?$AAi?$AAm?$AAe?$AA?5?$AAL?$AAi?$AAb@ 0000000180055b00     libucrt:assert.obj
 0002:00005b50       ??_C@_1FE@LHBLIKM@?$AAA?$AAs?$AAs?$AAe?$AAr?$AAt?$AAi?$AAo?$AAn?$AA?5?$AAf?$AAa?$AAi?$AAl?$AAe?$AAd?$AA?3?$AA?5?$AA?$CF?$AAT?$AAs?$AA?0?$AA?5?$AAf?$AAi?$AAl?$AAe?$AA?5?$AA?$CF?$AAT?$AAs?$AA?0@ 0000000180055b50     libucrt:assert.obj
 0002:00005ba8       ??_C@_1CE@OJBNHDMO@?$AAA?$AAs?$AAs?$AAe?$AAr?$AAt?$AAi?$AAo?$AAn?$AA?5?$AAf?$AAa?$AAi?$AAl?$AAe?$AAd?$AA?$CB?$AA?$AA@ 0000000180055ba8     libucrt:assert.obj
 0002:00005bd0       ??_C@_1BE@PHKBBGE@?$AAP?$AAr?$AAo?$AAg?$AAr?$AAa?$AAm?$AA?3?$AA?5?$AA?$AA@ 0000000180055bd0     libucrt:assert.obj
 0002:00005be8       ??_C@_1O@HEMHKNDC@?$AAF?$AAi?$AAl?$AAe?$AA?3?$AA?5?$AA?$AA@ 0000000180055be8     libucrt:assert.obj
 0002:00005bf8       ??_C@_1O@KCAFKHJE@?$AAL?$AAi?$AAn?$AAe?$AA?3?$AA?5?$AA?$AA@ 0000000180055bf8     libucrt:assert.obj
 0002:00005c08       ??_C@_1BK@PEDCIPMA@?$AAE?$AAx?$AAp?$AAr?$AAe?$AAs?$AAs?$AAi?$AAo?$AAn?$AA?3?$AA?5?$AA?$AA@ 0000000180055c08     libucrt:assert.obj
 0002:00005c30       ??_C@_1OA@EGMLFBHJ@?$AAF?$AAo?$AAr?$AA?5?$AAi?$AAn?$AAf?$AAo?$AAr?$AAm?$AAa?$AAt?$AAi?$AAo?$AAn?$AA?5?$AAo?$AAn?$AA?5?$AAh?$AAo?$AAw?$AA?5?$AAy?$AAo?$AAu?$AAr?$AA?5?$AAp?$AAr?$AAo?$AAg@ 0000000180055c30     libucrt:assert.obj
 0002:00005d10       ??_C@_1HK@POCJMFGK@?$AA?$CI?$AAP?$AAr?$AAe?$AAs?$AAs?$AA?5?$AAR?$AAe?$AAt?$AAr?$AAy?$AA?5?$AAt?$AAo?$AA?5?$AAd?$AAe?$AAb?$AAu?$AAg?$AA?5?$AAt?$AAh?$AAe?$AA?5?$AAa?$AAp?$AAp?$AAl?$AAi?$AAc@ 0000000180055d10     libucrt:assert.obj
 0002:00005d90       ??_C@_17LGKOMLJ@?$AA?4?$AA?4?$AA?4?$AA?$AA@ 0000000180055d90     libucrt:assert.obj
 0002:00005d98       ??_C@_13LBAGMAIH@?$AA?6?$AA?$AA@ 0000000180055d98     libucrt:assert.obj
 0002:00005d9c       ??_C@_15IABLJNFO@?$AA?6?$AA?6?$AA?$AA@ 0000000180055d9c     libucrt:assert.obj
 0002:00005da8       ??_C@_1CO@EAEJAADC@?$AA?$DM?$AAp?$AAr?$AAo?$AAg?$AAr?$AAa?$AAm?$AA?5?$AAn?$AAa?$AAm?$AAe?$AA?5?$AAu?$AAn?$AAk?$AAn?$AAo?$AAw?$AAn?$AA?$DO?$AA?$AA@ 0000000180055da8     libucrt:assert.obj
 0002:00005de0       __newctype                 0000000180055de0     libucrt:ctype.obj
 0002:000060e0       __newclmap                 00000001800560e0     libucrt:ctype.obj
 0002:00006260       __newcumap                 0000000180056260     libucrt:ctype.obj
 0002:000063e0       _wctype                    00000001800563e0     libucrt:ctype.obj
 0002:00006760       ?large_power_data@?1??multiply_by_power_of_ten@__crt_strtox@@YA_NAEAUbig_integer@2@I@Z@4QBIB 0000000180056760     libucrt:strtod.obj
 0002:00007070       ?large_power_indices@?1??multiply_by_power_of_ten@__crt_strtox@@YA_NAEAUbig_integer@2@I@Z@4QBUunpack_index@?1??12@YA_N0I@Z@B 0000000180057070     libucrt:strtod.obj
 0002:00007108       ?small_powers_of_ten@?6??multiply_by_power_of_ten@__crt_strtox@@YA_NAEAUbig_integer@2@I@Z@4QBIB 0000000180057108     libucrt:strtod.obj
 0002:00008de0       __acrt_exception_action_table 0000000180058de0     libucrt:exception_filter.obj
 0002:00008ea0       __acrt_signal_action_table_count 0000000180058ea0     libucrt:exception_filter.obj
 0002:00008ea8       __acrt_signal_action_first_fpe_index 0000000180058ea8     libucrt:exception_filter.obj
 0002:00008eb0       __acrt_signal_action_fpe_count 0000000180058eb0     libucrt:exception_filter.obj
 0002:00008eb8       ??_C@_1BI@BGOHAHKC@?$AAm?$AAs?$AAc?$AAo?$AAr?$AAe?$AAe?$AA?4?$AAd?$AAl?$AAl?$AA?$AA@ 0000000180058eb8     libucrt:exit.obj
 0002:00008ed0       ??_C@_0P@MIGLKIOC@CorExitProcess?$AA@ 0000000180058ed0     libucrt:exit.obj
 0002:00008fd0       ??_C@_03OEIAHPBN@INF?$AA@  0000000180058fd0     libucrt:cvt.obj
 0002:00008fd4       ??_C@_03OJHLLCGB@inf?$AA@  0000000180058fd4     libucrt:cvt.obj
 0002:00008fd8       ??_C@_03LKNCIKJB@NAN?$AA@  0000000180058fd8     libucrt:cvt.obj
 0002:00008fdc       ??_C@_03LHCJEHON@nan?$AA@  0000000180058fdc     libucrt:cvt.obj
 0002:00008fe0       ??_C@_09OFJJIMPC@NAN?$CISNAN?$CJ?$AA@ 0000000180058fe0     libucrt:cvt.obj
 0002:00008ff0       ??_C@_09IPFBKMDL@nan?$CIsnan?$CJ?$AA@ 0000000180058ff0     libucrt:cvt.obj
 0002:00009000       ??_C@_08IKHNHAJ@NAN?$CIIND?$CJ?$AA@ 0000000180059000     libucrt:cvt.obj
 0002:00009010       ??_C@_08OFCDMILK@nan?$CIind?$CJ?$AA@ 0000000180059010     libucrt:cvt.obj
 0002:0000901c       ??_C@_05KLBDPFGC@e?$CL000?$AA@ 000000018005901c     libucrt:cvt.obj
 0002:00009030       __lc_category              0000000180059030     libucrt:wsetlocale.obj
 0002:000090c0       ??_C@_1O@GIFLHMA@?$AAL?$AAC?$AA_?$AAA?$AAL?$AAL?$AA?$AA@ 00000001800590c0     libucrt:wsetlocale.obj
 0002:000090d0       ??_C@_1BG@PPOMIBNJ@?$AAL?$AAC?$AA_?$AAC?$AAO?$AAL?$AAL?$AAA?$AAT?$AAE?$AA?$AA@ 00000001800590d0     libucrt:wsetlocale.obj
 0002:000090e8       ??_C@_1BC@FFJGAPJM@?$AAL?$AAC?$AA_?$AAC?$AAT?$AAY?$AAP?$AAE?$AA?$AA@ 00000001800590e8     libucrt:wsetlocale.obj
 0002:00009100       ??_C@_1BI@PCKFNJFB@?$AAL?$AAC?$AA_?$AAM?$AAO?$AAN?$AAE?$AAT?$AAA?$AAR?$AAY?$AA?$AA@ 0000000180059100     libucrt:wsetlocale.obj
 0002:00009118       ??_C@_1BG@ENIEDKID@?$AAL?$AAC?$AA_?$AAN?$AAU?$AAM?$AAE?$AAR?$AAI?$AAC?$AA?$AA@ 0000000180059118     libucrt:wsetlocale.obj
 0002:00009130       ??_C@_1BA@HAAOMIIG@?$AAL?$AAC?$AA_?$AAT?$AAI?$AAM?$AAE?$AA?$AA@ 0000000180059130     libucrt:wsetlocale.obj
 0002:000091c0       ??_C@_15NBPDDFIP@?$AA?$DN?$AA?$DL?$AA?$AA@ 00000001800591c0     libucrt:wsetlocale.obj
 0002:000091c8       ??_C@_13PJJBFPED@?$AA?$DL?$AA?$AA@ 00000001800591c8     libucrt:wsetlocale.obj
 0002:000091cc       ??_C@_13NMPKAAJP@?$AA?$DN?$AA?$AA@ 00000001800591cc     libucrt:wsetlocale.obj
 0002:000091d0       ??_C@_13FHBKNHDA@?$AAC?$AA?$AA@ 00000001800591d0     libucrt:wsetlocale.obj
 0002:000091d8       ??_C@_17MBJJLFDM@?$AA_?$AA?4?$AA?0?$AA?$AA@ 00000001800591d8     libucrt:wsetlocale.obj
 0002:000091e0       ??_C@_13ENNFDPBH@?$AA_?$AA?$AA@ 00000001800591e0     libucrt:wsetlocale.obj
 0002:000091e4       ??_C@_13JOFGPIOO@?$AA?4?$AA?$AA@ 00000001800591e4     libucrt:wsetlocale.obj
 0002:000091f0       __lc_time_c                00000001800591f0     libucrt:nlsdata.obj
 0002:000094b0       ??_C@_03KOEHGMDN@Sun?$AA@  00000001800594b0     libucrt:nlsdata.obj
 0002:000094b4       ??_C@_03PDAGKDH@Mon?$AA@   00000001800594b4     libucrt:nlsdata.obj
 0002:000094b8       ??_C@_03NAGEINEP@Tue?$AA@  00000001800594b8     libucrt:nlsdata.obj
 0002:000094bc       ??_C@_03MHOMLAJA@Wed?$AA@  00000001800594bc     libucrt:nlsdata.obj
 0002:000094c0       ??_C@_03IOFIKPDN@Thu?$AA@  00000001800594c0     libucrt:nlsdata.obj
 0002:000094c4       ??_C@_03IDIOELNC@Fri?$AA@  00000001800594c4     libucrt:nlsdata.obj
 0002:000094c8       ??_C@_03FEFJNEK@Sat?$AA@   00000001800594c8     libucrt:nlsdata.obj
 0002:000094cc       ??_C@_06OOPIFAJ@Sunday?$AA@ 00000001800594cc     libucrt:nlsdata.obj
 0002:000094d4       ??_C@_06JLEDEDGH@Monday?$AA@ 00000001800594d4     libucrt:nlsdata.obj
 0002:000094e0       ??_C@_07BAAGCFCM@Tuesday?$AA@ 00000001800594e0     libucrt:nlsdata.obj
 0002:000094e8       ??_C@_09DLIGFAKA@Wednesday?$AA@ 00000001800594e8     libucrt:nlsdata.obj
 0002:000094f8       ??_C@_08HACCIKIA@Thursday?$AA@ 00000001800594f8     libucrt:nlsdata.obj
 0002:00009504       ??_C@_06JECMNKMI@Friday?$AA@ 0000000180059504     libucrt:nlsdata.obj
 0002:00009510       ??_C@_08INBOOONO@Saturday?$AA@ 0000000180059510     libucrt:nlsdata.obj
 0002:0000951c       ??_C@_03JIHJHPIE@Jan?$AA@  000000018005951c     libucrt:nlsdata.obj
 0002:00009520       ??_C@_03HJBDCHOM@Feb?$AA@  0000000180059520     libucrt:nlsdata.obj
 0002:00009524       ??_C@_03ODNJBKGA@Mar?$AA@  0000000180059524     libucrt:nlsdata.obj
 0002:00009528       ??_C@_03LEOLGMJP@Apr?$AA@  0000000180059528     libucrt:nlsdata.obj
 0002:0000952c       ??_C@_03CNMDKL@May?$AA@    000000018005952c     libucrt:nlsdata.obj
 0002:00009530       ??_C@_03IDFGHECI@Jun?$AA@  0000000180059530     libucrt:nlsdata.obj
 0002:00009534       ??_C@_03LBGABGKK@Jul?$AA@  0000000180059534     libucrt:nlsdata.obj
 0002:00009538       ??_C@_03IFJFEIGA@Aug?$AA@  0000000180059538     libucrt:nlsdata.obj
 0002:0000953c       ??_C@_03GGCAPAJC@Sep?$AA@  000000018005953c     libucrt:nlsdata.obj
 0002:00009540       ??_C@_03BMAOKBAD@Oct?$AA@  0000000180059540     libucrt:nlsdata.obj
 0002:00009544       ??_C@_03JPJOFNIA@Nov?$AA@  0000000180059544     libucrt:nlsdata.obj
 0002:00009548       ??_C@_03MKABNOCG@Dec?$AA@  0000000180059548     libucrt:nlsdata.obj
 0002:00009550       ??_C@_07CGJPFGJA@January?$AA@ 0000000180059550     libucrt:nlsdata.obj
 0002:00009558       ??_C@_08GNJGEPFN@February?$AA@ 0000000180059558     libucrt:nlsdata.obj
 0002:00009564       ??_C@_05HPCKOFNC@March?$AA@ 0000000180059564     libucrt:nlsdata.obj
 0002:0000956c       ??_C@_05DMJDNLEJ@April?$AA@ 000000018005956c     libucrt:nlsdata.obj
 0002:00009574       ??_C@_04CNLMGBGM@June?$AA@ 0000000180059574     libucrt:nlsdata.obj
 0002:0000957c       ??_C@_04MIEPOIFP@July?$AA@ 000000018005957c     libucrt:nlsdata.obj
 0002:00009584       ??_C@_06LBBHFDDG@August?$AA@ 0000000180059584     libucrt:nlsdata.obj
 0002:00009590       ??_C@_09BHHEALKD@September?$AA@ 0000000180059590     libucrt:nlsdata.obj
 0002:000095a0       ??_C@_07JJNFCEND@October?$AA@ 00000001800595a0     libucrt:nlsdata.obj
 0002:000095a8       ??_C@_08HCHEGEOA@November?$AA@ 00000001800595a8     libucrt:nlsdata.obj
 0002:000095b8       ??_C@_08EDHMEBNP@December?$AA@ 00000001800595b8     libucrt:nlsdata.obj
 0002:000095c4       ??_C@_02DEDBPAFC@AM?$AA@   00000001800595c4     libucrt:nlsdata.obj
 0002:000095c8       ??_C@_02CJNFDJBF@PM?$AA@   00000001800595c8     libucrt:nlsdata.obj
 0002:000095d0       ??_C@_08BPBNCDIB@MM?1dd?1yy?$AA@ 00000001800595d0     libucrt:nlsdata.obj
 0002:000095e0       ??_C@_0BE@CKGJFCPC@dddd?0?5MMMM?5dd?0?5yyyy?$AA@ 00000001800595e0     libucrt:nlsdata.obj
 0002:000095f8       ??_C@_08JCCMCCIL@HH?3mm?3ss?$AA@ 00000001800595f8     libucrt:nlsdata.obj
 0002:00009608       ??_C@_17MBGCMIPB@?$AAS?$AAu?$AAn?$AA?$AA@ 0000000180059608     libucrt:nlsdata.obj
 0002:00009610       ??_C@_17KBOMKBF@?$AAM?$AAo?$AAn?$AA?$AA@ 0000000180059610     libucrt:nlsdata.obj
 0002:00009618       ??_C@_17BMKGEGOJ@?$AAT?$AAu?$AAe?$AA?$AA@ 0000000180059618     libucrt:nlsdata.obj
 0002:00009620       ??_C@_17CJEDCEPE@?$AAW?$AAe?$AAd?$AA?$AA@ 0000000180059620     libucrt:nlsdata.obj
 0002:00009628       ??_C@_17PDPHAADD@?$AAT?$AAh?$AAu?$AA?$AA@ 0000000180059628     libucrt:nlsdata.obj
 0002:00009630       ??_C@_17HFOLPPLP@?$AAF?$AAr?$AAi?$AA?$AA@ 0000000180059630     libucrt:nlsdata.obj
 0002:00009638       ??_C@_17GGIBDPIH@?$AAS?$AAa?$AAt?$AA?$AA@ 0000000180059638     libucrt:nlsdata.obj
 0002:00009640       ??_C@_1O@IHNHDHPB@?$AAS?$AAu?$AAn?$AAd?$AAa?$AAy?$AA?$AA@ 0000000180059640     libucrt:nlsdata.obj
 0002:00009650       ??_C@_1O@MMNBFLIA@?$AAM?$AAo?$AAn?$AAd?$AAa?$AAy?$AA?$AA@ 0000000180059650     libucrt:nlsdata.obj
 0002:00009660       ??_C@_1BA@ENFBFFEK@?$AAT?$AAu?$AAe?$AAs?$AAd?$AAa?$AAy?$AA?$AA@ 0000000180059660     libucrt:nlsdata.obj
 0002:00009670       ??_C@_1BE@EBOGMDOH@?$AAW?$AAe?$AAd?$AAn?$AAe?$AAs?$AAd?$AAa?$AAy?$AA?$AA@ 0000000180059670     libucrt:nlsdata.obj
 0002:00009688       ??_C@_1BC@HHMNLIHE@?$AAT?$AAh?$AAu?$AAr?$AAs?$AAd?$AAa?$AAy?$AA?$AA@ 0000000180059688     libucrt:nlsdata.obj
 0002:000096a0       ??_C@_1O@PDICJHAG@?$AAF?$AAr?$AAi?$AAd?$AAa?$AAy?$AA?$AA@ 00000001800596a0     libucrt:nlsdata.obj
 0002:000096b0       ??_C@_1BC@ENMNNPAJ@?$AAS?$AAa?$AAt?$AAu?$AAr?$AAd?$AAa?$AAy?$AA?$AA@ 00000001800596b0     libucrt:nlsdata.obj
 0002:000096c8       ??_C@_17DKNBKCHM@?$AAJ?$AAa?$AAn?$AA?$AA@ 00000001800596c8     libucrt:nlsdata.obj
 0002:000096d0       ??_C@_17LMDJEKJN@?$AAF?$AAe?$AAb?$AA?$AA@ 00000001800596d0     libucrt:nlsdata.obj
 0002:000096d8       ??_C@_17CKNLEDEC@?$AAM?$AAa?$AAr?$AA?$AA@ 00000001800596d8     libucrt:nlsdata.obj
 0002:000096e0       ??_C@_17LFPOIHDD@?$AAA?$AAp?$AAr?$AA?$AA@ 00000001800596e0     libucrt:nlsdata.obj
 0002:000096e8       ??_C@_17PNNKMEED@?$AAM?$AAa?$AAy?$AA?$AA@ 00000001800596e8     libucrt:nlsdata.obj
 0002:000096f0       ??_C@_17KCJGOCPB@?$AAJ?$AAu?$AAn?$AA?$AA@ 00000001800596f0     libucrt:nlsdata.obj
 0002:000096f8       ??_C@_17IJPCKHK@?$AAJ?$AAu?$AAl?$AA?$AA@ 00000001800596f8     libucrt:nlsdata.obj
 0002:00009700       ??_C@_17ICPELBCN@?$AAA?$AAu?$AAg?$AA?$AA@ 0000000180059700     libucrt:nlsdata.obj
 0002:00009708       ??_C@_17HCHCOKMG@?$AAS?$AAe?$AAp?$AA?$AA@ 0000000180059708     libucrt:nlsdata.obj
 0002:00009710       ??_C@_17FNLKOI@?$AAO?$AAc?$AAt?$AA?$AA@ 0000000180059710     libucrt:nlsdata.obj
 0002:00009718       ??_C@_17BBDMLCIG@?$AAN?$AAo?$AAv?$AA?$AA@ 0000000180059718     libucrt:nlsdata.obj
 0002:00009720       ??_C@_17EGKACKIF@?$AAD?$AAe?$AAc?$AA?$AA@ 0000000180059720     libucrt:nlsdata.obj
 0002:00009728       ??_C@_1BA@EFMEIEBA@?$AAJ?$AAa?$AAn?$AAu?$AAa?$AAr?$AAy?$AA?$AA@ 0000000180059728     libucrt:nlsdata.obj
 0002:00009738       ??_C@_1BC@JGDDFFAM@?$AAF?$AAe?$AAb?$AAr?$AAu?$AAa?$AAr?$AAy?$AA?$AA@ 0000000180059738     libucrt:nlsdata.obj
 0002:00009750       ??_C@_1M@IKEENEDF@?$AAM?$AAa?$AAr?$AAc?$AAh?$AA?$AA@ 0000000180059750     libucrt:nlsdata.obj
 0002:00009760       ??_C@_1M@GJNLMHFD@?$AAA?$AAp?$AAr?$AAi?$AAl?$AA?$AA@ 0000000180059760     libucrt:nlsdata.obj
 0002:00009770       ??_C@_19EPFLPGAP@?$AAJ?$AAu?$AAn?$AAe?$AA?$AA@ 0000000180059770     libucrt:nlsdata.obj
 0002:00009780       ??_C@_19BIFMLPCD@?$AAJ?$AAu?$AAl?$AAy?$AA?$AA@ 0000000180059780     libucrt:nlsdata.obj
 0002:00009790       ??_C@_1O@PAHLKOAC@?$AAA?$AAu?$AAg?$AAu?$AAs?$AAt?$AA?$AA@ 0000000180059790     libucrt:nlsdata.obj
 0002:000097a0       ??_C@_1BE@DKAAMBJL@?$AAS?$AAe?$AAp?$AAt?$AAe?$AAm?$AAb?$AAe?$AAr?$AA?$AA@ 00000001800597a0     libucrt:nlsdata.obj
 0002:000097b8       ??_C@_1BA@EPANDLNG@?$AAO?$AAc?$AAt?$AAo?$AAb?$AAe?$AAr?$AA?$AA@ 00000001800597b8     libucrt:nlsdata.obj
 0002:000097c8       ??_C@_1BC@BGLIFPF@?$AAN?$AAo?$AAv?$AAe?$AAm?$AAb?$AAe?$AAr?$AA?$AA@ 00000001800597c8     libucrt:nlsdata.obj
 0002:000097e0       ??_C@_1BC@FEMKIFH@?$AAD?$AAe?$AAc?$AAe?$AAm?$AAb?$AAe?$AAr?$AA?$AA@ 00000001800597e0     libucrt:nlsdata.obj
 0002:000097f4       ??_C@_15ODEHAHHF@?$AAA?$AAM?$AA?$AA@ 00000001800597f4     libucrt:nlsdata.obj
 0002:000097fc       ??_C@_15CLMNNGEL@?$AAP?$AAM?$AA?$AA@ 00000001800597fc     libucrt:nlsdata.obj
 0002:00009808       ??_C@_1BC@IEBCMHCM@?$AAM?$AAM?$AA?1?$AAd?$AAd?$AA?1?$AAy?$AAy?$AA?$AA@ 0000000180059808     libucrt:nlsdata.obj
 0002:00009820       ??_C@_1CI@KNAKOEBC@?$AAd?$AAd?$AAd?$AAd?$AA?0?$AA?5?$AAM?$AAM?$AAM?$AAM?$AA?5?$AAd?$AAd?$AA?0?$AA?5?$AAy?$AAy?$AAy?$AAy?$AA?$AA@ 0000000180059820     libucrt:nlsdata.obj
 0002:00009848       ??_C@_1BC@GDGBMEMK@?$AAH?$AAH?$AA?3?$AAm?$AAm?$AA?3?$AAs?$AAs?$AA?$AA@ 0000000180059848     libucrt:nlsdata.obj
 0002:00009a30       ??_C@_03KHJOGHMM@exp?$AA@  0000000180059a30     libucrt:fpexcept.obj
 0002:00009a34       ??_C@_03JGHBODFD@pow?$AA@  0000000180059a34     libucrt:fpexcept.obj
 0002:00009a38       ??_C@_03MGHMBJCF@log?$AA@  0000000180059a38     libucrt:fpexcept.obj
 0002:00009a3c       ??_C@_05HGHHAHAP@log10?$AA@ 0000000180059a3c     libucrt:fpexcept.obj
 0002:00009a44       ??_C@_04COOMCNPB@sinh?$AA@ 0000000180059a44     libucrt:fpexcept.obj
 0002:00009a4c       ??_C@_04HPJJNFIM@cosh?$AA@ 0000000180059a4c     libucrt:fpexcept.obj
 0002:00009a54       ??_C@_04FJHINJAO@tanh?$AA@ 0000000180059a54     libucrt:fpexcept.obj
 0002:00009a5c       ??_C@_04FIHNOPOL@asin?$AA@ 0000000180059a5c     libucrt:fpexcept.obj
 0002:00009a64       ??_C@_04PDIFKINK@acos?$AA@ 0000000180059a64     libucrt:fpexcept.obj
 0002:00009a6c       ??_C@_04MLLJIGOK@atan?$AA@ 0000000180059a6c     libucrt:fpexcept.obj
 0002:00009a74       ??_C@_05KNGEOGJB@atan2?$AA@ 0000000180059a74     libucrt:fpexcept.obj
 0002:00009a7c       ??_C@_04EIAKFFMI@sqrt?$AA@ 0000000180059a7c     libucrt:fpexcept.obj
 0002:00009a84       ??_C@_03BLEJJJBH@sin?$AA@  0000000180059a84     libucrt:fpexcept.obj
 0002:00009a88       ??_C@_03LALBNOCG@cos?$AA@  0000000180059a88     libucrt:fpexcept.obj
 0002:00009a8c       ??_C@_03IIINPABG@tan?$AA@  0000000180059a8c     libucrt:fpexcept.obj
 0002:00009a90       ??_C@_04GFPJNGEK@ceil?$AA@ 0000000180059a90     libucrt:fpexcept.obj
 0002:00009a98       ??_C@_05PBJFFIGL@floor?$AA@ 0000000180059a98     libucrt:fpexcept.obj
 0002:00009aa0       ??_C@_04ODHECPBC@fabs?$AA@ 0000000180059aa0     libucrt:fpexcept.obj
 0002:00009aa8       ??_C@_04EHEDPDJG@modf?$AA@ 0000000180059aa8     libucrt:fpexcept.obj
 0002:00009ab0       ??_C@_05CEJMAHNP@ldexp?$AA@ 0000000180059ab0     libucrt:fpexcept.obj
 0002:00009ab8       ??_C@_05KBKMEMPO@_cabs?$AA@ 0000000180059ab8     libucrt:fpexcept.obj
 0002:00009ac0       ??_C@_06MEIMCGCF@_hypot?$AA@ 0000000180059ac0     libucrt:fpexcept.obj
 0002:00009ac8       ??_C@_04KEPJIHGP@fmod?$AA@ 0000000180059ac8     libucrt:fpexcept.obj
 0002:00009ad0       ??_C@_05GKKHEGJL@frexp?$AA@ 0000000180059ad0     libucrt:fpexcept.obj
 0002:00009ad8       ??_C@_03MJLDFKDL@_y0?$AA@  0000000180059ad8     libucrt:fpexcept.obj
 0002:00009adc       ??_C@_03NAKIGLHK@_y1?$AA@  0000000180059adc     libucrt:fpexcept.obj
 0002:00009ae0       ??_C@_03ONILCKOB@_yn?$AA@  0000000180059ae0     libucrt:fpexcept.obj
 0002:00009ae4       ??_C@_05JGDBENOH@_logb?$AA@ 0000000180059ae4     libucrt:fpexcept.obj
 0002:00009af0       ??_C@_0L@KDOEJCKC@_nextafter?$AA@ 0000000180059af0     libucrt:fpexcept.obj
 0002:00009b00       _d_inf                     0000000180059b00     libucrt:util.obj
 0002:00009b08       _d_max                     0000000180059b08     libucrt:util.obj
 0002:00009bb0       ??_C@_1EG@CNNIPFIM@?$AAa?$AAp?$AAi?$AA?9?$AAm?$AAs?$AA?9?$AAw?$AAi?$AAn?$AA?9?$AAa?$AAp?$AAp?$AAm?$AAo?$AAd?$AAe?$AAl?$AA?9?$AAr?$AAu?$AAn?$AAt?$AAi?$AAm?$AAe?$AA?9?$AAl?$AA1?$AA?9?$AA1@ 0000000180059bb0     libucrt:winapi_thunks.obj
 0002:00009c00       ??_C@_1EA@JGEFHKEI@?$AAa?$AAp?$AAi?$AA?9?$AAm?$AAs?$AA?9?$AAw?$AAi?$AAn?$AA?9?$AAc?$AAo?$AAr?$AAe?$AA?9?$AAd?$AAa?$AAt?$AAe?$AAt?$AAi?$AAm?$AAe?$AA?9?$AAl?$AA1?$AA?9?$AA1?$AA?9?$AA1?$AA?$AA@ 0000000180059c00     libucrt:winapi_thunks.obj
 0002:00009c40       ??_C@_1DI@GCIAAENM@?$AAa?$AAp?$AAi?$AA?9?$AAm?$AAs?$AA?9?$AAw?$AAi?$AAn?$AA?9?$AAc?$AAo?$AAr?$AAe?$AA?9?$AAf?$AAi?$AAl?$AAe?$AA?9?$AAl?$AA2?$AA?9?$AA1?$AA?9?$AA1?$AA?$AA@ 0000000180059c40     libucrt:winapi_thunks.obj
 0002:00009c80       ??_C@_1EI@MPIAOHOC@?$AAa?$AAp?$AAi?$AA?9?$AAm?$AAs?$AA?9?$AAw?$AAi?$AAn?$AA?9?$AAc?$AAo?$AAr?$AAe?$AA?9?$AAl?$AAo?$AAc?$AAa?$AAl?$AAi?$AAz?$AAa?$AAt?$AAi?$AAo?$AAn?$AA?9?$AAl?$AA1?$AA?9@ 0000000180059c80     libucrt:winapi_thunks.obj
 0002:00009cd0       ??_C@_1FK@FPHCKFIE@?$AAa?$AAp?$AAi?$AA?9?$AAm?$AAs?$AA?9?$AAw?$AAi?$AAn?$AA?9?$AAc?$AAo?$AAr?$AAe?$AA?9?$AAl?$AAo?$AAc?$AAa?$AAl?$AAi?$AAz?$AAa?$AAt?$AAi?$AAo?$AAn?$AA?9?$AAo?$AAb?$AAs@ 0000000180059cd0     libucrt:winapi_thunks.obj
 0002:00009d30       ??_C@_1EM@DILCGIIO@?$AAa?$AAp?$AAi?$AA?9?$AAm?$AAs?$AA?9?$AAw?$AAi?$AAn?$AA?9?$AAc?$AAo?$AAr?$AAe?$AA?9?$AAp?$AAr?$AAo?$AAc?$AAe?$AAs?$AAs?$AAt?$AAh?$AAr?$AAe?$AAa?$AAd?$AAs?$AA?9?$AAl@ 0000000180059d30     libucrt:winapi_thunks.obj
 0002:00009d80       ??_C@_1DM@LNCGDDPN@?$AAa?$AAp?$AAi?$AA?9?$AAm?$AAs?$AA?9?$AAw?$AAi?$AAn?$AA?9?$AAc?$AAo?$AAr?$AAe?$AA?9?$AAs?$AAt?$AAr?$AAi?$AAn?$AAg?$AA?9?$AAl?$AA1?$AA?9?$AA1?$AA?9?$AA0?$AA?$AA@ 0000000180059d80     libucrt:winapi_thunks.obj
 0002:00009dc0       ??_C@_1DO@FPAPJEMD@?$AAa?$AAp?$AAi?$AA?9?$AAm?$AAs?$AA?9?$AAw?$AAi?$AAn?$AA?9?$AAc?$AAo?$AAr?$AAe?$AA?9?$AAs?$AAy?$AAs?$AAi?$AAn?$AAf?$AAo?$AA?9?$AAl?$AA1?$AA?9?$AA2?$AA?9?$AA1?$AA?$AA@ 0000000180059dc0     libucrt:winapi_thunks.obj
 0002:00009e00       ??_C@_1DK@NDHNAHIO@?$AAa?$AAp?$AAi?$AA?9?$AAm?$AAs?$AA?9?$AAw?$AAi?$AAn?$AA?9?$AAc?$AAo?$AAr?$AAe?$AA?9?$AAw?$AAi?$AAn?$AAr?$AAt?$AA?9?$AAl?$AA1?$AA?9?$AA1?$AA?9?$AA0?$AA?$AA@ 0000000180059e00     libucrt:winapi_thunks.obj
 0002:00009e40       ??_C@_1DM@KGHDGBCM@?$AAa?$AAp?$AAi?$AA?9?$AAm?$AAs?$AA?9?$AAw?$AAi?$AAn?$AA?9?$AAc?$AAo?$AAr?$AAe?$AA?9?$AAx?$AAs?$AAt?$AAa?$AAt?$AAe?$AA?9?$AAl?$AA2?$AA?9?$AA1?$AA?9?$AA0?$AA?$AA@ 0000000180059e40     libucrt:winapi_thunks.obj
 0002:00009e80       ??_C@_1EO@IJIOEFOH@?$AAa?$AAp?$AAi?$AA?9?$AAm?$AAs?$AA?9?$AAw?$AAi?$AAn?$AA?9?$AAr?$AAt?$AAc?$AAo?$AAr?$AAe?$AA?9?$AAn?$AAt?$AAu?$AAs?$AAe?$AAr?$AA?9?$AAw?$AAi?$AAn?$AAd?$AAo?$AAw?$AA?9@ 0000000180059e80     libucrt:winapi_thunks.obj
 0002:00009ed0       ??_C@_1FG@HHGEKANL@?$AAa?$AAp?$AAi?$AA?9?$AAm?$AAs?$AA?9?$AAw?$AAi?$AAn?$AA?9?$AAs?$AAe?$AAc?$AAu?$AAr?$AAi?$AAt?$AAy?$AA?9?$AAs?$AAy?$AAs?$AAt?$AAe?$AAm?$AAf?$AAu?$AAn?$AAc?$AAt?$AAi@ 0000000180059ed0     libucrt:winapi_thunks.obj
 0002:00009f30       ??_C@_1FG@NCKKOLKO@?$AAe?$AAx?$AAt?$AA?9?$AAm?$AAs?$AA?9?$AAw?$AAi?$AAn?$AA?9?$AAk?$AAe?$AAr?$AAn?$AAe?$AAl?$AA3?$AA2?$AA?9?$AAp?$AAa?$AAc?$AAk?$AAa?$AAg?$AAe?$AA?9?$AAc?$AAu?$AAr?$AAr@ 0000000180059f30     libucrt:winapi_thunks.obj
 0002:00009f90       ??_C@_1EG@DBIOJECG@?$AAe?$AAx?$AAt?$AA?9?$AAm?$AAs?$AA?9?$AAw?$AAi?$AAn?$AA?9?$AAn?$AAt?$AAu?$AAs?$AAe?$AAr?$AA?9?$AAd?$AAi?$AAa?$AAl?$AAo?$AAg?$AAb?$AAo?$AAx?$AA?9?$AAl?$AA1?$AA?9?$AA1@ 0000000180059f90     libucrt:winapi_thunks.obj
 0002:00009fe0       ??_C@_1EO@FIHMJCLF@?$AAe?$AAx?$AAt?$AA?9?$AAm?$AAs?$AA?9?$AAw?$AAi?$AAn?$AA?9?$AAn?$AAt?$AAu?$AAs?$AAe?$AAr?$AA?9?$AAw?$AAi?$AAn?$AAd?$AAo?$AAw?$AAs?$AAt?$AAa?$AAt?$AAi?$AAo?$AAn?$AA?9@ 0000000180059fe0     libucrt:winapi_thunks.obj
 0002:0000a030       ??_C@_1O@BCCLBEOE@?$AAu?$AAs?$AAe?$AAr?$AA3?$AA2?$AA?$AA@ 000000018005a030     libucrt:winapi_thunks.obj
 0002:0000a050       ??_C@_0BE@LJANKFHF@EnumSystemLocalesEx?$AA@ 000000018005a050     libucrt:winapi_thunks.obj
 0002:0000a090       ??_C@_0BA@HNOPNCHB@GetActiveWindow?$AA@ 000000018005a090     libucrt:winapi_thunks.obj
 0002:0000a0b0       ??_C@_0BD@HHGDFDBJ@GetLastActivePopup?$AA@ 000000018005a0b0     libucrt:winapi_thunks.obj
 0002:0000a0d8       ??_C@_0BI@DFKBFLJE@GetProcessWindowStation?$AA@ 000000018005a0d8     libucrt:winapi_thunks.obj
 0002:0000a100       ??_C@_0BJ@PBCCBIPI@GetUserDefaultLocaleName?$AA@ 000000018005a100     libucrt:winapi_thunks.obj
 0002:0000a128       ??_C@_0BK@DEKFELLI@GetUserObjectInformationW?$AA@ 000000018005a128     libucrt:winapi_thunks.obj
 0002:0000a158       ??_C@_0BC@CELBKLLA@IsValidLocaleName?$AA@ 000000018005a158     libucrt:winapi_thunks.obj
 0002:0000a180       ??_C@_0BB@CDHDDLLP@LCIDToLocaleName?$AA@ 000000018005a180     libucrt:winapi_thunks.obj
 0002:0000a1a0       ??_C@_0BB@HBDEELFH@LocaleNameToLCID?$AA@ 000000018005a1a0     libucrt:winapi_thunks.obj
 0002:0000a1c0       ??_C@_0M@CHKKJDAI@MessageBoxA?$AA@ 000000018005a1c0     libucrt:winapi_thunks.obj
 0002:0000a1d8       ??_C@_0M@DLDCCGNP@MessageBoxW?$AA@ 000000018005a1d8     libucrt:winapi_thunks.obj
 0002:0000a1f0       __log_256_lead             000000018005a1f0     libucrt:log_256_lead_tail_table.obj
 0002:0000aa00       __log_256_tail             000000018005aa00     libucrt:log_256_lead_tail_table.obj
 0002:0000b210       __two_to_jby64_head_table  000000018005b210     libucrt:two_to_jby64_head_tail_table.obj
 0002:0000b410       __two_to_jby64_tail_table  000000018005b410     libucrt:two_to_jby64_head_tail_table.obj
 0002:0000b610       ??_C@_04MBFDLNIM@powf?$AA@ 000000018005b610     libucrt:pow_special.obj
 0002:0000b620       __two_to_jby64_table       000000018005b620     libucrt:two_to_jby64_table.obj
 0002:0000b820       __log_F_inv_qword          000000018005b820     libucrt:log_f_inv_qword_table.obj
 0002:0000c050       ??_C@_01GBGANLPD@0?$AA@    000000018005c050     libucrt:cfout.obj
 0002:0000c054       ??_C@_05DNEBIAHO@1?$CDINF?$AA@ 000000018005c054     libucrt:cfout.obj
 0002:0000c05c       ??_C@_06IMKFLFPG@1?$CDQNAN?$AA@ 000000018005c05c     libucrt:cfout.obj
 0002:0000c064       ??_C@_06PGGFOGJG@1?$CDSNAN?$AA@ 000000018005c064     libucrt:cfout.obj
 0002:0000c06c       ??_C@_05PHHOCPM@1?$CDIND?$AA@ 000000018005c06c     libucrt:cfout.obj
 0002:0000c080       __acrt_rg_language         000000018005c080     libucrt:get_qualified_locale.obj
 0002:0000c490       __acrt_rg_language_count   000000018005c490     libucrt:get_qualified_locale.obj
 0002:0000c4a0       __acrt_rg_country          000000018005c4a0     libucrt:get_qualified_locale.obj
 0002:0000c610       __acrt_rg_country_count    000000018005c610     libucrt:get_qualified_locale.obj
 0002:0000c618       ??_C@_1BC@LLOKLNP@?$AAa?$AAm?$AAe?$AAr?$AAi?$AAc?$AAa?$AAn?$AA?$AA@ 000000018005c618     libucrt:get_qualified_locale.obj
 0002:0000c630       ??_C@_1CC@HEIGCDGG@?$AAa?$AAm?$AAe?$AAr?$AAi?$AAc?$AAa?$AAn?$AA?5?$AAe?$AAn?$AAg?$AAl?$AAi?$AAs?$AAh?$AA?$AA@ 000000018005c630     libucrt:get_qualified_locale.obj
 0002:0000c658       ??_C@_1CC@IHCNOMIN@?$AAa?$AAm?$AAe?$AAr?$AAi?$AAc?$AAa?$AAn?$AA?9?$AAe?$AAn?$AAg?$AAl?$AAi?$AAs?$AAh?$AA?$AA@ 000000018005c658     libucrt:get_qualified_locale.obj
 0002:0000c680       ??_C@_1BG@GKAGPCGG@?$AAa?$AAu?$AAs?$AAt?$AAr?$AAa?$AAl?$AAi?$AAa?$AAn?$AA?$AA@ 000000018005c680     libucrt:get_qualified_locale.obj
 0002:0000c698       ??_C@_1BA@GMENCENF@?$AAb?$AAe?$AAl?$AAg?$AAi?$AAa?$AAn?$AA?$AA@ 000000018005c698     libucrt:get_qualified_locale.obj
 0002:0000c6a8       ??_C@_1BC@PJMIIAAN@?$AAc?$AAa?$AAn?$AAa?$AAd?$AAi?$AAa?$AAn?$AA?$AA@ 000000018005c6a8     libucrt:get_qualified_locale.obj
 0002:0000c6c0       ??_C@_17NOIMNFBF@?$AAc?$AAh?$AAh?$AA?$AA@ 000000018005c6c0     libucrt:get_qualified_locale.obj
 0002:0000c6c8       ??_C@_17GGDALCHA@?$AAc?$AAh?$AAi?$AA?$AA@ 000000018005c6c8     libucrt:get_qualified_locale.obj
 0002:0000c6d0       ??_C@_1BA@NPNJKIBL@?$AAc?$AAh?$AAi?$AAn?$AAe?$AAs?$AAe?$AA?$AA@ 000000018005c6d0     libucrt:get_qualified_locale.obj
 0002:0000c6e0       ??_C@_1CC@DINBAMMJ@?$AAc?$AAh?$AAi?$AAn?$AAe?$AAs?$AAe?$AA?9?$AAh?$AAo?$AAn?$AAg?$AAk?$AAo?$AAn?$AAg?$AA?$AA@ 000000018005c6e0     libucrt:get_qualified_locale.obj
 0002:0000c708       ??_C@_1CG@IOBJPACO@?$AAc?$AAh?$AAi?$AAn?$AAe?$AAs?$AAe?$AA?9?$AAs?$AAi?$AAm?$AAp?$AAl?$AAi?$AAf?$AAi?$AAe?$AAd?$AA?$AA@ 000000018005c708     libucrt:get_qualified_locale.obj
 0002:0000c730       ??_C@_1CE@GAJNDCKG@?$AAc?$AAh?$AAi?$AAn?$AAe?$AAs?$AAe?$AA?9?$AAs?$AAi?$AAn?$AAg?$AAa?$AAp?$AAo?$AAr?$AAe?$AA?$AA@ 000000018005c730     libucrt:get_qualified_locale.obj
 0002:0000c758       ??_C@_1CI@PAJPIOOD@?$AAc?$AAh?$AAi?$AAn?$AAe?$AAs?$AAe?$AA?9?$AAt?$AAr?$AAa?$AAd?$AAi?$AAt?$AAi?$AAo?$AAn?$AAa?$AAl?$AA?$AA@ 000000018005c758     libucrt:get_qualified_locale.obj
 0002:0000c780       ??_C@_1BM@NILJBMMD@?$AAd?$AAu?$AAt?$AAc?$AAh?$AA?9?$AAb?$AAe?$AAl?$AAg?$AAi?$AAa?$AAn?$AA?$AA@ 000000018005c780     libucrt:get_qualified_locale.obj
 0002:0000c7a0       ??_C@_1CC@OOJPJNEJ@?$AAe?$AAn?$AAg?$AAl?$AAi?$AAs?$AAh?$AA?9?$AAa?$AAm?$AAe?$AAr?$AAi?$AAc?$AAa?$AAn?$AA?$AA@ 000000018005c7a0     libucrt:get_qualified_locale.obj
 0002:0000c7c8       ??_C@_1BI@IOLFEEM@?$AAe?$AAn?$AAg?$AAl?$AAi?$AAs?$AAh?$AA?9?$AAa?$AAu?$AAs?$AA?$AA@ 000000018005c7c8     libucrt:get_qualified_locale.obj
 0002:0000c7e0       ??_C@_1BO@HFFNLENJ@?$AAe?$AAn?$AAg?$AAl?$AAi?$AAs?$AAh?$AA?9?$AAb?$AAe?$AAl?$AAi?$AAz?$AAe?$AA?$AA@ 000000018005c7e0     libucrt:get_qualified_locale.obj
 0002:0000c800       ??_C@_1BI@HAPKJMPO@?$AAe?$AAn?$AAg?$AAl?$AAi?$AAs?$AAh?$AA?9?$AAc?$AAa?$AAn?$AA?$AA@ 000000018005c800     libucrt:get_qualified_locale.obj
 0002:0000c818       ??_C@_1CE@HLNDMIOJ@?$AAe?$AAn?$AAg?$AAl?$AAi?$AAs?$AAh?$AA?9?$AAc?$AAa?$AAr?$AAi?$AAb?$AAb?$AAe?$AAa?$AAn?$AA?$AA@ 000000018005c818     libucrt:get_qualified_locale.obj
 0002:0000c840       ??_C@_1BI@LDHJHHAC@?$AAe?$AAn?$AAg?$AAl?$AAi?$AAs?$AAh?$AA?9?$AAi?$AAr?$AAe?$AA?$AA@ 000000018005c840     libucrt:get_qualified_locale.obj
 0002:0000c858       ??_C@_1CA@NJMMCFOC@?$AAe?$AAn?$AAg?$AAl?$AAi?$AAs?$AAh?$AA?9?$AAj?$AAa?$AAm?$AAa?$AAi?$AAc?$AAa?$AA?$AA@ 000000018005c858     libucrt:get_qualified_locale.obj
 0002:0000c878       ??_C@_1BG@BHJEBBGG@?$AAe?$AAn?$AAg?$AAl?$AAi?$AAs?$AAh?$AA?9?$AAn?$AAz?$AA?$AA@ 000000018005c878     libucrt:get_qualified_locale.obj
 0002:0000c890       ??_C@_1CK@FGOEJJCO@?$AAe?$AAn?$AAg?$AAl?$AAi?$AAs?$AAh?$AA?9?$AAs?$AAo?$AAu?$AAt?$AAh?$AA?5?$AAa?$AAf?$AAr?$AAi?$AAc?$AAa?$AA?$AA@ 000000018005c890     libucrt:get_qualified_locale.obj
 0002:0000c8c0       ??_C@_1DE@PDBJPCJ@?$AAe?$AAn?$AAg?$AAl?$AAi?$AAs?$AAh?$AA?9?$AAt?$AAr?$AAi?$AAn?$AAi?$AAd?$AAa?$AAd?$AA?5?$AAy?$AA?5?$AAt?$AAo?$AAb?$AAa?$AAg?$AAo?$AA?$AA@ 000000018005c8c0     libucrt:get_qualified_locale.obj
 0002:0000c8f8       ??_C@_1BG@JGCANDME@?$AAe?$AAn?$AAg?$AAl?$AAi?$AAs?$AAh?$AA?9?$AAu?$AAk?$AA?$AA@ 000000018005c8f8     libucrt:get_qualified_locale.obj
 0002:0000c910       ??_C@_1BG@DINKMLE@?$AAe?$AAn?$AAg?$AAl?$AAi?$AAs?$AAh?$AA?9?$AAu?$AAs?$AA?$AA@ 000000018005c910     libucrt:get_qualified_locale.obj
 0002:0000c928       ??_C@_1BI@NMFDBHJE@?$AAe?$AAn?$AAg?$AAl?$AAi?$AAs?$AAh?$AA?9?$AAu?$AAs?$AAa?$AA?$AA@ 000000018005c928     libucrt:get_qualified_locale.obj
 0002:0000c940       ??_C@_1BO@OIHKJKII@?$AAf?$AAr?$AAe?$AAn?$AAc?$AAh?$AA?9?$AAb?$AAe?$AAl?$AAg?$AAi?$AAa?$AAn?$AA?$AA@ 000000018005c940     libucrt:get_qualified_locale.obj
 0002:0000c960       ??_C@_1CA@NKAELJKI@?$AAf?$AAr?$AAe?$AAn?$AAc?$AAh?$AA?9?$AAc?$AAa?$AAn?$AAa?$AAd?$AAi?$AAa?$AAn?$AA?$AA@ 000000018005c960     libucrt:get_qualified_locale.obj
 0002:0000c980       ??_C@_1CE@MGKCNLGN@?$AAf?$AAr?$AAe?$AAn?$AAc?$AAh?$AA?9?$AAl?$AAu?$AAx?$AAe?$AAm?$AAb?$AAo?$AAu?$AAr?$AAg?$AA?$AA@ 000000018005c980     libucrt:get_qualified_locale.obj
 0002:0000c9a8       ??_C@_1BK@CEGEAILM@?$AAf?$AAr?$AAe?$AAn?$AAc?$AAh?$AA?9?$AAs?$AAw?$AAi?$AAs?$AAs?$AA?$AA@ 000000018005c9a8     libucrt:get_qualified_locale.obj
 0002:0000c9c8       ??_C@_1CA@PAFKEOCC@?$AAg?$AAe?$AAr?$AAm?$AAa?$AAn?$AA?9?$AAa?$AAu?$AAs?$AAt?$AAr?$AAi?$AAa?$AAn?$AA?$AA@ 000000018005c9c8     libucrt:get_qualified_locale.obj
 0002:0000c9e8       ??_C@_1CI@HCFHGOFD@?$AAg?$AAe?$AAr?$AAm?$AAa?$AAn?$AA?9?$AAl?$AAi?$AAc?$AAh?$AAt?$AAe?$AAn?$AAs?$AAt?$AAe?$AAi?$AAn?$AA?$AA@ 000000018005c9e8     libucrt:get_qualified_locale.obj
 0002:0000ca10       ??_C@_1CE@FEDDNPDG@?$AAg?$AAe?$AAr?$AAm?$AAa?$AAn?$AA?9?$AAl?$AAu?$AAx?$AAe?$AAm?$AAb?$AAo?$AAu?$AAr?$AAg?$AA?$AA@ 000000018005ca10     libucrt:get_qualified_locale.obj
 0002:0000ca38       ??_C@_1BK@LIMINNMN@?$AAg?$AAe?$AAr?$AAm?$AAa?$AAn?$AA?9?$AAs?$AAw?$AAi?$AAs?$AAs?$AA?$AA@ 000000018005ca38     libucrt:get_qualified_locale.obj
 0002:0000ca58       ??_C@_1BM@LGMDBEPD@?$AAi?$AAr?$AAi?$AAs?$AAh?$AA?9?$AAe?$AAn?$AAg?$AAl?$AAi?$AAs?$AAh?$AA?$AA@ 000000018005ca58     libucrt:get_qualified_locale.obj
 0002:0000ca78       ??_C@_1BM@NNCFBAEE@?$AAi?$AAt?$AAa?$AAl?$AAi?$AAa?$AAn?$AA?9?$AAs?$AAw?$AAi?$AAs?$AAs?$AA?$AA@ 000000018005ca78     libucrt:get_qualified_locale.obj
 0002:0000ca98       ??_C@_1BE@FEDJNPIB@?$AAn?$AAo?$AAr?$AAw?$AAe?$AAg?$AAi?$AAa?$AAn?$AA?$AA@ 000000018005ca98     libucrt:get_qualified_locale.obj
 0002:0000cab0       ??_C@_1CC@CILKDEIE@?$AAn?$AAo?$AAr?$AAw?$AAe?$AAg?$AAi?$AAa?$AAn?$AA?9?$AAb?$AAo?$AAk?$AAm?$AAa?$AAl?$AA?$AA@ 000000018005cab0     libucrt:get_qualified_locale.obj
 0002:0000cad8       ??_C@_1CE@DHMMHEPL@?$AAn?$AAo?$AAr?$AAw?$AAe?$AAg?$AAi?$AAa?$AAn?$AA?9?$AAn?$AAy?$AAn?$AAo?$AAr?$AAs?$AAk?$AA?$AA@ 000000018005cad8     libucrt:get_qualified_locale.obj
 0002:0000cb00       ??_C@_1CK@OPNMHECD@?$AAp?$AAo?$AAr?$AAt?$AAu?$AAg?$AAu?$AAe?$AAs?$AAe?$AA?9?$AAb?$AAr?$AAa?$AAz?$AAi?$AAl?$AAi?$AAa?$AAn?$AA?$AA@ 000000018005cb00     libucrt:get_qualified_locale.obj
 0002:0000cb30       ??_C@_1CE@KEEHCDB@?$AAs?$AAp?$AAa?$AAn?$AAi?$AAs?$AAh?$AA?9?$AAa?$AAr?$AAg?$AAe?$AAn?$AAt?$AAi?$AAn?$AAa?$AA?$AA@ 000000018005cb30     libucrt:get_qualified_locale.obj
 0002:0000cb58       ??_C@_1CA@GIAOLHJD@?$AAs?$AAp?$AAa?$AAn?$AAi?$AAs?$AAh?$AA?9?$AAb?$AAo?$AAl?$AAi?$AAv?$AAi?$AAa?$AA?$AA@ 000000018005cb58     libucrt:get_qualified_locale.obj
 0002:0000cb78       ??_C@_1BM@OJNDFNPD@?$AAs?$AAp?$AAa?$AAn?$AAi?$AAs?$AAh?$AA?9?$AAc?$AAh?$AAi?$AAl?$AAe?$AA?$AA@ 000000018005cb78     libucrt:get_qualified_locale.obj
 0002:0000cb98       ??_C@_1CC@OCOLPALL@?$AAs?$AAp?$AAa?$AAn?$AAi?$AAs?$AAh?$AA?9?$AAc?$AAo?$AAl?$AAo?$AAm?$AAb?$AAi?$AAa?$AA?$AA@ 000000018005cb98     libucrt:get_qualified_locale.obj
 0002:0000cbc0       ??_C@_1CG@BPOFMKBB@?$AAs?$AAp?$AAa?$AAn?$AAi?$AAs?$AAh?$AA?9?$AAc?$AAo?$AAs?$AAt?$AAa?$AA?5?$AAr?$AAi?$AAc?$AAa?$AA?$AA@ 000000018005cbc0     libucrt:get_qualified_locale.obj
 0002:0000cbe8       ??_C@_1DG@IGOBAPBB@?$AAs?$AAp?$AAa?$AAn?$AAi?$AAs?$AAh?$AA?9?$AAd?$AAo?$AAm?$AAi?$AAn?$AAi?$AAc?$AAa?$AAn?$AA?5?$AAr?$AAe?$AAp?$AAu?$AAb?$AAl?$AAi?$AAc?$AA?$AA@ 000000018005cbe8     libucrt:get_qualified_locale.obj
 0002:0000cc20       ??_C@_1CA@JHAPGEGI@?$AAs?$AAp?$AAa?$AAn?$AAi?$AAs?$AAh?$AA?9?$AAe?$AAc?$AAu?$AAa?$AAd?$AAo?$AAr?$AA?$AA@ 000000018005cc20     libucrt:get_qualified_locale.obj
 0002:0000cc40       ??_C@_1CI@LAPALJPP@?$AAs?$AAp?$AAa?$AAn?$AAi?$AAs?$AAh?$AA?9?$AAe?$AAl?$AA?5?$AAs?$AAa?$AAl?$AAv?$AAa?$AAd?$AAo?$AAr?$AA?$AA@ 000000018005cc40     libucrt:get_qualified_locale.obj
 0002:0000cc68       ??_C@_1CE@PDGBOFOM@?$AAs?$AAp?$AAa?$AAn?$AAi?$AAs?$AAh?$AA?9?$AAg?$AAu?$AAa?$AAt?$AAe?$AAm?$AAa?$AAl?$AAa?$AA?$AA@ 000000018005cc68     libucrt:get_qualified_locale.obj
 0002:0000cc90       ??_C@_1CC@NBEBAODI@?$AAs?$AAp?$AAa?$AAn?$AAi?$AAs?$AAh?$AA?9?$AAh?$AAo?$AAn?$AAd?$AAu?$AAr?$AAa?$AAs?$AA?$AA@ 000000018005cc90     libucrt:get_qualified_locale.obj
 0002:0000ccb8       ??_C@_1CA@LLKGHBMF@?$AAs?$AAp?$AAa?$AAn?$AAi?$AAs?$AAh?$AA?9?$AAm?$AAe?$AAx?$AAi?$AAc?$AAa?$AAn?$AA?$AA@ 000000018005ccb8     libucrt:get_qualified_locale.obj
 0002:0000ccd8       ??_C@_1BO@LKNDOIGD@?$AAs?$AAp?$AAa?$AAn?$AAi?$AAs?$AAh?$AA?9?$AAm?$AAo?$AAd?$AAe?$AAr?$AAn?$AA?$AA@ 000000018005ccd8     libucrt:get_qualified_locale.obj
 0002:0000ccf8       ??_C@_1CE@NMDMOEEB@?$AAs?$AAp?$AAa?$AAn?$AAi?$AAs?$AAh?$AA?9?$AAn?$AAi?$AAc?$AAa?$AAr?$AAa?$AAg?$AAu?$AAa?$AA?$AA@ 000000018005ccf8     libucrt:get_qualified_locale.obj
 0002:0000cd20       ??_C@_1BO@LLCBEJGB@?$AAs?$AAp?$AAa?$AAn?$AAi?$AAs?$AAh?$AA?9?$AAp?$AAa?$AAn?$AAa?$AAm?$AAa?$AA?$AA@ 000000018005cd20     libucrt:get_qualified_locale.obj
 0002:0000cd40       ??_C@_1CC@FKPGGIHO@?$AAs?$AAp?$AAa?$AAn?$AAi?$AAs?$AAh?$AA?9?$AAp?$AAa?$AAr?$AAa?$AAg?$AAu?$AAa?$AAy?$AA?$AA@ 000000018005cd40     libucrt:get_qualified_locale.obj
 0002:0000cd68       ??_C@_1BK@CDEIHOOP@?$AAs?$AAp?$AAa?$AAn?$AAi?$AAs?$AAh?$AA?9?$AAp?$AAe?$AAr?$AAu?$AA?$AA@ 000000018005cd68     libucrt:get_qualified_locale.obj
 0002:0000cd88       ??_C@_1CI@GAHAKKGP@?$AAs?$AAp?$AAa?$AAn?$AAi?$AAs?$AAh?$AA?9?$AAp?$AAu?$AAe?$AAr?$AAt?$AAo?$AA?5?$AAr?$AAi?$AAc?$AAo?$AA?$AA@ 000000018005cd88     libucrt:get_qualified_locale.obj
 0002:0000cdb0       ??_C@_1CA@NKJBCAGP@?$AAs?$AAp?$AAa?$AAn?$AAi?$AAs?$AAh?$AA?9?$AAu?$AAr?$AAu?$AAg?$AAu?$AAa?$AAy?$AA?$AA@ 000000018005cdb0     libucrt:get_qualified_locale.obj
 0002:0000cdd0       ??_C@_1CE@ODILCONM@?$AAs?$AAp?$AAa?$AAn?$AAi?$AAs?$AAh?$AA?9?$AAv?$AAe?$AAn?$AAe?$AAz?$AAu?$AAe?$AAl?$AAa?$AA?$AA@ 000000018005cdd0     libucrt:get_qualified_locale.obj
 0002:0000cdf8       ??_C@_1CA@OBNMCGFO@?$AAs?$AAw?$AAe?$AAd?$AAi?$AAs?$AAh?$AA?9?$AAf?$AAi?$AAn?$AAl?$AAa?$AAn?$AAd?$AA?$AA@ 000000018005cdf8     libucrt:get_qualified_locale.obj
 0002:0000ce18       ??_C@_1M@PIPDDPPI@?$AAs?$AAw?$AAi?$AAs?$AAs?$AA?$AA@ 000000018005ce18     libucrt:get_qualified_locale.obj
 0002:0000ce24       ??_C@_15GMFIMNFM@?$AAu?$AAs?$AA?$AA@ 000000018005ce24     libucrt:get_qualified_locale.obj
 0002:0000ce30       ??_C@_17HAEBFAGL@?$AAu?$AAs?$AAa?$AA?$AA@ 000000018005ce30     libucrt:get_qualified_locale.obj
 0002:0000ce38       ??_C@_1BA@DPFJEPHB@?$AAa?$AAm?$AAe?$AAr?$AAi?$AAc?$AAa?$AA?$AA@ 000000018005ce38     libucrt:get_qualified_locale.obj
 0002:0000ce48       ??_C@_1BA@ELOGGFK@?$AAb?$AAr?$AAi?$AAt?$AAa?$AAi?$AAn?$AA?$AA@ 000000018005ce48     libucrt:get_qualified_locale.obj
 0002:0000ce58       ??_C@_1M@GHBGIGDA@?$AAc?$AAh?$AAi?$AAn?$AAa?$AA?$AA@ 000000018005ce58     libucrt:get_qualified_locale.obj
 0002:0000ce68       ??_C@_1M@NCHEJOPO@?$AAc?$AAz?$AAe?$AAc?$AAh?$AA?$AA@ 000000018005ce68     libucrt:get_qualified_locale.obj
 0002:0000ce78       ??_C@_1BA@BKPAPBLA@?$AAe?$AAn?$AAg?$AAl?$AAa?$AAn?$AAd?$AA?$AA@ 000000018005ce78     libucrt:get_qualified_locale.obj
 0002:0000ce88       ??_C@_1BM@HKBCKIPC@?$AAg?$AAr?$AAe?$AAa?$AAt?$AA?5?$AAb?$AAr?$AAi?$AAt?$AAa?$AAi?$AAn?$AA?$AA@ 000000018005ce88     libucrt:get_qualified_locale.obj
 0002:0000cea8       ??_C@_1BA@PPCHPGJB@?$AAh?$AAo?$AAl?$AAl?$AAa?$AAn?$AAd?$AA?$AA@ 000000018005cea8     libucrt:get_qualified_locale.obj
 0002:0000ceb8       ??_C@_1BE@JBMPEGDG@?$AAh?$AAo?$AAn?$AAg?$AA?9?$AAk?$AAo?$AAn?$AAg?$AA?$AA@ 000000018005ceb8     libucrt:get_qualified_locale.obj
 0002:0000ced0       ??_C@_1BI@KOELBBPJ@?$AAn?$AAe?$AAw?$AA?9?$AAz?$AAe?$AAa?$AAl?$AAa?$AAn?$AAd?$AA?$AA@ 000000018005ced0     libucrt:get_qualified_locale.obj
 0002:0000cee8       ??_C@_15HIEBHAIO@?$AAn?$AAz?$AA?$AA@ 000000018005cee8     libucrt:get_qualified_locale.obj
 0002:0000cef0       ??_C@_1BC@CHBCPFPI@?$AAp?$AAr?$AA?5?$AAc?$AAh?$AAi?$AAn?$AAa?$AA?$AA@ 000000018005cef0     libucrt:get_qualified_locale.obj
 0002:0000cf08       ??_C@_1BC@JAOIIFKD@?$AAp?$AAr?$AA?9?$AAc?$AAh?$AAi?$AAn?$AAa?$AA?$AA@ 000000018005cf08     libucrt:get_qualified_locale.obj
 0002:0000cf20       ??_C@_1BI@BEHPPHKC@?$AAp?$AAu?$AAe?$AAr?$AAt?$AAo?$AA?9?$AAr?$AAi?$AAc?$AAo?$AA?$AA@ 000000018005cf20     libucrt:get_qualified_locale.obj
 0002:0000cf38       ??_C@_1O@PAEOFKDI@?$AAs?$AAl?$AAo?$AAv?$AAa?$AAk?$AA?$AA@ 000000018005cf38     libucrt:get_qualified_locale.obj
 0002:0000cf48       ??_C@_1BK@FIHMCKAM@?$AAs?$AAo?$AAu?$AAt?$AAh?$AA?5?$AAa?$AAf?$AAr?$AAi?$AAc?$AAa?$AA?$AA@ 000000018005cf48     libucrt:get_qualified_locale.obj
 0002:0000cf68       ??_C@_1BI@NAEOODKB@?$AAs?$AAo?$AAu?$AAt?$AAh?$AA?5?$AAk?$AAo?$AAr?$AAe?$AAa?$AA?$AA@ 000000018005cf68     libucrt:get_qualified_locale.obj
 0002:0000cf80       ??_C@_1BK@FBDGGIFF@?$AAs?$AAo?$AAu?$AAt?$AAh?$AA?9?$AAa?$AAf?$AAr?$AAi?$AAc?$AAa?$AA?$AA@ 000000018005cf80     libucrt:get_qualified_locale.obj
 0002:0000cfa0       ??_C@_1BI@GHLEJDPK@?$AAs?$AAo?$AAu?$AAt?$AAh?$AA?9?$AAk?$AAo?$AAr?$AAe?$AAa?$AA?$AA@ 000000018005cfa0     libucrt:get_qualified_locale.obj
 0002:0000cfb8       ??_C@_1CE@PLHLOMJF@?$AAt?$AAr?$AAi?$AAn?$AAi?$AAd?$AAa?$AAd?$AA?5?$AA?$CG?$AA?5?$AAt?$AAo?$AAb?$AAa?$AAg?$AAo?$AA?$AA@ 000000018005cfb8     libucrt:get_qualified_locale.obj
 0002:0000cfe0       ??_C@_1BO@MODIMHHI@?$AAu?$AAn?$AAi?$AAt?$AAe?$AAd?$AA?9?$AAk?$AAi?$AAn?$AAg?$AAd?$AAo?$AAm?$AA?$AA@ 000000018005cfe0     libucrt:get_qualified_locale.obj
 0002:0000d000       ??_C@_1BM@FFHJONBJ@?$AAu?$AAn?$AAi?$AAt?$AAe?$AAd?$AA?9?$AAs?$AAt?$AAa?$AAt?$AAe?$AAs?$AA?$AA@ 000000018005d000     libucrt:get_qualified_locale.obj
 0002:0000d020       ??_C@_17DNCLJFIF@?$AAA?$AAC?$AAP?$AA?$AA@ 000000018005d020     libucrt:get_qualified_locale.obj
 0002:0000d028       ??_C@_17CIKBIHLH@?$AAO?$AAC?$AAP?$AA?$AA@ 000000018005d028     libucrt:get_qualified_locale.obj
 0002:0000d030       __rglangidNotDefault       000000018005d030     libucrt:getqloc_downlevel.obj
 0002:0000ef30       __log10_256_lead           000000018005ef30     libucrt:log10_256_lead_tail_table.obj
 0002:0000f740       __log10_256_tail           000000018005f740     libucrt:log10_256_lead_tail_table.obj
 0002:0000ff48       ??_C@_1BA@BALFACEM@?$AAC?$AAO?$AAN?$AAO?$AAU?$AAT?$AA$?$AA?$AA@ 000000018005ff48     libucrt:initcon.obj
 0002:0000ff58       ??_C@_1BK@DBDEIDLH@?$AAK?$AAE?$AAR?$AAN?$AAE?$AAL?$AA3?$AA2?$AA?4?$AAD?$AAL?$AAL?$AA?$AA@ 000000018005ff58     DelayImp:delayhlp.obj
 0002:0000ff78       __pfnDliFailureHook2       000000018005ff78     DelayImp:delayhk1.obj
 0002:0000ff80       _load_config_used          000000018005ff80     LIBCMT:loadcfg.obj
 0002:00010018       ??_C@_0BC@BDKFLDHL@unknown?5exception?$AA@ 0000000180060018     njsOracle.obj
 0002:00010030       ??_C@_1DG@OKCGPKIB@?$AAp?$AAe?$AAr?$AAs?$AAi?$AAs?$AAt?$AAe?$AAn?$AAt?$AA?$CI?$AA?$CJ?$AA?4?$AAI?$AAs?$AAN?$AAe?$AAa?$AAr?$AAD?$AAe?$AAa?$AAt?$AAh?$AA?$CI?$AA?$CJ?$AA?$AA@ 0000000180060030     njsOracle.obj
 0002:00010068       ??_C@_1CO@EGNPJLKI@?$AAp?$AAe?$AAr?$AAs?$AAi?$AAs?$AAt?$AAe?$AAn?$AAt?$AA?$CI?$AA?$CJ?$AA?4?$AAI?$AAs?$AAE?$AAm?$AAp?$AAt?$AAy?$AA?$CI?$AA?$CJ?$AA?$AA@ 0000000180060068     njsOracle.obj
 0002:00010098       ??_C@_1DA@FBGAEOIO@?$AA?$CB?$AAp?$AAe?$AAr?$AAs?$AAi?$AAs?$AAt?$AAe?$AAn?$AAt?$AA?$CI?$AA?$CJ?$AA?4?$AAI?$AAs?$AAE?$AAm?$AAp?$AAt?$AAy?$AA?$CI?$AA?$CJ?$AA?$AA@ 0000000180060098     njsOracle.obj
 0002:000100c8       ??_C@_1CO@JCKLEFMA@?$AA?$CB?$AAp?$AAe?$AAr?$AAs?$AAi?$AAs?$AAt?$AAe?$AAn?$AAt?$AA?$CI?$AA?$CJ?$AA?4?$AAI?$AAs?$AAW?$AAe?$AAa?$AAk?$AA?$CI?$AA?$CJ?$AA?$AA@ 00000001800600c8     njsOracle.obj
 0002:000100f8       ??_C@_1BE@GMLLOIPJ@?$AAr?$AAe?$AAf?$AAs?$AA_?$AA?5?$AA?$DO?$AA?5?$AA0?$AA?$AA@ 00000001800600f8     njsOracle.obj
 0002:00010110       ??_C@_1CC@GBFLAAPF@?$AAw?$AAr?$AAa?$AAp?$AA?9?$AA?$DO?$AAr?$AAe?$AAf?$AAs?$AA_?$AA?5?$AA?$DN?$AA?$DN?$AA?5?$AA0?$AA?$AA@ 0000000180060110     njsOracle.obj
 0002:00010138       ??_C@_0BA@ELKIONDK@bad?5locale?5name?$AA@ 0000000180060138     njsOracle.obj
 0002:00010148       ??_C@_05LAPONLG@false?$AA@ 0000000180060148     njsOracle.obj
 0002:00010150       ??_C@_04LOAJBDKD@true?$AA@ 0000000180060150     njsOracle.obj
 0002:00010155       ??_C@_00CNPNBAHC@?$AA@     0000000180060155     njsOracle.obj
 0002:00010158       ??_C@_02LMMGGCAJ@?3?5?$AA@ 0000000180060158     njsOracle.obj
 0002:00010160       ??_C@_08LLGCOLLL@iostream?$AA@ 0000000180060160     njsOracle.obj
 0002:00010170       ??_C@_0BG@PADBLCHM@iostream?5stream?5error?$AA@ 0000000180060170     njsOracle.obj
 0002:00010188       ??_C@_0BF@PHHKMMFD@ios_base?3?3badbit?5set?$AA@ 0000000180060188     njsOracle.obj
 0002:000101a0       ??_C@_0BG@FMKFHCIL@ios_base?3?3failbit?5set?$AA@ 00000001800601a0     njsOracle.obj
 0002:000101b8       ??_C@_0BF@OOHOMBOF@ios_base?3?3eofbit?5set?$AA@ 00000001800601b8     njsOracle.obj
 0002:000101d0       ??_C@_0BA@JFNIOLAK@string?5too?5long?$AA@ 00000001800601d0     njsOracle.obj
 0002:000101e0       ??_C@_1KO@FCAIHJAI@?$AAd?$AA?3?$AA?2?$AAe?$AAp?$AAs?$AAa?$AAu?$AAt?$AAo?$AAm?$AAa?$AAt?$AAi?$AAo?$AAn?$AA?2?$AAe?$AAp?$AAs?$AAa?$AAu?$AAt?$AAo?$AAm?$AAa?$AAt?$AAi?$AAo?$AAn?$AA?2?$AAp@ 00000001800601e0     njsOracle.obj
 0002:00010290       ??_C@_1FK@CBGIJHDF@?$AAv?$AAa?$AAl?$AAu?$AAe?$AA?4?$AAs?$AAi?$AAz?$AAe?$AA?$CI?$AA?$CJ?$AA?5?$AA?$DM?$AA?$DN?$AA?5?$AAI?$AAN?$AAT?$AA_?$AAM?$AAA?$AAX?$AA?5?$AA?$CG?$AA?$CG?$AA?5?$AA?$CC?$AAs?$AAt?$AAr?$AAi@ 0000000180060290     njsOracle.obj
 0002:000102f0       ??_C@_1JK@FACOABNK@?$AAd?$AA?3?$AA?2?$AAe?$AAp?$AAs?$AAa?$AAu?$AAt?$AAo?$AAm?$AAa?$AAt?$AAi?$AAo?$AAn?$AA?2?$AAe?$AAp?$AAs?$AAa?$AAu?$AAt?$AAo?$AAm?$AAa?$AAt?$AAi?$AAo?$AAn?$AA?2?$AAp@ 00000001800602f0     njsOracle.obj
 0002:00010390       ??_C@_1EC@MGGLMBLC@?$AAo?$AAb?$AAj?$AAe?$AAc?$AAt?$AA?9?$AA?$DO?$AAI?$AAn?$AAt?$AAe?$AAr?$AAn?$AAa?$AAl?$AAF?$AAi?$AAe?$AAl?$AAd?$AAC?$AAo?$AAu?$AAn?$AAt?$AA?$CI?$AA?$CJ?$AA?5?$AA?$DO?$AA?5?$AA0@ 0000000180060390     njsOracle.obj
 0002:000103d8       ??_C@_1DI@ELDBKNAK@?$AAw?$AAr?$AAa?$AAp?$AA?9?$AA?$DO?$AAh?$AAa?$AAn?$AAd?$AAl?$AAe?$AA_?$AA?4?$AAI?$AAs?$AAN?$AAe?$AAa?$AAr?$AAD?$AAe?$AAa?$AAt?$AAh?$AA?$CI?$AA?$CJ?$AA?$AA@ 00000001800603d8     njsOracle.obj
 0002:00010410       ??_C@_03MCPBMLDJ@?5?3?5?$AA@ 0000000180060410     njsOracle.obj
 0002:00010418       ??_C@_0O@HGNEKDAO@node?9oracledb?$AA@ 0000000180060418     njsOracle.obj
 0002:00010428       ??_C@_01LFCBOECM@?4?$AA@   0000000180060428     njsOracle.obj
 0002:00010430       ??_C@_08BNCGHMGL@Oracledb?$AA@ 0000000180060430     njsOracle.obj
 0002:00010440       ??_C@_0O@GICFJCLP@getConnection?$AA@ 0000000180060440     njsOracle.obj
 0002:00010450       ??_C@_0L@DEMMGFLI@createPool?$AA@ 0000000180060450     njsOracle.obj
 0002:00010460       ??_C@_07CJJOHIMA@poolMax?$AA@ 0000000180060460     njsOracle.obj
 0002:00010468       ??_C@_07DLBFJMKP@poolMin?$AA@ 0000000180060468     njsOracle.obj
 0002:00010470       ??_C@_0O@CEEKNGK@poolIncrement?$AA@ 0000000180060470     njsOracle.obj
 0002:00010480       ??_C@_0M@KJCBBGHI@poolTimeout?$AA@ 0000000180060480     njsOracle.obj
 0002:00010490       ??_C@_0O@MCOBCHKC@stmtCacheSize?$AA@ 0000000180060490     njsOracle.obj
 0002:000104a0       ??_C@_0N@GLFJDLAP@prefetchRows?$AA@ 00000001800604a0     njsOracle.obj
 0002:000104b0       ??_C@_0L@JJDMGLON@autoCommit?$AA@ 00000001800604b0     njsOracle.obj
 0002:000104c0       ??_C@_0BB@NCBAEODJ@extendedMetaData?$AA@ 00000001800604c0     njsOracle.obj
 0002:000104d8       ??_C@_07GPLJHCBP@maxRows?$AA@ 00000001800604d8     njsOracle.obj
 0002:000104e0       ??_C@_09DINGKNNM@outFormat?$AA@ 00000001800604e0     njsOracle.obj
 0002:000104f0       ??_C@_07CPCPJPKL@version?$AA@ 00000001800604f0     njsOracle.obj
 0002:000104f8       ??_C@_0BA@GPOPFKB@connectionClass?$AA@ 00000001800604f8     njsOracle.obj
 0002:00010508       ??_C@_0N@DGEJBIKB@externalAuth?$AA@ 0000000180060508     njsOracle.obj
 0002:00010518       ??_C@_0O@KBLMAIHK@fetchAsString?$AA@ 0000000180060518     njsOracle.obj
 0002:00010528       ??_C@_0O@FNKKGEEE@fetchAsBuffer?$AA@ 0000000180060528     njsOracle.obj
 0002:00010538       ??_C@_0BA@NCMFLOHA@lobPrefetchSize?$AA@ 0000000180060538     njsOracle.obj
 0002:00010548       ??_C@_0BE@HLPLDCII@oracleClientVersion?$AA@ 0000000180060548     njsOracle.obj
 0002:00010560       ??_C@_0BB@GCCMNFHO@poolPingInterval?$AA@ 0000000180060560     njsOracle.obj
 0002:00010578       ??_C@_0BB@BBCNNNEI@pingPoolInterval?$AA@ 0000000180060578     njsOracle.obj
 0002:0001058c       ??_C@_04CCHAHKJA@user?$AA@ 000000018006058c     njsOracle.obj
 0002:00010598       ??_C@_08NLHBPEGP@password?$AA@ 0000000180060598     njsOracle.obj
 0002:000105a8       ??_C@_0O@GBMHGACH@connectString?$AA@ 00000001800605a8     njsOracle.obj
 0002:000105b8       ??_C@_0O@KFEBOKGH@GetConnection?$AA@ 00000001800605b8     njsOracle.obj
 0002:000105c8       ??_C@_0O@BEGDKJHM@uv_queue_work?$AA@ 00000001800605c8     njsOracle.obj
 0002:000105d8       ??_C@_0L@LCFAOKGP@CreatePool?$AA@ 00000001800605d8     njsOracle.obj
 0002:000105e8       ??_C@_0BN@CPKFGOJG@?4?4?2src?2njs?2src?2njsOracle?4cpp?$AA@ 00000001800605e8     njsOracle.obj
 0002:00010608       ??_C@_08JPNHPOMI@oracledb?$AA@ 0000000180060608     njsOracle.obj
 0002:00010614       ??_C@_02BBAHNLBA@?$CFp?$AA@ 0000000180060614     njsOracle.obj
 0002:00010618       ??_C@_02MDKMJEGG@eE?$AA@   0000000180060618     njsOracle.obj
 0002:0001061c       ??_C@_02OOPEBDOJ@pP?$AA@   000000018006061c     njsOracle.obj
 0002:00010620       ??_C@_0BI@CFPLBAOH@invalid?5string?5position?$AA@ 0000000180060620     njsOracle.obj
 0002:00010638       ??_C@_1CE@LNAGEONJ@?$AA?$CB?$AAo?$AAb?$AAj?$AAe?$AAc?$AAt?$AA?4?$AAI?$AAs?$AAE?$AAm?$AAp?$AAt?$AAy?$AA?$CI?$AA?$CJ?$AA?$AA@ 0000000180060638     njsOracle.obj
 0002:00010660       ??_7?$basic_streambuf@DU?$char_traits@D@std@@@std@@6B@ 0000000180060660     njsOracle.obj
 0002:000106d8       ??_7error_category@std@@6B@ 00000001800606d8     njsOracle.obj
 0002:00010708       ??_7_Iostream_error_category@std@@6B@ 0000000180060708     njsOracle.obj
 0002:00010738       ??_7ios_base@std@@6B@      0000000180060738     njsOracle.obj
 0002:00010740       ??_8?$basic_stringstream@DU?$char_traits@D@std@@V?$allocator@D@2@@std@@7B?$basic_ostream@DU?$char_traits@D@std@@@1@@ 0000000180060740     njsOracle.obj
 0002:00010748       ??_7?$basic_ios@DU?$char_traits@D@std@@@std@@6B@ 0000000180060748     njsOracle.obj
 0002:00010750       ??_7Oracledb@@6B@          0000000180060750     njsOracle.obj
 0002:00010768       ??_7?$basic_iostream@DU?$char_traits@D@std@@@std@@6B@ 0000000180060768     njsOracle.obj
 0002:00010770       ??_7exception@stdext@@6B@  0000000180060770     njsOracle.obj
 0002:00010788       ??_7?$basic_stringbuf@DU?$char_traits@D@std@@V?$allocator@D@2@@std@@6B@ 0000000180060788     njsOracle.obj
 0002:00010800       ??_7?$basic_stringstream@DU?$char_traits@D@std@@V?$allocator@D@2@@std@@6B@ 0000000180060800     njsOracle.obj
 0002:00010808       ??_7?$basic_istream@DU?$char_traits@D@std@@@std@@6B@ 0000000180060808     njsOracle.obj
 0002:00010810       ??_7ObjectWrap@Nan@@6B@    0000000180060810     njsOracle.obj
 0002:00010828       ??_8?$basic_stringstream@DU?$char_traits@D@std@@V?$allocator@D@2@@std@@7B?$basic_istream@DU?$char_traits@D@std@@@1@@ 0000000180060828     njsOracle.obj
 0002:00010830       ??_7?$basic_ostream@DU?$char_traits@D@std@@@std@@6B@ 0000000180060830     njsOracle.obj
 0002:00010838       ??_7_System_error@std@@6B@ 0000000180060838     njsOracle.obj
 0002:00010838       ??_7failure@ios_base@std@@6B@ 0000000180060838     njsOracle.obj
 0002:00010850       ??_C@_04OIEIIIMK@Pool?$AA@ 0000000180060850     njsPool.obj
 0002:00010858       ??_C@_09DACGJFPO@terminate?$AA@ 0000000180060858     njsPool.obj
 0002:00010868       ??_C@_0BA@ILIHCEPM@connectionsOpen?$AA@ 0000000180060868     njsPool.obj
 0002:00010878       ??_C@_0BB@EBFGKEIN@connectionsInUse?$AA@ 0000000180060878     njsPool.obj
 0002:00010890       ??_C@_09HPHLJGCO@Terminate?$AA@ 0000000180060890     njsPool.obj
 0002:000108a0       ??_7Pool@@6B@              00000001800608a0     njsPool.obj
 0002:000108c0       ??_C@_1IC@ELJNOPHF@?$AAD?$AA?3?$AA?2?$AAE?$AAp?$AAs?$AAA?$AAu?$AAt?$AAo?$AAm?$AAa?$AAt?$AAi?$AAo?$AAn?$AA?2?$AAE?$AAp?$AAs?$AAA?$AAu?$AAt?$AAo?$AAm?$AAa?$AAt?$AAi?$AAo?$AAn?$AA?2?$AAP@ 00000001800608c0     njsConnection.obj
 0002:00010950       ??_C@_1FM@LOELJOFK@?$AAs?$AAi?$AAz?$AAe?$AA?5?$AA?$DM?$AA?$DN?$AA?5?$AAi?$AAm?$AAp?$AA?3?$AA?3?$AAk?$AAM?$AAa?$AAx?$AAL?$AAe?$AAn?$AAg?$AAt?$AAh?$AA?5?$AA?$CG?$AA?$CG?$AA?5?$AA?$CC?$AAt?$AAo?$AAo?$AA?5@ 0000000180060950     njsConnection.obj
 0002:000109b0       ??_C@_0L@PJJKMLL@Connection?$AA@ 00000001800609b0     njsConnection.obj
 0002:000109c0       ??_C@_07EMGJIMLB@execute?$AA@ 00000001800609c0     njsConnection.obj
 0002:000109c8       ??_C@_07EOGFDLKI@release?$AA@ 00000001800609c8     njsConnection.obj
 0002:000109d0       ??_C@_06IFNEBLAJ@commit?$AA@ 00000001800609d0     njsConnection.obj
 0002:000109d8       ??_C@_08FBLICIPL@rollback?$AA@ 00000001800609d8     njsConnection.obj
 0002:000109e4       ??_C@_05ELPHFHOI@break?$AA@ 00000001800609e4     njsConnection.obj
 0002:000109f0       ??_C@_09EJNJPPHA@createLob?$AA@ 00000001800609f0     njsConnection.obj
 0002:00010a00       ??_C@_08BMOJCBA@clientId?$AA@ 0000000180060a00     njsConnection.obj
 0002:00010a0c       ??_C@_06BIEEJMKO@module?$AA@ 0000000180060a0c     njsConnection.obj
 0002:00010a14       ??_C@_06DDLLCOJG@action?$AA@ 0000000180060a14     njsConnection.obj
 0002:00010a20       ??_C@_0BE@FLLIGNEJ@oracleServerVersion?$AA@ 0000000180060a20     njsConnection.obj
 0002:00010a38       ??_C@_07LFBPOOOH@Execute?$AA@ 0000000180060a38     njsConnection.obj
 0002:00010a40       ??_C@_09MLCBPDGD@resultSet?$AA@ 0000000180060a40     njsConnection.obj
 0002:00010a50       ??_C@_09IALOBJIC@fetchInfo?$AA@ 0000000180060a50     njsConnection.obj
 0002:00010a5c       ??_C@_04GPMDFGEJ@type?$AA@ 0000000180060a5c     njsConnection.obj
 0002:00010a64       ??_C@_01JLIPDDHJ@?3?$AA@   0000000180060a64     njsConnection.obj
 0002:00010a68       ??_C@_03DAPAKLGM@dir?$AA@  0000000180060a68     njsConnection.obj
 0002:00010a70       ??_C@_07GDPCCCPH@maxSize?$AA@ 0000000180060a70     njsConnection.obj
 0002:00010a78       ??_C@_03BALCFKBP@val?$AA@  0000000180060a78     njsConnection.obj
 0002:00010a80       ??_C@_0N@HGIHOFAC@maxArraySize?$AA@ 0000000180060a80     njsConnection.obj
 0002:00010a90       ??_C@_04GIHNHPGD@iLob?$AA@ 0000000180060a90     njsConnection.obj
 0002:00010a98       ??_C@_09KHNPILMG@DoDefines?$AA@ 0000000180060a98     njsConnection.obj
 0002:00010aa8       ??_C@_08JNCPAJPH@default?3?$AA@ 0000000180060aa8     njsConnection.obj
 0002:00010ab4       ??_C@_04IMCGAIPI@rows?$AA@ 0000000180060ab4     njsConnection.obj
 0002:00010ac0       ??_C@_08CADMLJEK@outBinds?$AA@ 0000000180060ac0     njsConnection.obj
 0002:00010ad0       ??_C@_0N@KAPCDOFA@rowsAffected?$AA@ 0000000180060ad0     njsConnection.obj
 0002:00010ae0       ??_C@_08PGKJPPDP@metaData?$AA@ 0000000180060ae0     njsConnection.obj
 0002:00010aec       ??_C@_04MEMAJGDJ@name?$AA@ 0000000180060aec     njsConnection.obj
 0002:00010af8       ??_C@_09DHEEBCNP@fetchType?$AA@ 0000000180060af8     njsConnection.obj
 0002:00010b04       ??_C@_06MPIJJHIJ@dbType?$AA@ 0000000180060b04     njsConnection.obj
 0002:00010b10       ??_C@_08OABDNNOP@byteSize?$AA@ 0000000180060b10     njsConnection.obj
 0002:00010b20       ??_C@_09HJGOLHNF@precision?$AA@ 0000000180060b20     njsConnection.obj
 0002:00010b2c       ??_C@_05MHMEBBGO@scale?$AA@ 0000000180060b2c     njsConnection.obj
 0002:00010b38       ??_C@_08DGPNALPA@nullable?$AA@ 0000000180060b38     njsConnection.obj
 0002:00010b48       ??_C@_07LHBDFJPO@Release?$AA@ 0000000180060b48     njsConnection.obj
 0002:00010b50       ??_C@_06EKGJCCJF@Commit?$AA@ 0000000180060b50     njsConnection.obj
 0002:00010b58       ??_C@_08NDEJKKFI@Rollback?$AA@ 0000000180060b58     njsConnection.obj
 0002:00010b64       ??_C@_05EMFLFCNO@Break?$AA@ 0000000180060b64     njsConnection.obj
 0002:00010b70       ??_C@_09GIEPMKA@CreateLob?$AA@ 0000000180060b70     njsConnection.obj
 0002:00010b7c       ??_C@_06GPFDNHLC@newLob?$AA@ 0000000180060b7c     njsConnection.obj
 0002:00010b88       ??_C@_0BD@OLBABOEK@vector?$DMT?$DO?5too?5long?$AA@ 0000000180060b88     njsConnection.obj
 0002:00010ba0       ??_7Connection@@6B@        0000000180060ba0     njsConnection.obj
 0002:00010bb8       ??_C@_09IEHMPALD@ResultSet?$AA@ 0000000180060bb8     njsResultSet.obj
 0002:00010bc4       ??_C@_05LBOHBHFK@close?$AA@ 0000000180060bc4     njsResultSet.obj
 0002:00010bcc       ??_C@_06DKBICOAJ@getRow?$AA@ 0000000180060bcc     njsResultSet.obj
 0002:00010bd8       ??_C@_07HNPEIKLP@getRows?$AA@ 0000000180060bd8     njsResultSet.obj
 0002:00010be0       ??_C@_0O@BENJIPMF@GetRowsCommon?$AA@ 0000000180060be0     njsResultSet.obj
 0002:00010bf0       ??_C@_0P@CLHDOECI@ResultSetClose?$AA@ 0000000180060bf0     njsResultSet.obj
 0002:00010c00       ??_7ResultSet@@6B@         0000000180060c00     njsResultSet.obj
 0002:00010c18       ??_C@_0BB@EBPPLLMA@NJS?9000?3?5success?$AA@ 0000000180060c18     njsMessages.obj
 0002:00010c30       ??_C@_0CN@EAPPLFIE@NJS?9001?3?5expected?5callback?5as?5la@ 0000000180060c30     njsMessages.obj
 0002:00010c60       ??_C@_0BG@CPODOMNC@NJS?9002?3?5invalid?5pool?$AA@ 0000000180060c60     njsMessages.obj
 0002:00010c78       ??_C@_0BM@JFAMIHMB@NJS?9003?3?5invalid?5connection?$AA@ 0000000180060c78     njsMessages.obj
 0002:00010c98       ??_C@_0CH@LDFPEIAC@NJS?9004?3?5invalid?5value?5for?5prope@ 0000000180060c98     njsMessages.obj
 0002:00010cc0       ??_C@_0CI@LJKIPLLG@NJS?9005?3?5invalid?5value?5for?5param@ 0000000180060cc0     njsMessages.obj
 0002:00010ce8       ??_C@_0CH@LNEBGLBI@NJS?9006?3?5invalid?5type?5for?5parame@ 0000000180060ce8     njsMessages.obj
 0002:00010d10       ??_C@_0DA@LLNCMIBF@NJS?9007?3?5invalid?5value?5for?5?$CC?$CFs?$CC?5@ 0000000180060d10     njsMessages.obj
 0002:00010d40       ??_C@_0CP@IGIOFNIJ@NJS?9008?3?5invalid?5type?5for?5?$CC?$CFs?$CC?5i@ 0000000180060d40     njsMessages.obj
 0002:00010d70       ??_C@_0CG@NEDBOLL@NJS?9009?3?5invalid?5number?5of?5param@ 0000000180060d70     njsMessages.obj
 0002:00010d98       ??_C@_0CO@NPMIEIEG@NJS?9010?3?5unsupported?5data?5type?5i@ 0000000180060d98     njsMessages.obj
 0002:00010dd0       ??_C@_0EC@NNFBKLIL@NJS?9011?3?5encountered?5bind?5value?5@ 0000000180060dd0     njsMessages.obj
 0002:00010e18       ??_C@_0DM@ODFBBPME@NJS?9012?3?5encountered?5invalid?5bin@ 0000000180060e18     njsMessages.obj
 0002:00010e58       ??_C@_0CA@BACDJBHC@NJS?9013?3?5invalid?5bind?5direction?$AA@ 0000000180060e58     njsMessages.obj
 0002:00010e78       ??_C@_0CE@JHOFBEHB@NJS?9014?3?5?$CFs?5is?5a?5read?9only?5prope@ 0000000180060e78     njsMessages.obj
 0002:00010ea0       ??_C@_0CP@JOOECMDP@NJS?9015?3?5type?5was?5not?5specified?5@ 0000000180060ea0     njsMessages.obj
 0002:00010ed0       ??_C@_0CL@LPGLEDEI@NJS?9016?3?5buffer?5is?5too?5small?5for@ 0000000180060ed0     njsMessages.obj
 0002:00010f00       ??_C@_0DM@BJIOPMLG@NJS?9017?3?5concurrent?5operations?5o@ 0000000180060f00     njsMessages.obj
 0002:00010f40       ??_C@_0BL@KIHNNALH@NJS?9018?3?5invalid?5ResultSet?$AA@ 0000000180060f40     njsMessages.obj
 0002:00010f60       ??_C@_0DP@HMGLKLNL@NJS?9019?3?5ResultSet?5cannot?5be?5ret@ 0000000180060f60     njsMessages.obj
 0002:00010fa0       ??_C@_0DN@GENKDPOG@NJS?9020?3?5empty?5array?5was?5specifi@ 0000000180060fa0     njsMessages.obj
 0002:00010fe0       ??_C@_0CP@EDPFAMJK@NJS?9021?3?5invalid?5type?5for?5conver@ 0000000180060fe0     njsMessages.obj
 0002:00011010       ??_C@_0BF@EAGHGEHI@NJS?9022?3?5invalid?5Lob?$AA@ 0000000180061010     njsMessages.obj
 0002:00011028       ??_C@_0DI@FLAMFHCO@NJS?9023?3?5concurrent?5operations?5o@ 0000000180061028     njsMessages.obj
 0002:00011060       ??_C@_0CC@HFOJMIAK@NJS?9024?3?5memory?5allocation?5faile@ 0000000180061060     njsMessages.obj
 0002:00011088       ??_C@_0DI@IOFJHOEH@NJS?9025?3?5overflow?5when?5calculati@ 0000000180061088     njsMessages.obj
 0002:000110c0       ??_C@_0CL@CJKMEINN@NJS?9026?3?5maxRows?5must?5be?5greater@ 00000001800610c0     njsMessages.obj
 0002:000110f0       ??_C@_0CG@GKLPAPFN@NJS?9027?3?5unexpected?5SQL?5parsing?5@ 00000001800610f0     njsMessages.obj
 0002:00011120       ??_C@_0EK@HKOEANNA@NJS?9028?3?5RAW?5database?5type?5is?5no@ 0000000180061120     njsMessages.obj
 0002:00011170       ??_C@_0CI@GNLLBCJN@NJS?9029?3?5invalid?5object?5from?5Jav@ 0000000180061170     njsMessages.obj
 0002:000111a0       ??_C@_0EO@LBKHOOCH@NJS?9030?3?5connection?5cannot?5be?5re@ 00000001800611a0     njsMessages.obj
 0002:000111f0       ??_C@_0FE@IIHCGNKK@NJS?9031?3?5connection?5cannot?5be?5re@ 00000001800611f0     njsMessages.obj
 0002:00011250       ??_C@_0EO@IIBEDJAF@NJS?9032?3?5connection?5cannot?5be?5re@ 0000000180061250     njsMessages.obj
 0002:000112a0       ??_C@_0CO@BBIFBNCF@NJS?9033?3?5an?5internal?5error?5occur@ 00000001800612a0     njsMessages.obj
 0002:000112d0       ??_C@_0DB@LPMKGDAI@NJS?9034?3?5data?5type?5is?5unsupporte@ 00000001800612d0     njsMessages.obj
 0002:00011308       ??_C@_0DI@GIABIGIA@NJS?9035?3?5maxArraySize?5is?5require@ 0000000180061308     njsMessages.obj
 0002:00011340       ??_C@_0DK@CJKKNDFP@NJS?9036?3?5given?5array?5is?5of?5size?5@ 0000000180061340     njsMessages.obj
 0002:00011380       ??_C@_0DL@OEKBIKCP@NJS?9037?3?5invalid?5data?5type?5at?5ar@ 0000000180061380     njsMessages.obj
 0002:000113c0       ??_C@_0DI@IPDIHFKI@NJS?9038?3?5maxArraySize?5value?5shou@ 00000001800613c0     njsMessages.obj
 0002:000113f8       ??_C@_0DA@MGPCJFHJ@NJS?9039?3?5empty?5array?5is?5not?5allo@ 00000001800613f8     njsMessages.obj
 0002:00011428       ??_C@_0CE@LNNNGBGB@NJS?9040?3?5connection?5request?5time@ 0000000180061428     njsMessages.obj
 0002:00011450       ??_C@_0EI@HKOKPOIO@NJS?9041?3?5cannot?5convert?5ResultSe@ 0000000180061450     njsMessages.obj
 0002:000114a0       ??_C@_0EJ@EGFNABEI@NJS?9042?3?5cannot?5invoke?5ResultSet@ 00000001800614a0     njsMessages.obj
 0002:000114f0       ??_C@_0DE@NMIFCHOP@NJS?9043?3?5ResultSet?5already?5conve@ 00000001800614f0     njsMessages.obj
 0002:00011528       ??_C@_0DL@HIIGKHG@NJS?9044?3?5named?5JSON?5object?5is?5no@ 0000000180061528     njsMessages.obj
 0002:00011568       ??_C@_0DA@OIEKOIC@NJS?9045?3?5cannot?5load?5the?5oracled@ 0000000180061568     njsMessages.obj
 0002:000115a0       ??_C@_0EF@ICDLGKFG@NJS?9046?3?5pool?5alias?5?$CC?$CFs?$CC?5already@ 00000001800615a0     njsMessages.obj
 0002:000115f0       ??_C@_0EA@DLMJKHLN@NJS?9047?3?5pool?5alias?5?$CC?$CFs?$CC?5not?5fou@ 00000001800615f0     njsMessages.obj
 0002:00011630       ??_C@_0FA@FJJJFLHM@NJS?9048?3?5operation?5not?5permitted@ 0000000180061630     njsMessages.obj
 0002:00011680       ??_C@_0EB@NEBCGMKM@NJS?9049?3?5Temporary?5LOBs?5were?5ope@ 0000000180061680     njsMessages.obj
 0002:000116c8       ??_C@_0CG@LOIBHGAO@NJS?9050?3?5data?5must?5be?5shorter?5th@ 00000001800616c8     njsMessages.obj
 0002:000116f0       ??_C@_0CD@OHMJLAHD@NJS?9051?3?5?$CC?$CFs?$CC?5must?5be?5less?5than?5@ 00000001800616f0     njsMessages.obj
 0002:00011720       ??_C@_0EC@NMPEHBDL@NJS?9052?3?5invalid?5data?5type?5at?5ar@ 0000000180061720     njsMessages.obj
 0002:00011918       __pfnDliNotifyHook2        0000000180061918     win_delay_load_hook.obj
 0002:00011970       ??_C@_04KJLMFAGH@ILob?$AA@ 0000000180061970     njsIntLob.obj
 0002:00011978       ??_C@_04POLDLDMI@read?$AA@ 0000000180061978     njsIntLob.obj
 0002:00011980       ??_C@_05NGFEDHGN@write?$AA@ 0000000180061980     njsIntLob.obj
 0002:00011988       ??_C@_09OEGFCDGF@chunkSize?$AA@ 0000000180061988     njsIntLob.obj
 0002:00011994       ??_C@_06IJDLPEM@length?$AA@ 0000000180061994     njsIntLob.obj
 0002:000119a0       ??_C@_09BIOBDMFG@pieceSize?$AA@ 00000001800619a0     njsIntLob.obj
 0002:000119ac       ??_C@_06KLHHMIGM@offset?$AA@ 00000001800619ac     njsIntLob.obj
 0002:000119b8       ??_C@_0N@PFFDGBBL@autoCloseLob?$AA@ 00000001800619b8     njsIntLob.obj
 0002:000119c8       ??_C@_05HDPIMK@valid?$AA@  00000001800619c8     njsIntLob.obj
 0002:000119d0       ??_C@_08MMMELIKJ@LobClose?$AA@ 00000001800619d0     njsIntLob.obj
 0002:000119e0       ??_C@_07NKICPBEH@LobRead?$AA@ 00000001800619e0     njsIntLob.obj
 0002:000119e8       ??_C@_08KLHHJIJO@LobWrite?$AA@ 00000001800619e8     njsIntLob.obj
 0002:000119f8       ??_7ILob@@6B@              00000001800619f8     njsIntLob.obj
 0002:00011a10       ??_7Env@dpi@@6B@           0000000180061a10     dpiEnv.obj
 0002:00011ac0       ??_7EnvImpl@@6B@           0000000180061ac0     dpiEnvImpl.obj
 0002:00011b98       ??_7ExceptionImpl@@6B@     0000000180061b98     dpiEnvImpl.obj
 0002:00011bc0       ??_7Exception@dpi@@6B@     0000000180061bc0     dpiEnvImpl.obj
 0002:00011be8       ??_C@_07CIFAGBMG@unknown?$AA@ 0000000180061be8     dpiExceptionImpl.obj
 0002:00011bf0       ??_C@_0N@FKKFHCIB@not?5an?5error?$AA@ 0000000180061bf0     dpiExceptionImpl.obj
 0002:00011c00       ??_C@_0P@LPIEGNHB@internal?5error?$AA@ 0000000180061c00     dpiExceptionImpl.obj
 0002:00011c10       ??_C@_0CA@EGKFLPDP@could?5not?5get?5OCI?5error?5message?$AA@ 0000000180061c10     dpiExceptionImpl.obj
 0002:00011c30       ??_C@_0CC@DONOAHM@no?5OCI?5environment?5handle?5create@ 0000000180061c30     dpiExceptionImpl.obj
 0002:00011c58       ??_C@_0CL@NBAEMACC@invalid?5state?5while?5working?5with@ 0000000180061c58     dpiExceptionImpl.obj
 0002:00011c88       ??_C@_0DB@DLEOEFBD@uninitialized?5state?5while?5workin@ 0000000180061c88     dpiExceptionImpl.obj
 0002:00011cc0       ??_C@_0EH@IBENPCCD@user?5and?5password?5should?5not?5be?5@ 0000000180061cc0     dpiExceptionImpl.obj
 0002:00011d08       ??_C@_0CB@DEGMBPIK@invalid?5OCI?5handle?5or?5descriptor@ 0000000180061d08     dpiExceptionImpl.obj
 0002:00011d30       ??_C@_0BJ@FDBIHNP@memory?5allocation?5failed?$AA@ 0000000180061d30     dpiExceptionImpl.obj
 0002:00011d50       ??_C@_0BG@COLCDFLN@unexpected?5NULL?5value?$AA@ 0000000180061d50     dpiExceptionImpl.obj
 0002:00011d68       ??_C@_03IHMKDFHF@DPI?$AA@  0000000180061d68     dpiExceptionImpl.obj
 0002:00011d6c       ??_C@_01JOAMLHOP@?9?$AA@   0000000180061d6c     dpiExceptionImpl.obj
 0002:00011d70       ??_C@_0M@LMACPLJG@TIME_2_PING?$AA@ 0000000180061d70     dpiConnImpl.obj
 0002:00011d80       ??_7Conn@dpi@@6B@          0000000180061d80     dpiConnImpl.obj
 0002:00011e28       ??_7ConnImpl@@6B@          0000000180061e28     dpiConnImpl.obj
 0002:00011ed8       ??_C@_06GOMJDJGK@?$CL00?300?$AA@ 0000000180061ed8     dpiDateTimeArrayImpl.obj
 0002:00011ee0       ??_7DateTimeArrayImpl@dpi@@6B@ 0000000180061ee0     dpiDateTimeArrayImpl.obj
 0002:00011f08       ??_7DateTimeArray@dpi@@6B@ 0000000180061f08     dpiDateTimeArrayImpl.obj
 0002:00011f30       ??_7SPool@dpi@@6B@         0000000180061f30     dpiPoolImpl.obj
 0002:00011f60       ??_7PoolImpl@@6B@          0000000180061f60     dpiPoolImpl.obj
 0002:00011fa8       ??_7Stmt@dpi@@6B@          0000000180061fa8     dpiStmtImpl.obj
 0002:00012028       ??_7StmtImpl@@6B@          0000000180062028     dpiStmtImpl.obj
 0002:000120a8       ??_C@_03JLJGOMBC@ORA?$AA@  00000001800620a8     dpiUtils.obj
 0002:000120b0       ??_C@_08HCOMDCCD@iojs?4exe?$AA@ 00000001800620b0     win_delay_load_hook.obj
 0002:000120c0       ??_C@_08JDDNMFDB@node?4exe?$AA@ 00000001800620c0     win_delay_load_hook.obj
 0002:00012e18       __real@3ff0000000000000    0000000180062e18     njsIntLob.obj
 0002:00012e20       __real@408f400000000000    0000000180062e20     dpiDateTimeArrayImpl.obj
 0002:00012e28       __real@40ed4c0000000000    0000000180062e28     dpiDateTimeArrayImpl.obj
 0002:00012e30       __real@412e848000000000    0000000180062e30     dpiDateTimeArrayImpl.obj
 0002:00012e38       __real@414b774000000000    0000000180062e38     dpiDateTimeArrayImpl.obj
 0002:00012e40       __real@4194997000000000    0000000180062e40     dpiDateTimeArrayImpl.obj
 0002:00012e48       __real@4202a05f20000000    0000000180062e48     njsOracle.obj
 0002:00012e50       __real@43e0000000000000    0000000180062e50     njsIntLob.obj
 0002:00012e58       __real@43f0000000000000    0000000180062e58     njsIntLob.obj
 0002:00012e60       __xmm@7fffffffffffffff7fffffffffffffff 0000000180062e60     njsOracle.obj
 0002:000147c8       _tls_used                  00000001800647c8     LIBCMT:tlssup.obj
 0002:000147f0       ??_R4_Facet_base@std@@6B@  00000001800647f0     libcpmt:locale0.obj
 0002:00014818       ??_R3_Facet_base@std@@8    0000000180064818     libcpmt:locale0.obj
 0002:00014830       ??_R2_Facet_base@std@@8    0000000180064830     libcpmt:locale0.obj
 0002:00014840       ??_R1A@?0A@EA@_Facet_base@std@@8 0000000180064840     libcpmt:locale0.obj
 0002:00014868       ??_R4_Locimp@locale@std@@6B@ 0000000180064868     libcpmt:locale0.obj
 0002:00014890       ??_R3_Locimp@locale@std@@8 0000000180064890     libcpmt:locale0.obj
 0002:000148a8       ??_R2_Locimp@locale@std@@8 00000001800648a8     libcpmt:locale0.obj
 0002:000148d0       ??_R1A@?0A@EA@_Locimp@locale@std@@8 00000001800648d0     libcpmt:locale0.obj
 0002:000148f8       ??_R1A@?0A@EA@facet@locale@std@@8 00000001800648f8     libcpmt:locale0.obj
 0002:00014920       ??_R3facet@locale@std@@8   0000000180064920     libcpmt:locale0.obj
 0002:00014938       ??_R2facet@locale@std@@8   0000000180064938     libcpmt:locale0.obj
 0002:00014958       ??_R17?0A@EA@_Crt_new_delete@std@@8 0000000180064958     libcpmt:locale0.obj
 0002:00014980       ??_R3_Crt_new_delete@std@@8 0000000180064980     libcpmt:locale0.obj
 0002:00014998       ??_R2_Crt_new_delete@std@@8 0000000180064998     libcpmt:locale0.obj
 0002:000149a8       ??_R1A@?0A@EA@_Crt_new_delete@std@@8 00000001800649a8     libcpmt:locale0.obj
 0002:000149d0       ??_R4exception@std@@6B@    00000001800649d0     libcpmt:xthrow.obj
 0002:000149f8       ??_R3exception@std@@8      00000001800649f8     libcpmt:xthrow.obj
 0002:00014a10       ??_R2exception@std@@8      0000000180064a10     libcpmt:xthrow.obj
 0002:00014a20       ??_R1A@?0A@EA@exception@std@@8 0000000180064a20     libcpmt:xthrow.obj
 0002:00014a48       ??_R4bad_alloc@std@@6B@    0000000180064a48     libcpmt:xthrow.obj
 0002:00014a70       ??_R3bad_alloc@std@@8      0000000180064a70     libcpmt:xthrow.obj
 0002:00014a88       ??_R2bad_alloc@std@@8      0000000180064a88     libcpmt:xthrow.obj
 0002:00014aa0       ??_R1A@?0A@EA@bad_alloc@std@@8 0000000180064aa0     libcpmt:xthrow.obj
 0002:00014ac8       ??_R4logic_error@std@@6B@  0000000180064ac8     libcpmt:xthrow.obj
 0002:00014af0       ??_R3logic_error@std@@8    0000000180064af0     libcpmt:xthrow.obj
 0002:00014b08       ??_R2logic_error@std@@8    0000000180064b08     libcpmt:xthrow.obj
 0002:00014b20       ??_R1A@?0A@EA@logic_error@std@@8 0000000180064b20     libcpmt:xthrow.obj
 0002:00014b48       ??_R4length_error@std@@6B@ 0000000180064b48     libcpmt:xthrow.obj
 0002:00014b70       ??_R3length_error@std@@8   0000000180064b70     libcpmt:xthrow.obj
 0002:00014b88       ??_R2length_error@std@@8   0000000180064b88     libcpmt:xthrow.obj
 0002:00014ba8       ??_R1A@?0A@EA@length_error@std@@8 0000000180064ba8     libcpmt:xthrow.obj
 0002:00014bd0       ??_R4out_of_range@std@@6B@ 0000000180064bd0     libcpmt:xthrow.obj
 0002:00014bf8       ??_R3out_of_range@std@@8   0000000180064bf8     libcpmt:xthrow.obj
 0002:00014c10       ??_R2out_of_range@std@@8   0000000180064c10     libcpmt:xthrow.obj
 0002:00014c30       ??_R1A@?0A@EA@out_of_range@std@@8 0000000180064c30     libcpmt:xthrow.obj
 0002:00014c58       ??_R4runtime_error@std@@6B@ 0000000180064c58     libcpmt:xthrow.obj
 0002:00014c80       ??_R3runtime_error@std@@8  0000000180064c80     libcpmt:xthrow.obj
 0002:00014c98       ??_R2runtime_error@std@@8  0000000180064c98     libcpmt:xthrow.obj
 0002:00014cb0       ??_R1A@?0A@EA@runtime_error@std@@8 0000000180064cb0     libcpmt:xthrow.obj
 0002:00014cd8       ??_R3ctype_base@std@@8     0000000180064cd8     libcpmt:locale.obj
 0002:00014cf0       ??_R2ctype_base@std@@8     0000000180064cf0     libcpmt:locale.obj
 0002:00014d18       ??_R1A@?0A@EA@ctype_base@std@@8 0000000180064d18     libcpmt:locale.obj
 0002:00014d40       ??_R4?$ctype@D@std@@6B@    0000000180064d40     libcpmt:locale.obj
 0002:00014d68       ??_R3?$ctype@D@std@@8      0000000180064d68     libcpmt:locale.obj
 0002:00014d80       ??_R2?$ctype@D@std@@8      0000000180064d80     libcpmt:locale.obj
 0002:00014db0       ??_R1A@?0A@EA@?$ctype@D@std@@8 0000000180064db0     libcpmt:locale.obj
 0002:00014dd8       ??_R4?$num_put@DV?$ostreambuf_iterator@DU?$char_traits@D@std@@@std@@@std@@6B@ 0000000180064dd8     libcpmt:locale.obj
 0002:00014e00       ??_R3?$num_put@DV?$ostreambuf_iterator@DU?$char_traits@D@std@@@std@@@std@@8 0000000180064e00     libcpmt:locale.obj
 0002:00014e18       ??_R2?$num_put@DV?$ostreambuf_iterator@DU?$char_traits@D@std@@@std@@@std@@8 0000000180064e18     libcpmt:locale.obj
 0002:00014e40       ??_R1A@?0A@EA@?$num_put@DV?$ostreambuf_iterator@DU?$char_traits@D@std@@@std@@@std@@8 0000000180064e40     libcpmt:locale.obj
 0002:00014e68       ??_R4?$numpunct@D@std@@6B@ 0000000180064e68     libcpmt:locale.obj
 0002:00014e90       ??_R3?$numpunct@D@std@@8   0000000180064e90     libcpmt:locale.obj
 0002:00014ea8       ??_R2?$numpunct@D@std@@8   0000000180064ea8     libcpmt:locale.obj
 0002:00014ed0       ??_R1A@?0A@EA@?$numpunct@D@std@@8 0000000180064ed0     libcpmt:locale.obj
 0002:00014ef8       ??_R4type_info@@6B@        0000000180064ef8     LIBCMT:std_type_info_static.obj
 0002:00014f20       ??_R3type_info@@8          0000000180064f20     LIBCMT:std_type_info_static.obj
 0002:00014f38       ??_R2type_info@@8          0000000180064f38     LIBCMT:std_type_info_static.obj
 0002:00014f48       ??_R1A@?0A@EA@type_info@@8 0000000180064f48     LIBCMT:std_type_info_static.obj
 0002:00014f70       ??_R4bad_array_new_length@std@@6B@ 0000000180064f70     LIBCMT:throw_bad_alloc.obj
 0002:00014f98       ??_R3bad_array_new_length@std@@8 0000000180064f98     LIBCMT:throw_bad_alloc.obj
 0002:00014fb0       ??_R2bad_array_new_length@std@@8 0000000180064fb0     LIBCMT:throw_bad_alloc.obj
 0002:00014fd0       ??_R1A@?0A@EA@bad_array_new_length@std@@8 0000000180064fd0     LIBCMT:throw_bad_alloc.obj
 0002:00014ff8       ??_R4bad_exception@std@@6B@ 0000000180064ff8     libvcruntime:frame.obj
 0002:00015020       ??_R3bad_exception@std@@8  0000000180065020     libvcruntime:frame.obj
 0002:00015038       ??_R2bad_exception@std@@8  0000000180065038     libvcruntime:frame.obj
 0002:00015050       ??_R1A@?0A@EA@bad_exception@std@@8 0000000180065050     libvcruntime:frame.obj
 0002:00015528       __rtc_iaa                  0000000180065528     LIBCMT:_initsect_.obj
 0002:00015530       __rtc_izz                  0000000180065530     LIBCMT:_initsect_.obj
 0002:00015538       __rtc_taa                  0000000180065538     LIBCMT:_initsect_.obj
 0002:00015540       __rtc_tzz                  0000000180065540     LIBCMT:_initsect_.obj
 0002:0001ea70       _TI2?AVbad_alloc@std@@     000000018006ea70     libcpmt:xthrow.obj
 0002:0001ea90       _CTA2?AVbad_alloc@std@@    000000018006ea90     libcpmt:xthrow.obj
 0002:0001eaa8       _CT??_R0?AVbad_alloc@std@@@8??0bad_alloc@std@@QEAA@AEBV01@@Z24 000000018006eaa8     libcpmt:xthrow.obj
 0002:0001ead0       _CT??_R0?AVexception@std@@@8??0exception@std@@QEAA@AEBV01@@Z24 000000018006ead0     libcpmt:xthrow.obj
 0002:0001eaf8       _CT??_R0?AVlogic_error@std@@@8??0logic_error@std@@QEAA@AEBV01@@Z24 000000018006eaf8     libcpmt:xthrow.obj
 0002:0001eb20       _TI3?AVlength_error@std@@  000000018006eb20     libcpmt:xthrow.obj
 0002:0001eb40       _CTA3?AVlength_error@std@@ 000000018006eb40     libcpmt:xthrow.obj
 0002:0001eb60       _CT??_R0?AVlength_error@std@@@8??0length_error@std@@QEAA@AEBV01@@Z24 000000018006eb60     libcpmt:xthrow.obj
 0002:0001eb88       _TI3?AVout_of_range@std@@  000000018006eb88     libcpmt:xthrow.obj
 0002:0001eba8       _CTA3?AVout_of_range@std@@ 000000018006eba8     libcpmt:xthrow.obj
 0002:0001ebc8       _CT??_R0?AVout_of_range@std@@@8??0out_of_range@std@@QEAA@AEBV01@@Z24 000000018006ebc8     libcpmt:xthrow.obj
 0002:0001ebf0       _TI3?AVbad_array_new_length@std@@ 000000018006ebf0     LIBCMT:throw_bad_alloc.obj
 0002:0001ec10       _CTA3?AVbad_array_new_length@std@@ 000000018006ec10     LIBCMT:throw_bad_alloc.obj
 0002:0001ec30       _CT??_R0?AVbad_array_new_length@std@@@8??0bad_array_new_length@std@@QEAA@AEBV01@@Z24 000000018006ec30     LIBCMT:throw_bad_alloc.obj
 0002:0001ec58       _TI2?AVbad_exception@std@@ 000000018006ec58     libvcruntime:frame.obj
 0002:0001ec78       _CTA2?AVbad_exception@std@@ 000000018006ec78     libvcruntime:frame.obj
 0002:0001ec90       _CT??_R0?AVbad_exception@std@@@8??0bad_exception@std@@QEAA@AEBV01@@Z24 000000018006ec90     libvcruntime:frame.obj
 0002:0001ecb8       _CTA3?AVExceptionImpl@@    000000018006ecb8     dpiEnvImpl.obj
 0002:0001ecd8       _CT??_R0?AVException@dpi@@@816 000000018006ecd8     dpiEnvImpl.obj
 0002:0001ed00       _CT??_R0?AVExceptionImpl@@@888 000000018006ed00     dpiEnvImpl.obj
 0002:0001ed28       _TI3?AVExceptionImpl@@     000000018006ed28     dpiEnvImpl.obj
 0002:0001ed48       _CT??_R0?AVexception@stdext@@@816 000000018006ed48     dpiEnvImpl.obj
 0002:0001ed6c       __DELAY_IMPORT_DESCRIPTOR_node_exe 000000018006ed6c     node:node.exe
 0002:0001ed8c       __NULL_DELAY_IMPORT_DESCRIPTOR 000000018006ed8c     node:node.exe
 0002:0001f058       \177node_NULL_THUNK_DATA_DLN 000000018006f058     node:node.exe
 0002:00020608       \177node_NULL_THUNK_DATA_DLB 0000000180070608     node:node.exe
 0002:00020904       __IMPORT_DESCRIPTOR_KERNEL32 0000000180070904     kernel32:KERNEL32.dll
 0002:00020918       __IMPORT_DESCRIPTOR_OCI    0000000180070918     oci:OCI.dll
 0002:0002092c       __NULL_IMPORT_DESCRIPTOR   000000018007092c     kernel32:KERNEL32.dll
 0003:00000004       ?_Sync@ios_base@std@@0_NA  0000000180072004     libcpmt:ios.obj
 0003:00000020       ?_PJP_CPP_Copyright@@3PADA 0000000180072020     libcpmt:iosptrs.obj
 0003:00000080       _Init_global_epoch         0000000180072080     LIBCMT:thread_safe_statics.obj
 0003:00000084       __scrt_native_dllmain_reason 0000000180072084     LIBCMT:utility.obj
 0003:00000088       __security_cookie          0000000180072088     LIBCMT:gs_cookie.obj
 0003:00000090       __security_cookie_complement 0000000180072090     LIBCMT:gs_cookie.obj
 0003:00000098       _fltused                   0000000180072098     LIBCMT:fltused.obj
 0003:000000a0       __isa_available            00000001800720a0     LIBCMT:_cpu_disp_.obj
 0003:000000a4       __isa_enabled              00000001800720a4     LIBCMT:_cpu_disp_.obj
 0003:000000a8       __memcpy_nt_iters          00000001800720a8     LIBCMT:_cpu_disp_.obj
 0003:000000c0       __abort_behavior           00000001800720c0     libucrt:abort.obj
 0003:000000d0       __acrt_lconv_c             00000001800720d0     libucrt:localeconv.obj
 0003:00000168       __acrt_lconv               0000000180072168     libucrt:localeconv.obj
 0003:00000170       __acrt_lconv_static_decimal 0000000180072170     libucrt:localeconv.obj
 0003:00000174       __acrt_lconv_static_W_decimal 0000000180072174     libucrt:localeconv.obj
 0003:00000178       _pctype                    0000000180072178     libucrt:ctype.obj
 0003:00000180       _pwctype                   0000000180072180     libucrt:ctype.obj
 0003:000001a0       _iob                       00000001800721a0     libucrt:_file.obj
 0003:000002b0       __acrt_initial_locale_data 00000001800722b0     libucrt:nlsdata.obj
 0003:00000408       __acrt_initial_locale_pointers 0000000180072408     libucrt:nlsdata.obj
 0003:00000418       __acrt_wide_c_locale_string 0000000180072418     libucrt:nlsdata.obj
 0003:0000041c       __mb_cur_max               000000018007241c     libucrt:nlsdata.obj
 0003:00000420       __badioinfo                0000000180072420     libucrt:ioinit.obj
 0003:00000464       __globallocalestatus       0000000180072464     libucrt:glstatus.obj
 0003:00000500       __acrt_initial_multibyte_data 0000000180072500     libucrt:mbctype.obj
 0003:00000728       __acrt_current_multibyte_data 0000000180072728     libucrt:mbctype.obj
 0003:00000830       _mbctype                   0000000180072830     libucrt:mbctype.obj
 0003:00000940       _mbcasemap                 0000000180072940     libucrt:mbctype.obj
 0003:00000a50       __dcrt_lowio_console_output_handle 0000000180072a50     libucrt:initcon.obj
 0003:00000aa0       ??_R0?AV_Facet_base@std@@@8 0000000180072aa0     libcpmt:locale0.obj
 0003:00000ac8       ??_R0?AV_Locimp@locale@std@@@8 0000000180072ac8     libcpmt:locale0.obj
 0003:00000af8       ??_R0?AVfacet@locale@std@@@8 0000000180072af8     libcpmt:locale0.obj
 0003:00000b20       ??_R0?AU_Crt_new_delete@std@@@8 0000000180072b20     libcpmt:locale0.obj
 0003:00000b50       ??_R0?AVbad_alloc@std@@@8  0000000180072b50     libcpmt:xthrow.obj
 0003:00000b78       ??_R0?AVexception@std@@@8  0000000180072b78     libcpmt:xthrow.obj
 0003:00000ba0       ??_R0?AVlogic_error@std@@@8 0000000180072ba0     libcpmt:xthrow.obj
 0003:00000bc8       ??_R0?AVlength_error@std@@@8 0000000180072bc8     libcpmt:xthrow.obj
 0003:00000bf0       ??_R0?AVout_of_range@std@@@8 0000000180072bf0     libcpmt:xthrow.obj
 0003:00000c18       ??_R0?AVruntime_error@std@@@8 0000000180072c18     libcpmt:xthrow.obj
 0003:00000c40       ??_R0?AUctype_base@std@@@8 0000000180072c40     libcpmt:locale.obj
 0003:00000c68       ??_R0?AV?$ctype@D@std@@@8  0000000180072c68     libcpmt:locale.obj
 0003:00000c90       ??_R0?AV?$num_put@DV?$ostreambuf_iterator@DU?$char_traits@D@std@@@std@@@std@@@8 0000000180072c90     libcpmt:locale.obj
 0003:00000cf0       ??_R0?AV?$numpunct@D@std@@@8 0000000180072cf0     libcpmt:locale.obj
 0003:00000d18       ??_R0?AVtype_info@@@8      0000000180072d18     LIBCMT:std_type_info_static.obj
 0003:00000d38       ??_R0?AVbad_array_new_length@std@@@8 0000000180072d38     LIBCMT:throw_bad_alloc.obj
 0003:00000d68       ??_R0?AVbad_exception@std@@@8 0000000180072d68     libvcruntime:frame.obj
 0003:00000d90       ??_R0?AVException@dpi@@@8  0000000180072d90     njsOracle.obj
 0003:00000db8       ??_R0?AVexception@stdext@@@8 0000000180072db8     dpiEnvImpl.obj
 0003:00000de0       ??_R0?AVExceptionImpl@@@8  0000000180072de0     dpiEnvImpl.obj
 0003:00000e08       __imp_uv_queue_work        0000000180072e08     node:node.exe
 0003:00000e10       __imp_?Global@Context@v8@@QEAA?AV?$Local@VObject@v8@@@2@XZ 0000000180072e10     node:node.exe
 0003:00000e18       __imp_?Value@External@v8@@QEBAPEAXXZ 0000000180072e18     node:node.exe
 0003:00000e20       __imp_?New@External@v8@@SA?AV?$Local@VExternal@v8@@@2@PEAVIsolate@2@PEAX@Z 0000000180072e20     node:node.exe
 0003:00000e28       __imp_?NewFromUnsigned@Integer@v8@@SA?AV?$Local@VInteger@v8@@@2@PEAVIsolate@2@I@Z 0000000180072e28     node:node.exe
 0003:00000e30       __imp_?New@Integer@v8@@SA?AV?$Local@VInteger@v8@@@2@PEAVIsolate@2@H@Z 0000000180072e30     node:node.exe
 0003:00000e38       __imp_?New@Signature@v8@@SA?AV?$Local@VSignature@v8@@@2@PEAVIsolate@2@V?$Local@VFunctionTemplate@v8@@@2@@Z 0000000180072e38     node:node.exe
 0003:00000e40       __imp_?ThrowException@Isolate@v8@@QEAA?AV?$Local@VValue@v8@@@2@V32@@Z 0000000180072e40     node:node.exe
 0003:00000e48       __imp_?GetCurrentContext@Isolate@v8@@QEAA?AV?$Local@VContext@v8@@@2@XZ 0000000180072e48     node:node.exe
 0003:00000e50       __imp_?GetCurrent@Isolate@v8@@SAPEAV12@XZ 0000000180072e50     node:node.exe
 0003:00000e58       __imp_?CreateHandle@HandleScope@v8@@KAPEAPEAVObject@internal@2@PEAVIsolate@42@PEAV342@@Z 0000000180072e58     node:node.exe
 0003:00000e60       __imp_?CreateHandle@HandleScope@v8@@CAPEAPEAVObject@internal@2@PEAVHeapObject@42@PEAV342@@Z 0000000180072e60     node:node.exe
 0003:00000e68       __imp_??1HandleScope@v8@@QEAA@XZ 0000000180072e68     node:node.exe
 0003:00000e70       __imp_??0HandleScope@v8@@QEAA@PEAVIsolate@1@@Z 0000000180072e70     node:node.exe
 0003:00000e78       __imp_?Set@Template@v8@@QEAAXV?$Local@VName@v8@@@2@V?$Local@VData@v8@@@2@W4PropertyAttribute@2@@Z 0000000180072e78     node:node.exe
 0003:00000e80       __imp_?Error@Exception@v8@@SA?AV?$Local@VValue@v8@@@2@V?$Local@VString@v8@@@2@@Z 0000000180072e80     node:node.exe
 0003:00000e88       __imp_?New@Array@v8@@SA?AV?$Local@VArray@v8@@@2@PEAVIsolate@2@H@Z 0000000180072e88     node:node.exe
 0003:00000e90       __imp_?Length@Array@v8@@QEBAIXZ 0000000180072e90     node:node.exe
 0003:00000e98       __imp_?SetClassName@FunctionTemplate@v8@@QEAAXV?$Local@VString@v8@@@2@@Z 0000000180072e98     node:node.exe
 0003:00000ea0       __imp_?PrototypeTemplate@FunctionTemplate@v8@@QEAA?AV?$Local@VObjectTemplate@v8@@@2@XZ 0000000180072ea0     node:node.exe
 0003:00000ea8       __imp_?InstanceTemplate@FunctionTemplate@v8@@QEAA?AV?$Local@VObjectTemplate@v8@@@2@XZ 0000000180072ea8     node:node.exe
 0003:00000eb0       __imp_?GetFunction@FunctionTemplate@v8@@QEAA?AV?$Local@VFunction@v8@@@2@XZ 0000000180072eb0     node:node.exe
 0003:00000eb8       __imp_?GetFunction@FunctionTemplate@v8@@QEAA?AV?$MaybeLocal@VFunction@v8@@@2@V?$Local@VContext@v8@@@2@@Z 0000000180072eb8     node:node.exe
 0003:00000ec0       __imp_?New@FunctionTemplate@v8@@SA?AV?$Local@VFunctionTemplate@v8@@@2@PEAVIsolate@2@P6AXAEBV?$FunctionCallbackInfo@VValue@v8@@@2@@ZV?$Local@VValue@v8@@@2@V?$Local@VSignature@v8@@@2@H@Z 0000000180072ec0     node:node.exe
 0003:00000ec8       __imp_?Value@Boolean@v8@@QEBA_NXZ 0000000180072ec8     node:node.exe
 0003:00000ed0       __imp_?ToLocalEmpty@V8@v8@@CAXXZ 0000000180072ed0     node:node.exe
 0003:00000ed8       __imp_?FromJustIsNothing@V8@v8@@CAXXZ 0000000180072ed8     node:node.exe
 0003:00000ee0       __imp_?ClearWeak@V8@v8@@CAPEAXPEAPEAVObject@internal@2@@Z 0000000180072ee0     node:node.exe
 0003:00000ee8       __imp_?MakeWeak@V8@v8@@CAXPEAPEAVObject@internal@2@PEAXP6AXAEBV?$WeakCallbackInfo@X@2@@ZW4WeakCallbackType@2@@Z 0000000180072ee8     node:node.exe
 0003:00000ef0       __imp_?DisposeGlobal@V8@v8@@CAXPEAPEAVObject@internal@2@@Z 0000000180072ef0     node:node.exe
 0003:00000ef8       __imp_?GlobalizeReference@V8@v8@@CAPEAPEAVObject@internal@2@PEAVIsolate@42@PEAPEAV342@@Z 0000000180072ef8     node:node.exe
 0003:00000f00       __imp_?Int32Value@Value@v8@@QEBA?AV?$Maybe@H@2@V?$Local@VContext@v8@@@2@@Z 0000000180072f00     node:node.exe
 0003:00000f08       __imp_?Uint32Value@Value@v8@@QEBA?AV?$Maybe@I@2@V?$Local@VContext@v8@@@2@@Z 0000000180072f08     node:node.exe
 0003:00000f10       __imp_?ToInteger@Value@v8@@QEBA?AV?$MaybeLocal@VInteger@v8@@@2@V?$Local@VContext@v8@@@2@@Z 0000000180072f10     node:node.exe
 0003:00000f18       __imp_?IsUint32@Value@v8@@QEBA_NXZ 0000000180072f18     node:node.exe
 0003:00000f20       __imp_?IsInt32@Value@v8@@QEBA_NXZ 0000000180072f20     node:node.exe
 0003:00000f28       __imp_?IsNumber@Value@v8@@QEBA_NXZ 0000000180072f28     node:node.exe
 0003:00000f30       __imp_?IsObject@Value@v8@@QEBA_NXZ 0000000180072f30     node:node.exe
 0003:00000f38       __imp_?IsArray@Value@v8@@QEBA_NXZ 0000000180072f38     node:node.exe
 0003:00000f40       __imp_?IsFunction@Value@v8@@QEBA_NXZ 0000000180072f40     node:node.exe
 0003:00000f48       __imp_?HasCaught@TryCatch@v8@@QEBA_NXZ 0000000180072f48     node:node.exe
 0003:00000f50       __imp_??1TryCatch@v8@@QEAA@XZ 0000000180072f50     node:node.exe
 0003:00000f58       __imp_??0TryCatch@v8@@QEAA@PEAVIsolate@1@@Z 0000000180072f58     node:node.exe
 0003:00000f60       __imp_?Escape@EscapableHandleScope@v8@@AEAAPEAPEAVObject@internal@2@PEAPEAV342@@Z 0000000180072f60     node:node.exe
 0003:00000f68       __imp_??0EscapableHandleScope@v8@@QEAA@PEAVIsolate@1@@Z 0000000180072f68     node:node.exe
 0003:00000f70       __imp_??1Utf8Value@String@v8@@QEAA@XZ 0000000180072f70     node:node.exe
 0003:00000f78       __imp_??0Utf8Value@String@v8@@QEAA@V?$Local@VValue@v8@@@2@@Z 0000000180072f78     node:node.exe
 0003:00000f80       __imp_?NewFromUtf8@String@v8@@SA?AV?$MaybeLocal@VString@v8@@@2@PEAVIsolate@2@PEBDW4NewStringType@2@H@Z 0000000180072f80     node:node.exe
 0003:00000f88       __imp_?SlowGetAlignedPointerFromInternalField@Object@v8@@AEAAPEAXH@Z 0000000180072f88     node:node.exe
 0003:00000f90       __imp_?SlowGetInternalField@Object@v8@@AEAA?AV?$Local@VValue@v8@@@2@H@Z 0000000180072f90     node:node.exe
 0003:00000f98       __imp_?SetAlignedPointerInInternalField@Object@v8@@QEAAXHPEAX@Z 0000000180072f98     node:node.exe
 0003:00000fa0       __imp_?SetInternalField@Object@v8@@QEAAXHV?$Local@VValue@v8@@@2@@Z 0000000180072fa0     node:node.exe
 0003:00000fa8       __imp_?InternalFieldCount@Object@v8@@QEAAHXZ 0000000180072fa8     node:node.exe
 0003:00000fb0       __imp_?Get@Object@v8@@QEAA?AV?$Local@VValue@v8@@@2@V32@@Z 0000000180072fb0     node:node.exe
 0003:00000fb8       __imp_?Get@Object@v8@@QEAA?AV?$Local@VValue@v8@@@2@I@Z 0000000180072fb8     node:node.exe
 0003:00000fc0       __imp_?Set@Object@v8@@QEAA?AV?$Maybe@_N@2@V?$Local@VContext@v8@@@2@V?$Local@VValue@v8@@@2@1@Z 0000000180072fc0     node:node.exe
 0003:00000fc8       __imp_?Set@Object@v8@@QEAA_NIV?$Local@VValue@v8@@@2@@Z 0000000180072fc8     node:node.exe
 0003:00000fd0       __imp_?SetInternalFieldCount@ObjectTemplate@v8@@QEAAXH@Z 0000000180072fd0     node:node.exe
 0003:00000fd8       __imp_?SetAccessor@ObjectTemplate@v8@@QEAAXV?$Local@VName@v8@@@2@P6AX0AEBV?$PropertyCallbackInfo@VValue@v8@@@2@@ZP6AX0V?$Local@VValue@v8@@@2@AEBV?$PropertyCallbackInfo@X@2@@Z3W4AccessControl@2@W4PropertyAttribute@2@V?$Local@VAccessorSignature@v8@@@2@@Z 0000000180072fd8     node:node.exe
 0003:00000fe0       __imp_?NewInstance@ObjectTemplate@v8@@QEAA?AV?$MaybeLocal@VObject@v8@@@2@V?$Local@VContext@v8@@@2@@Z 0000000180072fe0     node:node.exe
 0003:00000fe8       __imp_?New@ObjectTemplate@v8@@SA?AV?$Local@VObjectTemplate@v8@@@2@PEAVIsolate@2@V?$Local@VFunctionTemplate@v8@@@2@@Z 0000000180072fe8     node:node.exe
 0003:00000ff0       __imp_?FatalException@node@@YAXPEAVIsolate@v8@@AEBVTryCatch@3@@Z 0000000180072ff0     node:node.exe
 0003:00000ff8       __imp_node_module_register 0000000180072ff8     node:node.exe
 0003:00001000       __imp_?MakeCallback@node@@YA?AV?$Local@VValue@v8@@@v8@@PEAVIsolate@3@V?$Local@VObject@v8@@@3@V?$Local@VFunction@v8@@@3@HPEAV23@@Z 0000000180073000     node:node.exe
 0003:00001008       __imp_uv_default_loop      0000000180073008     node:node.exe
 0003:00001010       __imp_?ToObject@Value@v8@@QEBA?AV?$Local@VObject@v8@@@2@XZ 0000000180073010     node:node.exe
 0003:00001018       __imp_?ToString@Value@v8@@QEBA?AV?$Local@VString@v8@@@2@XZ 0000000180073018     node:node.exe
 0003:00001020       __imp_?ToBoolean@Value@v8@@QEBA?AV?$Local@VBoolean@v8@@@2@XZ 0000000180073020     node:node.exe
 0003:00001028       __imp_?NewInstance@Function@v8@@QEBA?AV?$MaybeLocal@VObject@v8@@@2@V?$Local@VContext@v8@@@2@@Z 0000000180073028     node:node.exe
 0003:00001030       __imp_??1EscapableHandleScope@v8@@QEAA@XZ 0000000180073030     node:node.exe
 0003:00001038       __imp_?New@Date@v8@@SA?AV?$MaybeLocal@VValue@v8@@@2@V?$Local@VContext@v8@@@2@N@Z 0000000180073038     node:node.exe
 0003:00001040       __imp_?NumberValue@Value@v8@@QEBANXZ 0000000180073040     node:node.exe
 0003:00001048       __imp_?IsDate@Value@v8@@QEBA_NXZ 0000000180073048     node:node.exe
 0003:00001050       __imp_?New@Number@v8@@SA?AV?$Local@VNumber@v8@@@2@PEAVIsolate@2@N@Z 0000000180073050     node:node.exe
 0003:00001058       __imp_?New@Object@v8@@SA?AV?$Local@VObject@v8@@@2@PEAVIsolate@2@@Z 0000000180073058     node:node.exe
 0003:00001060       __imp_?GetOwnPropertyNames@Object@v8@@QEAA?AV?$Local@VArray@v8@@@2@XZ 0000000180073060     node:node.exe
 0003:00001068       __imp_?ForceSet@Object@v8@@QEAA?AV?$Maybe@_N@2@V?$Local@VContext@v8@@@2@V?$Local@VValue@v8@@@2@1W4PropertyAttribute@2@@Z 0000000180073068     node:node.exe
 0003:00001070       __imp_?Set@Object@v8@@QEAA?AV?$Maybe@_N@2@V?$Local@VContext@v8@@@2@IV?$Local@VValue@v8@@@2@@Z 0000000180073070     node:node.exe
 0003:00001078       __imp_?Call@Function@v8@@QEAA?AV?$Local@VValue@v8@@@2@V32@HQEAV32@@Z 0000000180073078     node:node.exe
 0003:00001080       __imp_?HasInstance@Buffer@node@@YA_NV?$Local@VValue@v8@@@v8@@@Z 0000000180073080     node:node.exe
 0003:00001088       __imp_?HasInstance@Buffer@node@@YA_NV?$Local@VObject@v8@@@v8@@@Z 0000000180073088     node:node.exe
 0003:00001090       __imp_?Data@Buffer@node@@YAPEADV?$Local@VObject@v8@@@v8@@@Z 0000000180073090     node:node.exe
 0003:00001098       __imp_?Copy@Buffer@node@@YA?AV?$MaybeLocal@VObject@v8@@@v8@@PEAVIsolate@4@PEBD_K@Z 0000000180073098     node:node.exe
 0003:000010a0       __imp_?Length@Buffer@node@@YA_KV?$Local@VObject@v8@@@v8@@@Z 00000001800730a0     node:node.exe
 0003:000010a8       __imp_?HasInstance@FunctionTemplate@v8@@QEAA_NV?$Local@VValue@v8@@@2@@Z 00000001800730a8     node:node.exe
 0003:000010b0       \177node_NULL_THUNK_DATA_DLA 00000001800730b0     node:node.exe
 0003:000010c0       __hmod__node_exe           00000001800730c0     node:node.exe
 0003:00001228       ?_Id_cnt@id@locale@std@@0HA 0000000180073228     libcpmt:locale0.obj
 0003:00001230       ?_Clocptr@_Locimp@locale@std@@0PEAV123@EA 0000000180073230     libcpmt:locale0.obj
 0003:00001240       ?id@?$ctype@_W@std@@2V0locale@2@A 0000000180073240     libcpmt:locale0.obj
 0003:00001248       ?id@?$ctype@D@std@@2V0locale@2@A 0000000180073248     libcpmt:locale0.obj
 0003:00001250       ?id@?$codecvt@GDU_Mbstatet@@@std@@2V0locale@2@A 0000000180073250     libcpmt:locale0.obj
 0003:00001258       ?id@?$ctype@G@std@@2V0locale@2@A 0000000180073258     libcpmt:locale0.obj
 0003:00001270       ?id@?$codecvt@_WDU_Mbstatet@@@std@@2V0locale@2@A 0000000180073270     libcpmt:locale0.obj
 0003:000012dc       ?_Index@ios_base@std@@0HA  00000001800732dc     libcpmt:ios.obj
 0003:000012e0       ?_Raise_handler@std@@3P6AXAEBVexception@stdext@@@ZEA 00000001800732e0     libcpmt:raisehan.obj
 0003:000012f0       ?_Ptr_cin@std@@3PEAV?$basic_istream@DU?$char_traits@D@std@@@1@EA 00000001800732f0     libcpmt:iosptrs.obj
 0003:000012f8       ?_Ptr_cout@std@@3PEAV?$basic_ostream@DU?$char_traits@D@std@@@1@EA 00000001800732f8     libcpmt:iosptrs.obj
 0003:00001300       ?_Ptr_cerr@std@@3PEAV?$basic_ostream@DU?$char_traits@D@std@@@1@EA 0000000180073300     libcpmt:iosptrs.obj
 0003:00001308       ?_Ptr_clog@std@@3PEAV?$basic_ostream@DU?$char_traits@D@std@@@1@EA 0000000180073308     libcpmt:iosptrs.obj
 0003:00001310       ?_Ptr_wcin@std@@3PEAV?$basic_istream@_WU?$char_traits@_W@std@@@1@EA 0000000180073310     libcpmt:iosptrs.obj
 0003:00001318       ?_Ptr_wcout@std@@3PEAV?$basic_ostream@_WU?$char_traits@_W@std@@@1@EA 0000000180073318     libcpmt:iosptrs.obj
 0003:00001320       ?_Ptr_wcerr@std@@3PEAV?$basic_ostream@_WU?$char_traits@_W@std@@@1@EA 0000000180073320     libcpmt:iosptrs.obj
 0003:00001328       ?_Ptr_wclog@std@@3PEAV?$basic_ostream@_WU?$char_traits@_W@std@@@1@EA 0000000180073328     libcpmt:iosptrs.obj
 0003:00001388       ?id@?$num_get@DV?$istreambuf_iterator@DU?$char_traits@D@std@@@std@@@std@@2V0locale@2@A 0000000180073388     libcpmt:locale.obj
 0003:00001390       ?id@?$codecvt@DDU_Mbstatet@@@std@@2V0locale@2@A 0000000180073390     libcpmt:locale.obj
 0003:000013a0       __encodedKERNEL32Functions 00000001800733a0     libcpmt:winapisupp.obj
 0003:000014e0       ?id@?$time_put@_WV?$ostreambuf_iterator@_WU?$char_traits@_W@std@@@std@@@std@@2V0locale@2@A 00000001800734e0     libcpmt:wlocale.obj
 0003:000014e8       ?id@?$num_get@_WV?$istreambuf_iterator@_WU?$char_traits@_W@std@@@std@@@std@@2V0locale@2@A 00000001800734e8     libcpmt:wlocale.obj
 0003:000014f0       ?id@?$num_put@_WV?$ostreambuf_iterator@_WU?$char_traits@_W@std@@@std@@@std@@2V0locale@2@A 00000001800734f0     libcpmt:wlocale.obj
 0003:000014f8       ?id@?$numpunct@_W@std@@2V0locale@2@A 00000001800734f8     libcpmt:wlocale.obj
 0003:00001500       ?id@?$collate@_W@std@@2V0locale@2@A 0000000180073500     libcpmt:wlocale.obj
 0003:00001508       ?id@?$messages@_W@std@@2V0locale@2@A 0000000180073508     libcpmt:wlocale.obj
 0003:00001510       ?id@?$money_get@_WV?$istreambuf_iterator@_WU?$char_traits@_W@std@@@std@@@std@@2V0locale@2@A 0000000180073510     libcpmt:wlocale.obj
 0003:00001518       ?id@?$money_put@_WV?$ostreambuf_iterator@_WU?$char_traits@_W@std@@@std@@@std@@2V0locale@2@A 0000000180073518     libcpmt:wlocale.obj
 0003:00001520       ?id@?$moneypunct@_W$0A@@std@@2V0locale@2@A 0000000180073520     libcpmt:wlocale.obj
 0003:00001528       ?id@?$moneypunct@_W$00@std@@2V0locale@2@A 0000000180073528     libcpmt:wlocale.obj
 0003:00001530       ?id@?$time_get@_WV?$istreambuf_iterator@_WU?$char_traits@_W@std@@@std@@@std@@2V0locale@2@A 0000000180073530     libcpmt:wlocale.obj
 0003:00001538       ?id@?$num_get@GV?$istreambuf_iterator@GU?$char_traits@G@std@@@std@@@std@@2V0locale@2@A 0000000180073538     libcpmt:wlocale.obj
 0003:00001540       ?id@?$num_put@GV?$ostreambuf_iterator@GU?$char_traits@G@std@@@std@@@std@@2V0locale@2@A 0000000180073540     libcpmt:wlocale.obj
 0003:00001548       ?id@?$numpunct@G@std@@2V0locale@2@A 0000000180073548     libcpmt:wlocale.obj
 0003:00001550       ?id@?$collate@G@std@@2V0locale@2@A 0000000180073550     libcpmt:wlocale.obj
 0003:00001558       ?id@?$messages@G@std@@2V0locale@2@A 0000000180073558     libcpmt:wlocale.obj
 0003:00001560       ?id@?$money_get@GV?$istreambuf_iterator@GU?$char_traits@G@std@@@std@@@std@@2V0locale@2@A 0000000180073560     libcpmt:wlocale.obj
 0003:00001568       ?id@?$money_put@GV?$ostreambuf_iterator@GU?$char_traits@G@std@@@std@@@std@@2V0locale@2@A 0000000180073568     libcpmt:wlocale.obj
 0003:00001570       ?id@?$moneypunct@G$0A@@std@@2V0locale@2@A 0000000180073570     libcpmt:wlocale.obj
 0003:00001578       ?id@?$moneypunct@G$00@std@@2V0locale@2@A 0000000180073578     libcpmt:wlocale.obj
 0003:00001580       ?id@?$time_get@GV?$istreambuf_iterator@GU?$char_traits@G@std@@@std@@@std@@2V0locale@2@A 0000000180073580     libcpmt:wlocale.obj
 0003:00001588       ?id@?$time_put@GV?$ostreambuf_iterator@GU?$char_traits@G@std@@@std@@@std@@2V0locale@2@A 0000000180073588     libcpmt:wlocale.obj
 0003:00001590       ?id@?$collate@D@std@@2V0locale@2@A 0000000180073590     libcpmt:xlocale.obj
 0003:00001598       ?id@?$messages@D@std@@2V0locale@2@A 0000000180073598     libcpmt:xlocale.obj
 0003:000015a0       ?id@?$money_get@DV?$istreambuf_iterator@DU?$char_traits@D@std@@@std@@@std@@2V0locale@2@A 00000001800735a0     libcpmt:xlocale.obj
 0003:000015a8       ?id@?$money_put@DV?$ostreambuf_iterator@DU?$char_traits@D@std@@@std@@@std@@2V0locale@2@A 00000001800735a8     libcpmt:xlocale.obj
 0003:000015b0       ?id@?$moneypunct@D$0A@@std@@2V0locale@2@A 00000001800735b0     libcpmt:xlocale.obj
 0003:000015b8       ?id@?$moneypunct@D$00@std@@2V0locale@2@A 00000001800735b8     libcpmt:xlocale.obj
 0003:000015c0       ?id@?$time_get@DV?$istreambuf_iterator@DU?$char_traits@D@std@@@std@@@std@@2V0locale@2@A 00000001800735c0     libcpmt:xlocale.obj
 0003:000015c8       ?id@?$time_put@DV?$ostreambuf_iterator@DU?$char_traits@D@std@@@std@@@std@@2V0locale@2@A 00000001800735c8     libcpmt:xlocale.obj
 0003:00001618       __scrt_current_native_startup_state 0000000180073618     LIBCMT:utility.obj
 0003:00001620       __scrt_native_startup_lock 0000000180073620     LIBCMT:utility.obj
 0003:00001bd4       __scrt_debugger_hook_flag  0000000180073bd4     LIBCMT:utility_desktop.obj
 0003:00001bd8       _tls_index                 0000000180073bd8     LIBCMT:tlssup.obj
 0003:00001bdc       __favor                    0000000180073bdc     LIBCMT:_cpu_disp_.obj
 0003:00001be0       ?__type_info_root_node@@3U__type_info_node@@A 0000000180073be0     LIBCMT:tncleanup.obj
 0003:00001bf0       ?_OptionsStorage@?1??__local_stdio_scanf_options@@9@4_KA 0000000180073bf0     LIBCMT:default_local_stdio_options.obj
 0003:00001bf8       ?g_OutOfMemoryExceptionCallback@@3P6APEAXXZEA 0000000180073bf8     libvcruntime:frame.obj
 0003:00001c68       __pPurecall                0000000180073c68     libvcruntime:purevirt_data.obj
 0003:00001d18       ?pArgList@UnDecorator@@0PEAVReplicator@@EA 0000000180073d18     libvcruntime:undname.obj
 0003:00001d20       ?pZNameList@UnDecorator@@0PEAVReplicator@@EA 0000000180073d20     libvcruntime:undname.obj
 0003:00001d28       ?pTemplateArgList@UnDecorator@@0PEAVReplicator@@EA 0000000180073d28     libvcruntime:undname.obj
 0003:00001d30       ?gName@UnDecorator@@0PEBDEB 0000000180073d30     libvcruntime:undname.obj
 0003:00001d38       ?name@UnDecorator@@0PEBDEB 0000000180073d38     libvcruntime:undname.obj
 0003:00001d40       ?outputString@UnDecorator@@0PEADEA 0000000180073d40     libvcruntime:undname.obj
 0003:00001d48       ?maxStringLength@UnDecorator@@0HA 0000000180073d48     libvcruntime:undname.obj
 0003:00001d4c       ?disableFlags@UnDecorator@@0KA 0000000180073d4c     libvcruntime:undname.obj
 0003:00001d50       ?fExplicitTemplateParams@UnDecorator@@0_NA 0000000180073d50     libvcruntime:undname.obj
 0003:00001d51       ?fGetTemplateArgumentList@UnDecorator@@0_NA 0000000180073d51     libvcruntime:undname.obj
 0003:00001d58       ?m_pGetParameter@UnDecorator@@0P6APEADJ@ZEA 0000000180073d58     libvcruntime:undname.obj
 0003:00001d90       __acrt_lconv_static_null   0000000180073d90     libucrt:localeconv.obj
 0003:00001d94       __acrt_lconv_static_W_null 0000000180073d94     libucrt:localeconv.obj
 0003:000020d8       _environ_table             00000001800740d8     libucrt:environment_initialization.obj
 0003:000020e0       _wenviron_table            00000001800740e0     libucrt:environment_initialization.obj
 0003:000020e8       __dcrt_initial_wide_environment 00000001800740e8     libucrt:environment_initialization.obj
 0003:000020f0       __dcrt_initial_narrow_environment 00000001800740f0     libucrt:environment_initialization.obj
 0003:000020f8       __acrt_atexit_table        00000001800740f8     libucrt:onexit.obj
 0003:00002110       __acrt_at_quick_exit_table 0000000180074110     libucrt:onexit.obj
 0003:00002148       _nstream                   0000000180074148     libucrt:_file.obj
 0003:00002150       __piob                     0000000180074150     libucrt:_file.obj
 0003:00002158       _cflush                    0000000180074158     libucrt:_file.obj
 0003:00002168       __acrt_stdout_buffer       0000000180074168     libucrt:_sftbuf.obj
 0003:00002170       __acrt_stderr_buffer       0000000180074170     libucrt:_sftbuf.obj
 0003:00002178       __acrt_locale_changed_data 0000000180074178     libucrt:wsetlocale.obj
 0003:00002180       __acrt_current_locale_data 0000000180074180     libucrt:nlsdata.obj
 0003:00002190       __pioinfo                  0000000180074190     libucrt:ioinit.obj
 0003:00002590       _nhandle                   0000000180074590     libucrt:ioinit.obj
 0003:00002750       __acrt_heap                0000000180074750     libucrt:heap_handle.obj
 0003:00002758       __fma3_is_available        0000000180074758     libucrt:fma3_available.obj
 0003:0000275c       __use_fma3_lib             000000018007475c     libucrt:fma3_available.obj
 0003:00002760       ?_timezone@@3V?$dual_state_global@J@__crt_state_management@@A 0000000180074760     libucrt:timeset.obj
 0003:00002764       ?_daylight@@3V?$dual_state_global@H@__crt_state_management@@A 0000000180074764     libucrt:timeset.obj
 0003:00002768       ?_dstbias@@3V?$dual_state_global@J@__crt_state_management@@A 0000000180074768     libucrt:timeset.obj
 0003:0000283c       __mbcodepage               000000018007483c     libucrt:mbctype.obj
 0003:00002840       __ismbcodepage             0000000180074840     libucrt:mbctype.obj
 0003:00002848       __mbulinfo                 0000000180074848     libucrt:mbctype.obj
 0003:00002858       __mblocalename             0000000180074858     libucrt:mbctype.obj
 0003:00002864       __argc                     0000000180074864     libucrt:argv_data.obj
 0003:00002868       __argv                     0000000180074868     libucrt:argv_data.obj
 0003:00002870       __wargv                    0000000180074870     libucrt:argv_data.obj
 0003:00002878       _acmdln                    0000000180074878     libucrt:argv_data.obj
 0003:00002880       _wcmdln                    0000000180074880     libucrt:argv_data.obj
 0003:00002888       _pgmptr                    0000000180074888     libucrt:argv_data.obj
 0003:00002898       ?DloadKernel32@@3PEAUHINSTANCE__@@EA 0000000180074898     DelayImp:delayhlp.obj
 0003:000028a0       ?DloadAcquireSRWLockExclusive@@3P6AXPEA_K@ZEA 00000001800748a0     DelayImp:delayhlp.obj
 0003:000028a8       ?DloadReleaseSRWLockExclusive@@3P6AXPEA_K@ZEA 00000001800748a8     DelayImp:delayhlp.obj
 0003:000028b0       ?DloadSrwLock@@3_KA        00000001800748b0     DelayImp:delayhlp.obj
 0003:000028b8       ?DloadSectionLockCount@@3KA 00000001800748b8     DelayImp:delayhlp.obj
 0003:000028bc       ?DloadSectionOldProtection@@3KA 00000001800748bc     DelayImp:delayhlp.obj
 0003:000028c0       ?DloadSectionCommitPermanent@@3KA 00000001800748c0     DelayImp:delayhlp.obj
 0003:000028c8       ?_Static@?1???$_Immortalize@V_Iostream_error_category@std@@@std@@YAAEAV_Iostream_error_category@1@XZ@4U?$_Immortalizer@V_Iostream_error_category@std@@@1@A 00000001800748c8     njsOracle.obj
 0003:000028d8       ?$TSS0@?1???$_Immortalize@V_Iostream_error_category@std@@@std@@YAAEAV_Iostream_error_category@1@XZ@4HA 00000001800748d8     njsOracle.obj
 0003:000028e0       ?_OptionsStorage@?1??__local_stdio_printf_options@@9@4_KA 00000001800748e0     njsOracle.obj
 0003:000028e8       ?_Psave@?$_Facetptr@V?$numpunct@D@std@@@std@@2PEBVfacet@locale@2@EB 00000001800748e8     njsOracle.obj
 0003:000028f0       ?_Psave@?$_Facetptr@V?$num_put@DV?$ostreambuf_iterator@DU?$char_traits@D@std@@@std@@@std@@@std@@2PEBVfacet@locale@2@EB 00000001800748f0     njsOracle.obj
 0003:000028f8       ?_Psave@?$_Facetptr@V?$ctype@D@std@@@std@@2PEBVfacet@locale@2@EB 00000001800748f8     njsOracle.obj
 0003:00002900       ?baseDate_@DateTimeArrayImpl@dpi@@0PEAUOCIDateTime@@EA 0000000180074900     dpiDateTimeArrayImpl.obj
 0003:00002908       ?oracledbTemplate_s@Oracledb@@0V?$Persistent@VFunctionTemplate@v8@@V?$NonCopyablePersistentTraits@VFunctionTemplate@v8@@@2@@Nan@@A 0000000180074908     njsOracle.obj
 0003:00002910       ?poolTemplate_s@Pool@@2V?$Persistent@VFunctionTemplate@v8@@V?$NonCopyablePersistentTraits@VFunctionTemplate@v8@@@2@@Nan@@A 0000000180074910     njsPool.obj
 0003:00002918       ?connectionTemplate_s@Connection@@2V?$Persistent@VFunctionTemplate@v8@@V?$NonCopyablePersistentTraits@VFunctionTemplate@v8@@@2@@Nan@@A 0000000180074918     njsConnection.obj
 0003:00002920       ?resultSetTemplate_s@ResultSet@@2V?$Persistent@VFunctionTemplate@v8@@V?$NonCopyablePersistentTraits@VFunctionTemplate@v8@@@2@@Nan@@A 0000000180074920     njsResultSet.obj
 0003:00002928       ?iLobTemplate_s@ILob@@2V?$Persistent@VFunctionTemplate@v8@@V?$NonCopyablePersistentTraits@VFunctionTemplate@v8@@@2@@Nan@@A 0000000180074928     njsIntLob.obj
 0003:00002930       ?s_propPingName_@ConnImpl@@0V?$basic_string@DU?$char_traits@D@std@@V?$allocator@D@2@@std@@A 0000000180074930     dpiConnImpl.obj
 0003:00002950       ?id@?$num_put@DV?$ostreambuf_iterator@DU?$char_traits@D@std@@@std@@@std@@2V0locale@2@A 0000000180074950     njsOracle.obj
 0003:00002958       ?id@?$numpunct@D@std@@2V0locale@2@A 0000000180074958     njsOracle.obj
 0003:00002960       __dyn_tls_init_callback    0000000180074960     <common>
 0003:00002968       __scrt_ucrt_dll_is_in_use  0000000180074968     <common>
 0006:00000000       _tls_start                 000000018007a000     LIBCMT:tlssup.obj
 0006:00000004       _Init_thread_epoch         000000018007a004     LIBCMT:thread_safe_statics.obj
 0006:00000008       _tls_end                   000000018007a008     LIBCMT:tlssup.obj

 entry point at        0001:0002d8e4

 Static symbols

 0000:fff82000       .debug$S                   0000000180000000     node:node.exe
 0000:fff82000       .debug$S                   0000000180000000     node:node.exe
 0000:fff82000       .debug$S                   0000000180000000     node:node.exe
 0000:fff82000       .debug$S                   0000000180000000     oracledb.exp
 0000:fff82000       .debug$S                   0000000180000000     kernel32:KERNEL32.dll
 0000:fff82000       .debug$S                   0000000180000000     node:node.exe
 0000:fff82000       .debug$S                   0000000180000000     kernel32:KERNEL32.dll
 0000:fff82000       .debug$S                   0000000180000000     kernel32:KERNEL32.dll
 0000:fff82000       .debug$S                   0000000180000000     kernel32:KERNEL32.dll
 0000:fff82000       .debug$S                   0000000180000000     kernel32:KERNEL32.dll
 0000:fff82000       .debug$S                   0000000180000000     node:node.exe
 0000:fff82000       .debug$S                   0000000180000000     node:node.exe
 0000:fff82000       .debug$S                   0000000180000000     node:node.exe
 0000:fff82000       .debug$S                   0000000180000000     node:node.exe
 0000:fff82000       .debug$S                   0000000180000000     node:node.exe
 0000:fff82000       .debug$S                   0000000180000000     node:node.exe
 0000:fff82000       .debug$S                   0000000180000000     node:node.exe
 0000:fff82000       .debug$S                   0000000180000000     node:node.exe
 0000:fff82000       .debug$S                   0000000180000000     node:node.exe
 0000:fff82000       .debug$S                   0000000180000000     node:node.exe
 0000:fff82000       .debug$S                   0000000180000000     node:node.exe
 0000:fff82000       .debug$S                   0000000180000000     node:node.exe
 0000:fff82000       .debug$S                   0000000180000000     node:node.exe
 0000:fff82000       .debug$S                   0000000180000000     node:node.exe
 0000:fff82000       .debug$S                   0000000180000000     node:node.exe
 0000:fff82000       .debug$S                   0000000180000000     node:node.exe
 0000:fff82000       .debug$S                   0000000180000000     node:node.exe
 0000:fff82000       .debug$S                   0000000180000000     node:node.exe
 0000:fff82000       .debug$S                   0000000180000000     node:node.exe
 0000:fff82000       .debug$S                   0000000180000000     node:node.exe
 0000:fff82000       .debug$S                   0000000180000000     node:node.exe
 0000:fff82000       .debug$S                   0000000180000000     node:node.exe
 0000:fff82000       .debug$S                   0000000180000000     node:node.exe
 0000:fff82000       .debug$S                   0000000180000000     node:node.exe
 0000:fff82000       .debug$S                   0000000180000000     node:node.exe
 0000:fff82000       .debug$S                   0000000180000000     node:node.exe
 0000:fff82000       .debug$S                   0000000180000000     node:node.exe
 0000:fff82000       .debug$S                   0000000180000000     node:node.exe
 0000:fff82000       .debug$S                   0000000180000000     node:node.exe
 0000:fff82000       .debug$S                   0000000180000000     node:node.exe
 0000:fff82000       .debug$S                   0000000180000000     node:node.exe
 0000:fff82000       .debug$S                   0000000180000000     node:node.exe
 0000:fff82000       .debug$S                   0000000180000000     node:node.exe
 0000:fff82000       .debug$S                   0000000180000000     node:node.exe
 0000:fff82000       .debug$S                   0000000180000000     node:node.exe
 0000:fff82000       .debug$S                   0000000180000000     node:node.exe
 0000:fff82000       .debug$S                   0000000180000000     node:node.exe
 0000:fff82000       .debug$S                   0000000180000000     node:node.exe
 0000:fff82000       .debug$S                   0000000180000000     node:node.exe
 0000:fff82000       .debug$S                   0000000180000000     node:node.exe
 0000:fff82000       .debug$S                   0000000180000000     node:node.exe
 0000:fff82000       .debug$S                   0000000180000000     node:node.exe
 0000:fff82000       .debug$S                   0000000180000000     node:node.exe
 0000:fff82000       .debug$S                   0000000180000000     node:node.exe
 0000:fff82000       .debug$S                   0000000180000000     node:node.exe
 0000:fff82000       .debug$S                   0000000180000000     node:node.exe
 0000:fff82000       .debug$S                   0000000180000000     node:node.exe
 0000:fff82000       .debug$S                   0000000180000000     node:node.exe
 0000:fff82000       .debug$S                   0000000180000000     node:node.exe
 0000:fff82000       .debug$S                   0000000180000000     node:node.exe
 0000:fff82000       .debug$S                   0000000180000000     node:node.exe
 0000:fff82000       .debug$S                   0000000180000000     node:node.exe
 0000:fff82000       .debug$S                   0000000180000000     node:node.exe
 0000:fff82000       .debug$S                   0000000180000000     node:node.exe
 0000:fff82000       .debug$S                   0000000180000000     node:node.exe
 0000:fff82000       .debug$S                   0000000180000000     node:node.exe
 0000:fff82000       .debug$S                   0000000180000000     node:node.exe
 0000:fff82000       .debug$S                   0000000180000000     node:node.exe
 0000:fff82000       .debug$S                   0000000180000000     node:node.exe
 0000:fff82000       .debug$S                   0000000180000000     node:node.exe
 0000:fff82000       .debug$S                   0000000180000000     node:node.exe
 0000:fff82000       .debug$S                   0000000180000000     node:node.exe
 0000:fff82000       .debug$S                   0000000180000000     node:node.exe
 0000:fff82000       .debug$S                   0000000180000000     node:node.exe
 0000:fff82000       .debug$S                   0000000180000000     node:node.exe
 0000:fff82000       .debug$S                   0000000180000000     node:node.exe
 0000:fff82000       .debug$S                   0000000180000000     node:node.exe
 0000:fff82000       .debug$S                   0000000180000000     node:node.exe
 0000:fff82000       .debug$S                   0000000180000000     oci:OCI.dll
 0000:fff82000       .debug$S                   0000000180000000     node:node.exe
 0000:fff82000       .debug$S                   0000000180000000     node:node.exe
 0000:fff82000       .debug$S                   0000000180000000     oci:OCI.dll
 0000:fff82000       .debug$S                   0000000180000000     oci:OCI.dll
 0000:fff82000       .debug$S                   0000000180000000     oci:OCI.dll
 0000:fff82000       .debug$S                   0000000180000000     node:node.exe
 0000:fff82000       .debug$S                   0000000180000000     node:node.exe
 0000:fff82000       .debug$S                   0000000180000000     oci:OCI.dll
 0000:fff82000       .debug$S                   0000000180000000     oci:OCI.dll
 0000:fff82000       .debug$S                   0000000180000000     oci:OCI.dll
 0000:fff82000       .debug$S                   0000000180000000     node:node.exe
 0000:fff82000       .debug$S                   0000000180000000     node:node.exe
 0000:fff82000       .debug$S                   0000000180000000     oci:OCI.dll
 0000:fff82000       .debug$S                   0000000180000000     oci:OCI.dll
 0000:fff82000       .debug$S                   0000000180000000     oci:OCI.dll
 0000:fff82000       .debug$S                   0000000180000000     node:node.exe
 0000:fff82000       .debug$S                   0000000180000000     node:node.exe
 0000:fff82000       .debug$S                   0000000180000000     oci:OCI.dll
 0000:fff82000       .debug$S                   0000000180000000     oci:OCI.dll
 0000:fff82000       .debug$S                   0000000180000000     oci:OCI.dll
 0000:fff82000       .debug$S                   0000000180000000     node:node.exe
 0000:fff82000       .debug$S                   0000000180000000     node:node.exe
 0000:fff82000       .debug$S                   0000000180000000     oci:OCI.dll
 0000:fff82000       .debug$S                   0000000180000000     oci:OCI.dll
 0000:fff82000       .debug$S                   0000000180000000     oci:OCI.dll
 0000:fff82000       .debug$S                   0000000180000000     node:node.exe
 0000:fff82000       .debug$S                   0000000180000000     node:node.exe
 0000:fff82000       .debug$S                   0000000180000000     oci:OCI.dll
 0000:fff82000       .debug$S                   0000000180000000     oci:OCI.dll
 0000:fff82000       .debug$S                   0000000180000000     oci:OCI.dll
 0000:fff82000       .debug$S                   0000000180000000     node:node.exe
 0000:fff82000       .debug$S                   0000000180000000     node:node.exe
 0000:fff82000       .debug$S                   0000000180000000     oci:OCI.dll
 0000:fff82000       .debug$S                   0000000180000000     oci:OCI.dll
 0000:fff82000       .debug$S                   0000000180000000     oci:OCI.dll
 0000:fff82000       .debug$S                   0000000180000000     node:node.exe
 0000:fff82000       .debug$S                   0000000180000000     node:node.exe
 0000:fff82000       .debug$S                   0000000180000000     oci:OCI.dll
 0000:fff82000       .debug$S                   0000000180000000     oci:OCI.dll
 0000:fff82000       .debug$S                   0000000180000000     oci:OCI.dll
 0000:fff82000       .debug$S                   0000000180000000     node:node.exe
 0000:fff82000       .debug$S                   0000000180000000     node:node.exe
 0000:fff82000       .debug$S                   0000000180000000     oci:OCI.dll
 0000:fff82000       .debug$S                   0000000180000000     oci:OCI.dll
 0000:fff82000       .debug$S                   0000000180000000     oci:OCI.dll
 0000:fff82000       .debug$S                   0000000180000000     node:node.exe
 0000:fff82000       .debug$S                   0000000180000000     node:node.exe
 0000:fff82000       .debug$S                   0000000180000000     oci:OCI.dll
 0000:fff82000       .debug$S                   0000000180000000     oci:OCI.dll
 0000:fff82000       .debug$S                   0000000180000000     oci:OCI.dll
 0000:fff82000       .debug$S                   0000000180000000     node:node.exe
 0000:fff82000       .debug$S                   0000000180000000     node:node.exe
 0000:fff82000       .debug$S                   0000000180000000     oci:OCI.dll
 0000:fff82000       .debug$S                   0000000180000000     oci:OCI.dll
 0000:fff82000       .debug$S                   0000000180000000     oci:OCI.dll
 0000:fff82000       .debug$S                   0000000180000000     node:node.exe
 0000:fff82000       .debug$S                   0000000180000000     node:node.exe
 0000:fff82000       .debug$S                   0000000180000000     oci:OCI.dll
 0000:fff82000       .debug$S                   0000000180000000     oci:OCI.dll
 0000:fff82000       .debug$S                   0000000180000000     oci:OCI.dll
 0000:fff82000       .debug$S                   0000000180000000     node:node.exe
 0000:fff82000       .debug$S                   0000000180000000     node:node.exe
 0000:fff82000       .debug$S                   0000000180000000     oci:OCI.dll
 0000:fff82000       .debug$S                   0000000180000000     oci:OCI.dll
 0000:fff82000       .debug$S                   0000000180000000     oci:OCI.dll
 0000:fff82000       .debug$S                   0000000180000000     node:node.exe
 0000:fff82000       .debug$S                   0000000180000000     node:node.exe
 0000:fff82000       .debug$S                   0000000180000000     oci:OCI.dll
 0000:fff82000       .debug$S                   0000000180000000     oci:OCI.dll
 0000:fff82000       .debug$S                   0000000180000000     oci:OCI.dll
 0000:fff82000       .debug$S                   0000000180000000     node:node.exe
 0000:fff82000       .debug$S                   0000000180000000     node:node.exe
 0000:fff82000       .debug$S                   0000000180000000     oci:OCI.dll
 0000:fff82000       .debug$S                   0000000180000000     kernel32:KERNEL32.dll
 0000:fff82000       .debug$S                   0000000180000000     oci:OCI.dll
 0000:fff82000       .debug$S                   0000000180000000     oci:OCI.dll
 0000:fff82000       .debug$S                   0000000180000000     oci:OCI.dll
 0000:fff82000       .debug$S                   0000000180000000     node:node.exe
 0000:fff82000       .debug$S                   0000000180000000     kernel32:KERNEL32.dll
 0000:fff82000       .debug$S                   0000000180000000     kernel32:KERNEL32.dll
 0000:fff82000       .debug$S                   0000000180000000     kernel32:KERNEL32.dll
 0000:fff82000       .debug$S                   0000000180000000     kernel32:KERNEL32.dll
 0000:fff82000       .debug$S                   0000000180000000     kernel32:KERNEL32.dll
 0000:fff82000       .debug$S                   0000000180000000     kernel32:KERNEL32.dll
 0000:fff82000       .debug$S                   0000000180000000     kernel32:KERNEL32.dll
 0000:fff82000       .debug$S                   0000000180000000     kernel32:KERNEL32.dll
 0000:fff82000       .debug$S                   0000000180000000     kernel32:KERNEL32.dll
 0000:fff82000       .debug$S                   0000000180000000     kernel32:KERNEL32.dll
 0000:fff82000       .debug$S                   0000000180000000     kernel32:KERNEL32.dll
 0000:fff82000       .debug$S                   0000000180000000     kernel32:KERNEL32.dll
 0000:fff82000       .debug$S                   0000000180000000     kernel32:KERNEL32.dll
 0000:fff82000       .debug$S                   0000000180000000     kernel32:KERNEL32.dll
 0000:fff82000       .debug$S                   0000000180000000     kernel32:KERNEL32.dll
 0000:fff82000       .debug$S                   0000000180000000     kernel32:KERNEL32.dll
 0000:fff82000       .debug$S                   0000000180000000     kernel32:KERNEL32.dll
 0000:fff82000       .debug$S                   0000000180000000     kernel32:KERNEL32.dll
 0000:fff82000       .debug$S                   0000000180000000     kernel32:KERNEL32.dll
 0000:fff82000       .debug$S                   0000000180000000     kernel32:KERNEL32.dll
 0000:fff82000       .debug$S                   0000000180000000     kernel32:KERNEL32.dll
 0000:fff82000       .debug$S                   0000000180000000     kernel32:KERNEL32.dll
 0000:fff82000       .debug$S                   0000000180000000     kernel32:KERNEL32.dll
 0000:fff82000       .debug$S                   0000000180000000     kernel32:KERNEL32.dll
 0000:fff82000       .debug$S                   0000000180000000     kernel32:KERNEL32.dll
 0000:fff82000       .debug$S                   0000000180000000     kernel32:KERNEL32.dll
 0000:fff82000       .debug$S                   0000000180000000     kernel32:KERNEL32.dll
 0000:fff82000       .debug$S                   0000000180000000     kernel32:KERNEL32.dll
 0000:fff82000       .debug$S                   0000000180000000     kernel32:KERNEL32.dll
 0000:fff82000       .debug$S                   0000000180000000     kernel32:KERNEL32.dll
 0000:fff82000       .debug$S                   0000000180000000     kernel32:KERNEL32.dll
 0000:fff82000       .debug$S                   0000000180000000     kernel32:KERNEL32.dll
 0000:fff82000       .debug$S                   0000000180000000     kernel32:KERNEL32.dll
 0000:fff82000       .debug$S                   0000000180000000     kernel32:KERNEL32.dll
 0000:fff82000       .debug$S                   0000000180000000     kernel32:KERNEL32.dll
 0000:fff82000       .debug$S                   0000000180000000     kernel32:KERNEL32.dll
 0000:fff82000       .debug$S                   0000000180000000     kernel32:KERNEL32.dll
 0000:fff82000       .debug$S                   0000000180000000     kernel32:KERNEL32.dll
 0000:fff82000       .debug$S                   0000000180000000     kernel32:KERNEL32.dll
 0000:fff82000       .debug$S                   0000000180000000     kernel32:KERNEL32.dll
 0000:fff82000       .debug$S                   0000000180000000     kernel32:KERNEL32.dll
 0000:fff82000       .debug$S                   0000000180000000     kernel32:KERNEL32.dll
 0000:fff82000       .debug$S                   0000000180000000     kernel32:KERNEL32.dll
 0000:fff82000       .debug$S                   0000000180000000     kernel32:KERNEL32.dll
 0000:fff82000       .debug$S                   0000000180000000     kernel32:KERNEL32.dll
 0000:fff82000       .debug$S                   0000000180000000     kernel32:KERNEL32.dll
 0000:fff82000       .debug$S                   0000000180000000     kernel32:KERNEL32.dll
 0000:fff82000       .debug$S                   0000000180000000     kernel32:KERNEL32.dll
 0000:fff82000       .debug$S                   0000000180000000     kernel32:KERNEL32.dll
 0000:fff82000       .debug$S                   0000000180000000     kernel32:KERNEL32.dll
 0000:fff82000       .debug$S                   0000000180000000     kernel32:KERNEL32.dll
 0000:fff82000       .debug$S                   0000000180000000     kernel32:KERNEL32.dll
 0000:fff82000       .debug$S                   0000000180000000     kernel32:KERNEL32.dll
 0000:fff82000       .debug$S                   0000000180000000     kernel32:KERNEL32.dll
 0000:fff82000       .debug$S                   0000000180000000     kernel32:KERNEL32.dll
 0000:fff82000       .debug$S                   0000000180000000     kernel32:KERNEL32.dll
 0000:fff82000       .debug$S                   0000000180000000     kernel32:KERNEL32.dll
 0000:fff82000       .debug$S                   0000000180000000     kernel32:KERNEL32.dll
 0000:fff82000       .debug$S                   0000000180000000     kernel32:KERNEL32.dll
 0000:fff82000       .debug$S                   0000000180000000     kernel32:KERNEL32.dll
 0000:fff82000       .debug$S                   0000000180000000     kernel32:KERNEL32.dll
 0000:fff82000       .debug$S                   0000000180000000     kernel32:KERNEL32.dll
 0000:fff82000       .debug$S                   0000000180000000     kernel32:KERNEL32.dll
 0000:fff82000       .debug$S                   0000000180000000     kernel32:KERNEL32.dll
 0000:fff82000       .debug$S                   0000000180000000     kernel32:KERNEL32.dll
 0000:fff82000       .debug$S                   0000000180000000     kernel32:KERNEL32.dll
 0000:fff82000       .debug$S                   0000000180000000     kernel32:KERNEL32.dll
 0000:fff82000       .debug$S                   0000000180000000     kernel32:KERNEL32.dll
 0000:fff82000       .debug$S                   0000000180000000     kernel32:KERNEL32.dll
 0000:fff82000       .debug$S                   0000000180000000     kernel32:KERNEL32.dll
 0000:fff82000       .debug$S                   0000000180000000     kernel32:KERNEL32.dll
 0000:fff82000       .debug$S                   0000000180000000     kernel32:KERNEL32.dll
 0000:fff82000       .debug$S                   0000000180000000     kernel32:KERNEL32.dll
 0000:fff82000       .debug$S                   0000000180000000     kernel32:KERNEL32.dll
 0000:fff82000       .debug$S                   0000000180000000     kernel32:KERNEL32.dll
 0000:fff82000       .debug$S                   0000000180000000     kernel32:KERNEL32.dll
 0000:fff82000       .debug$S                   0000000180000000     kernel32:KERNEL32.dll
 0000:fff82000       .debug$S                   0000000180000000     kernel32:KERNEL32.dll
 0000:fff82000       .debug$S                   0000000180000000     kernel32:KERNEL32.dll
 0000:fff82000       .debug$S                   0000000180000000     kernel32:KERNEL32.dll
 0000:fff82000       .debug$S                   0000000180000000     kernel32:KERNEL32.dll
 0000:fff82000       .debug$S                   0000000180000000     kernel32:KERNEL32.dll
 0000:fff82000       .debug$S                   0000000180000000     kernel32:KERNEL32.dll
 0000:fff82000       .debug$S                   0000000180000000     kernel32:KERNEL32.dll
 0000:fff82000       .debug$S                   0000000180000000     kernel32:KERNEL32.dll
 0000:fff82000       .debug$S                   0000000180000000     kernel32:KERNEL32.dll
 0000:fff82000       .debug$S                   0000000180000000     kernel32:KERNEL32.dll
 0000:fff82000       .debug$S                   0000000180000000     kernel32:KERNEL32.dll
 0000:fff82000       .debug$S                   0000000180000000     kernel32:KERNEL32.dll
 0000:fff82000       .debug$S                   0000000180000000     kernel32:KERNEL32.dll
 0000:fff82000       .debug$S                   0000000180000000     kernel32:KERNEL32.dll
 0000:fff82000       .debug$S                   0000000180000000     kernel32:KERNEL32.dll
 0000:fff82000       .debug$S                   0000000180000000     kernel32:KERNEL32.dll
 0000:fff82000       .debug$S                   0000000180000000     kernel32:KERNEL32.dll
 0001:00000000       ??__E?oracledbTemplate_s@Oracledb@@0V?$Persistent@VFunctionTemplate@v8@@V?$NonCopyablePersistentTraits@VFunctionTemplate@v8@@@2@@Nan@@A@@YAXXZ 0000000180001000 f   njsOracle.obj
 0001:00000010       ??__E?poolTemplate_s@Pool@@2V?$Persistent@VFunctionTemplate@v8@@V?$NonCopyablePersistentTraits@VFunctionTemplate@v8@@@2@@Nan@@A@@YAXXZ 0000000180001010 f   njsPool.obj
 0001:00000020       ??__E?connectionTemplate_s@Connection@@2V?$Persistent@VFunctionTemplate@v8@@V?$NonCopyablePersistentTraits@VFunctionTemplate@v8@@@2@@Nan@@A@@YAXXZ 0000000180001020 f   njsConnection.obj
 0001:00000030       ??__E?resultSetTemplate_s@ResultSet@@2V?$Persistent@VFunctionTemplate@v8@@V?$NonCopyablePersistentTraits@VFunctionTemplate@v8@@@2@@Nan@@A@@YAXXZ 0000000180001030 f   njsResultSet.obj
 0001:00000040       ??__E?iLobTemplate_s@ILob@@2V?$Persistent@VFunctionTemplate@v8@@V?$NonCopyablePersistentTraits@VFunctionTemplate@v8@@@2@@Nan@@A@@YAXXZ 0000000180001040 f   njsIntLob.obj
 0001:00000050       ??__E?s_propPingName_@ConnImpl@@0V?$basic_string@DU?$char_traits@D@std@@V?$allocator@D@2@@std@@A@@YAXXZ 0000000180001050 f   dpiConnImpl.obj
 0001:000000a8       ??__Einitlocks@std@@YAXXZ  00000001800010a8 f   libcpmt:xlock.obj
 0001:000000c8       ??__E_Fac_tidy_reg@std@@YAXXZ 00000001800010c8 f   libcpmt:locale0.obj
 0001:000000d4       ??__Eclassic_locale@std@@YAXXZ 00000001800010d4 f   libcpmt:locale0.obj
 0001:000000e0       ??__Einit_atexit@@YAXXZ    00000001800010e0 f   libcpmt:iosptrs.obj
 0001:000000ec       ??__Einitlocks@std@@YAXXZ  00000001800010ec f   libcpmt:iosptrs.obj
 0001:00000eb0       ?FunctionCallbackWrapper@imp@Nan@@YAXAEBV?$FunctionCallbackInfo@VValue@v8@@@v8@@@Z 0000000180001eb0 f   njsOracle.obj
 0001:00000f60       ?GetterCallbackWrapper@imp@Nan@@YAXV?$Local@VName@v8@@@v8@@AEBV?$PropertyCallbackInfo@VValue@v8@@@4@@Z 0000000180001f60 f   njsOracle.obj
 0001:00001010       ?SetterCallbackWrapper@imp@Nan@@YAXV?$Local@VName@v8@@@v8@@V?$Local@VValue@v8@@@4@AEBV?$PropertyCallbackInfo@X@4@@Z 0000000180002010 f   njsOracle.obj
 0001:00008bc0       init                       0000000180009bc0 f   njsOracle.obj
 0001:00008c00       _register_oracledb         0000000180009c00 f   njsOracle.obj
 0001:00009940       no_op_initialize           000000018000a940 f i libucrt:wsetlocale.obj
 0001:00015678       $LN452                     0000000180016678     njsConnection.obj
 0001:000161d4       $LN728                     00000001800171d4     njsConnection.obj
 0001:00018d38       $LN482                     0000000180019d38     njsConnection.obj
 0001:00018d5c       $LN481                     0000000180019d5c     njsConnection.obj
 0001:00018e94       $LN9                       0000000180019e94     njsConnection.obj
 0001:00018ea4       $LN8                       0000000180019ea4     njsConnection.obj
 0001:000191cc       $LN52                      000000018001a1cc     njsConnection.obj
 0001:000191dc       $LN51                      000000018001a1dc     njsConnection.obj
 0001:00019d40       $LN582                     000000018001ad40     njsConnection.obj
 0001:00019d5c       $LN581                     000000018001ad5c     njsConnection.obj
 0001:0001b19c       $LN430                     000000018001c19c     njsConnection.obj
 0001:0001b1ac       $LN429                     000000018001c1ac     njsConnection.obj
 0001:0001bbf4       $LN156                     000000018001cbf4     njsConnection.obj
 0001:0001bc10       $LN155                     000000018001cc10     njsConnection.obj
 0001:0001c214       $LN207                     000000018001d214     njsConnection.obj
 0001:0001c22c       $LN206                     000000018001d22c     njsConnection.obj
 0001:0001ef84       $LN349                     000000018001ff84     njsConnection.obj
 0001:0001efa8       $LN348                     000000018001ffa8     njsConnection.obj
 0001:0001f1e4       $LN23                      00000001800201e4     njsConnection.obj
 0001:0001f1fc       $LN22                      00000001800201fc     njsConnection.obj
 0001:0002acc0       ?ociCallCommon@@YAXHPEAXI@Z 000000018002bcc0 f   dpiUtils.obj
 0001:0002ae20       ?load_exe_hook@@YAP6A_JXZIPEAUDelayLoadInfo@@@Z 000000018002be20 f   win_delay_load_hook.obj
 0001:0002b880       tidy_global                000000018002c880 f   libcpmt:locale0.obj
 0001:0002bfc0       ?swfun@std@@YAXAEAVios_base@1@_J@Z 000000018002cfc0 f   libcpmt:iomanip.obj
 0001:0002c31c       ?initialize_pointers@@YAHXZ 000000018002d31c f   libcpmt:winapisupp.obj
 0001:0002ca20       $$000000                   000000018002da20     LIBCMT:_amdsecgs_.obj
 0001:0002ca54       ?__scrt_initialize_thread_safe_statics@@YAHXZ 000000018002da54 f   LIBCMT:thread_safe_statics.obj
 0001:0002cb74       ?__scrt_uninitialize_thread_safe_statics@@YAXXZ 000000018002db74 f   LIBCMT:thread_safe_statics.obj
 0001:0002d4b4       capture_current_context    000000018002e4b4 f   LIBCMT:gs_report.obj
 0001:0002d524       capture_previous_context   000000018002e524 f   LIBCMT:gs_report.obj
 0001:0002d598       ?dllmain_crt_dispatch@@YAHQEAUHINSTANCE__@@KQEAX@Z 000000018002e598 f   LIBCMT:dll_dllmain.obj
 0001:0002d5e8       ?dllmain_crt_process_attach@@YAHQEAUHINSTANCE__@@QEAX@Z 000000018002e5e8 f   LIBCMT:dll_dllmain.obj
 0001:0002d714       ?dllmain_crt_process_detach@@YAH_N@Z 000000018002e714 f   LIBCMT:dll_dllmain.obj
 0001:0002d798       ?dllmain_dispatch@@YAHQEAUHINSTANCE__@@KQEAX@Z 000000018002e798 f   LIBCMT:dll_dllmain.obj
 0001:0002d890       ?dllmain_raw@@YAHQEAUHINSTANCE__@@KQEAX@Z 000000018002e890 f   LIBCMT:dll_dllmain.obj
 0001:0002da30       $$000000                   000000018002ea30     LIBCMT:_chkstk_.obj
 0001:0002e030       $$000000                   000000018002f030     libvcruntime:memcpy.obj
 0001:0002e0d7       MoveSmall                  000000018002f0d7     libvcruntime:memcpy.obj
 0001:0002e5b0       ?CatchIt@@YAXPEAUEHExceptionRecord@@PEA_KPEAU_CONTEXT@@PEAU_xDISPATCHER_CONTEXT@@PEBU_s_FuncInfo@@PEBU_s_HandlerType@@PEBU_s_CatchableType@@PEBU_s_TryBlockMapEntry@@H1EE@Z 000000018002f5b0 f   libvcruntime:frame.obj
 0001:0002e674       ?ExFilterRethrow@@YAHPEAU_EXCEPTION_POINTERS@@PEAUEHExceptionRecord@@PEAH@Z 000000018002f674 f   libvcruntime:frame.obj
 0001:0002e6fc       ?FindHandler@@YAXPEAUEHExceptionRecord@@PEA_KPEAU_CONTEXT@@PEAU_xDISPATCHER_CONTEXT@@PEBU_s_FuncInfo@@EH1@Z 000000018002f6fc f   libvcruntime:frame.obj
 0001:0002ebcc       ?FindHandlerForForeignException@@YAXPEAUEHExceptionRecord@@PEA_KPEAU_CONTEXT@@PEAU_xDISPATCHER_CONTEXT@@PEBU_s_FuncInfo@@HH1@Z 000000018002fbcc f   libvcruntime:frame.obj
 0001:0002ee38       ?IsInExceptionSpec@@YAEPEAUEHExceptionRecord@@PEBU_s_ESTypeList@@@Z 000000018002fe38 f   libvcruntime:frame.obj
 0001:000301b0       $$000000                   00000001800311b0     libvcruntime:memset.obj
 0001:0003029c       MsetTab                    000000018003129c     libvcruntime:memset.obj
 0001:00030360       $$000000                   0000000180031360     libvcruntime:memcmp.obj
 0001:00030438       ?try_get_function@@YAPEAXW4function_id@?A0x679b24ab@@QEBDQEBW4module_id@2@2@Z 0000000180031438 f   libvcruntime:winapi_downlevel.obj
 0001:00030e20       $$000000                   0000000180031e20     libvcruntime:handlers.obj
 0001:00030e70       $$000000                   0000000180031e70     libvcruntime:_jmpuwind_.obj
 0001:00031348       ??$common_vsprintf@Vformat_validation_base@__crt_stdio_output@@D@@YAH_KQEAD0QEBDQEAU__crt_locale_pointers@@1@Z 0000000180032348 f   libucrt:output.obj
 0001:00031a30       ??R<lambda_dd75445284c072d0bd3768540cc698fa>@@QEBAHXZ 0000000180032a30 f   libucrt:output.obj
 0001:000349e0       ??$common_assert_to_message_box@_W@@YAXQEB_W0IQEAX@Z 00000001800359e0 f   libucrt:assert.obj
 0001:00034aa4       ??$common_assert_to_message_box_build_string@_W@@YAXQEA_W_KQEB_W2IQEAX@Z 0000000180035aa4 f   libucrt:assert.obj
 0001:00035278       ??$common_assert_to_stderr@_W@@YAXQEB_W0I@Z 0000000180036278 f   libucrt:assert.obj
 0001:000353e8       ?get_assert_format@@YAPEB_W_W@Z 00000001800363e8 f   libucrt:assert.obj
 0001:0003551c       ??$common_timespec_get@U_timespec64@@@@YAHQEAU_timespec64@@H@Z 000000018003651c f   libucrt:time.obj
 0001:00035804       call_wsetlocale            0000000180036804 f   libucrt:setlocale.obj
 0001:00036480       ?x_ismbbtype_l@@YAHPEAU__crt_locale_pointers@@IHH@Z 0000000180037480 f   libucrt:ismbbyte.obj
 0001:00036ae0       memcpy_s                   0000000180037ae0 f   libucrt:cfout.obj
 0001:00036ae0       memcpy_s                   0000000180037ae0 f   libucrt:strtod.obj
 0001:00036b70       $$000000                   0000000180037b70     libucrt:pow.obj
 0001:00038210       $$000000                   0000000180039210     libucrt:powf.obj
 0001:00039130       ?internal_isupper_l@@YA_NHQEAU__crt_locale_pointers@@@Z 000000018003a130 f   libucrt:tolower_toupper.obj
 0001:000398c0       ?atexit_exception_filter@@YAHK@Z 000000018003a8c0 f   libucrt:exit.obj
 0001:000398cc       ?common_exit@@YAXHW4_crt_exit_cleanup_mode@@W4_crt_exit_return_mode@@@Z 000000018003a8cc f   libucrt:exit.obj
 0001:00039a38       ?exit_or_terminate_process@@YAXI@Z 000000018003aa38 f   libucrt:exit.obj
 0001:00039a84       ?try_cor_exit_process@@YAXI@Z 000000018003aa84 f   libucrt:exit.obj
 0001:00039b1c       ??$parse_command_line@D@@YAXPEADPEAPEAD0PEA_K2@Z 000000018003ab1c f   libucrt:argv_parsing.obj
 0001:00039eb4       ??$common_initialize_environment_nolock@D@@YAHXZ 000000018003aeb4 f   libucrt:environment_initialization.obj
 0001:00039f20       ??$create_environment@D@@YAQEAPEADQEAD@Z 000000018003af20 f   libucrt:environment_initialization.obj
 0001:0003a01c       ??$free_environment@_W@@YAXQEAPEA_W@Z 000000018003b01c f   libucrt:environment_initialization.obj
 0001:0003a01c       ??$free_environment@D@@YAXQEAPEAD@Z 000000018003b01c f   libucrt:environment_initialization.obj
 0001:0003a060       ??$uninitialize_environment_internal@D@@YAXAEAPEAPEAD@Z 000000018003b060 f   libucrt:environment_initialization.obj
 0001:0003a07c       ??$uninitialize_environment_internal@_W@@YAXAEAPEAPEA_W@Z 000000018003b07c f   libucrt:environment_initialization.obj
 0001:0003a2b4       ??R<lambda_4e60a939b0d047cfe11ddc22648dfba9>@@QEBAHXZ 000000018003b2b4 f   libucrt:onexit.obj
 0001:0003a564       initialize_global_variables 000000018003b564 f   libucrt:initialization.obj
 0001:0003a578       initialize_c               000000018003b578 f   libucrt:initialization.obj
 0001:0003a59c       uninitialize_environment   000000018003b59c f   libucrt:initialization.obj
 0001:0003a5ac       initialize_pointers        000000018003b5ac f   libucrt:initialization.obj
 0001:0003a600       uninitialize_vcruntime     000000018003b600 f   libucrt:initialization.obj
 0001:0003a608       uninitialize_allocated_memory 000000018003b608 f   libucrt:initialization.obj
 0001:0003a698       uninitialize_c             000000018003b698 f   libucrt:initialization.obj
 0001:0003a698       uninitialize_global_state_isolation 000000018003b698 f   libucrt:initialization.obj
 0001:0003a698       initialize_global_state_isolation 000000018003b698 f   libucrt:initialization.obj
 0001:0003a698       initialize_environment     000000018003b698 f   libucrt:initialization.obj
 0001:0003a698       report_memory_leaks        000000018003b698 f   libucrt:initialization.obj
 0001:0003b6e0       ?construct_ptd_array@@YAXQEAU__acrt_ptd@@@Z 000000018003c6e0 f   libucrt:per_thread_data.obj
 0001:0003b7b0       ?destroy_fls@@YAXPEAX@Z    000000018003c7b0 f   libucrt:per_thread_data.obj
 0001:0003b7d0       ?destroy_ptd_array@@YAXQEAU__acrt_ptd@@@Z 000000018003c7d0 f   libucrt:per_thread_data.obj
 0001:0003b8c8       ?replace_current_thread_locale_nolock@@YAXQEAU__acrt_ptd@@QEAU__crt_locale_data@@@Z 000000018003c8c8 f   libucrt:per_thread_data.obj
 0001:0003bf20       ?fp_format_a@@YAHQEBNPEAD_KQEAD2H_NIQEAU__crt_locale_pointers@@@Z 000000018003cf20 f   libucrt:cvt.obj
 0001:0003c280       ?fp_format_e@@YAHQEBNQEAD_K12H_NIQEAU__crt_locale_pointers@@@Z 000000018003d280 f   libucrt:cvt.obj
 0001:0003c350       ?fp_format_e_internal@@YAHQEAD_KH_NIQEAU_strflt@@2QEAU__crt_locale_pointers@@@Z 000000018003d350 f   libucrt:cvt.obj
 0001:0003c52c       ?fp_format_f_internal@@YAHQEAD_KHQEAU_strflt@@_NQEAU__crt_locale_pointers@@@Z 000000018003d52c f   libucrt:cvt.obj
 0001:0003c674       ?fp_format_g@@YAHQEBNQEAD_K12H_NIQEAU__crt_locale_pointers@@@Z 000000018003d674 f   libucrt:cvt.obj
 0001:0003c7ac       ?fp_format_nan_or_infinity@@YAHW4__acrt_fp_class@@_NPEAD_K1@Z 000000018003d7ac f   libucrt:cvt.obj
 0001:0003d124       ??R<lambda_2af78c5f5901b1372d98f9ab3177dfa6>@@QEBAXXZ 000000018003e124 f   libucrt:wsetlocale.obj
 0001:0003d4e8       _copytlocinfo_nolock       000000018003e4e8 f   libucrt:wsetlocale.obj
 0001:0003daa8       _wsetlocale_get_all        000000018003eaa8 f   libucrt:wsetlocale.obj
 0001:0003dc90       _wsetlocale_nolock         000000018003ec90 f   libucrt:wsetlocale.obj
 0001:0003df18       _wsetlocale_set_cat        000000018003ef18 f   libucrt:wsetlocale.obj
 0001:0003e258       ?initialize_inherited_file_handles_nolock@@YAXXZ 000000018003f258 f   libucrt:ioinit.obj
 0001:0003e344       ?initialize_stdio_handles_nolock@@YAXXZ 000000018003f344 f   libucrt:ioinit.obj
 0001:0003ef54       ??$common_xtox@K_W@@YAHKQEA_W_KI_N@Z 000000018003ff54 f   libucrt:xtoa.obj
 0001:0003f000       ??$common_xtox_s@K_W@@YAHKQEA_W_KI_N@Z 0000000180040000 f   libucrt:xtoa.obj
 0001:0003f25c       ??$message_box_wait_thread@_W@@YAKQEAX@Z 000000018004025c f   libucrt:crtmbox.obj
 0001:0003f470       common_flush_all           0000000180040470 f   libucrt:fflush.obj
 0001:0003f5d8       ??R<lambda_b721fa326cdb32351d23dfa67958c160>@@QEBAHXZ 00000001800405d8 f   libucrt:setvbuf.obj
 0001:0003f768       ?<helper_func_cdecl>@<lambda_e2bb8337c48846e80c921ea5ddadc92d>@@CAHPEA_W@Z 0000000180040768 f   libucrt:winapi_thunks.obj
 0001:0003f844       ?try_get_function@@YAPEAXW4function_id@?A0x63058377@@QEBDQEBW4module_id@2@2@Z 0000000180040844 f   libucrt:winapi_thunks.obj
 0001:000403a0       ?_mbstowcs_l_helper@@YA_KPEA_WPEBD_KPEAU__crt_locale_pointers@@@Z 00000001800413a0 f   libucrt:mbstowcs.obj
 0001:000406cc       ?_wcstombs_l_helper@@YA_KPEADPEB_W_KPEAU__crt_locale_pointers@@@Z 00000001800416cc f   libucrt:wcstombs.obj
 0001:00040c2c       ?InternalGetLocaleInfoA@@YAHQEAU__crt_locale_pointers@@QEB_WKQEADH@Z 0000000180041c2c f   libucrt:getlocaleinfoa.obj
 0001:00041148       ?__acrt_LCMapStringA_stat@@YAHPEAU__crt_locale_pointers@@PEB_WKPEBDHPEADHHH@Z 0000000180042148 f   libucrt:lcmapstringa.obj
 0001:00041ab8       ?<helper_func_cdecl>@<lambda_2feae5270eb4d0d5532525f423405775>@@CAHPEBX0@Z 0000000180042ab8 f   libucrt:argv_wildcards.obj
 0001:00041acc       ??$common_expand_argv_wildcards@D@@YAHQEAPEADQEAPEAPEAD@Z 0000000180042acc f   libucrt:argv_wildcards.obj
 0001:00041cd8       ??$copy_and_add_argument_to_buffer@D@@YAHQEBD0_KAEAV?$argument_list@D@?A0xca0879c4@@@Z 0000000180042cd8 f   libucrt:argv_wildcards.obj
 0001:00041de8       ??$expand_argument_wildcards@D@@YAHQEAD0AEAV?$argument_list@D@?A0xca0879c4@@@Z 0000000180042de8 f   libucrt:argv_wildcards.obj
 0001:0004209c       ??R<lambda_ad1ced32f4ac17aa236e5ef05d6b3b7c>@@QEBAXXZ 000000018004309c f   libucrt:mbctype.obj
 0001:000422b4       ?getSystemCP@@YAHH@Z       00000001800432b4 f   libucrt:mbctype.obj
 0001:00042334       ?setSBCS@@YAXPEAU__crt_multibyte_data@@@Z 0000000180043334 f   libucrt:mbctype.obj
 0001:000423c4       ?setSBUpLow@@YAXPEAU__crt_multibyte_data@@@Z 00000001800433c4 f   libucrt:mbctype.obj
 0001:000425a8       ?setmbcp_internal@@YAHH_N@Z 00000001800435a8 f   libucrt:mbctype.obj
 0001:00044648       ??$write_buffer_nolock@D@@YA_NDV__crt_stdio_stream@@@Z 0000000180045648 f   libucrt:_flsbuf.obj
 0001:0004474c       ??$write_buffer_nolock@_W@@YA_N_WV__crt_stdio_stream@@@Z 000000018004574c f   libucrt:_flsbuf.obj
 0001:00045510       ?free_crt_array_internal@@YAXQEAPEBX_K@Z 0000000180046510 f   libucrt:inittime.obj
 0001:00045568       ?initialize_lc_time@@YA_NQEAU__crt_lc_time_data@@QEAU__crt_locale_data@@@Z 0000000180046568 f   libucrt:inittime.obj
 0001:00045bd8       GetLocaleNameFromDefault   0000000180046bd8 f   libucrt:get_qualified_locale.obj
 0001:00045c80       GetLocaleNameFromLangCountry 0000000180046c80 f   libucrt:get_qualified_locale.obj
 0001:00045d50       GetLocaleNameFromLanguage  0000000180046d50 f   libucrt:get_qualified_locale.obj
 0001:00045dec       LangCountryEnumProcEx      0000000180046dec f   libucrt:get_qualified_locale.obj
 0001:000461a0       LanguageEnumProcEx         00000001800471a0 f   libucrt:get_qualified_locale.obj
 0001:0004628c       ProcessCodePage            000000018004728c f   libucrt:get_qualified_locale.obj
 0001:00046340       TestDefaultCountry         0000000180047340 f   libucrt:get_qualified_locale.obj
 0001:000463a8       TranslateName              00000001800473a8 f   libucrt:get_qualified_locale.obj
 0001:00046664       CountryEnumProc            0000000180047664 f   libucrt:getqloc_downlevel.obj
 0001:00046750       GetLcidFromLangCountry     0000000180047750 f   libucrt:getqloc_downlevel.obj
 0001:00046820       GetLcidFromLanguage        0000000180047820 f   libucrt:getqloc_downlevel.obj
 0001:000468b8       LangCountryEnumProc        00000001800478b8 f   libucrt:getqloc_downlevel.obj
 0001:00046afc       LanguageEnumProc           0000000180047afc f   libucrt:getqloc_downlevel.obj
 0001:00046bf8       LcidFromHexString          0000000180047bf8 f   libucrt:getqloc_downlevel.obj
 0001:00046c48       ProcessCodePage            0000000180047c48 f   libucrt:getqloc_downlevel.obj
 0001:00046cf8       TestDefaultLanguage        0000000180047cf8 f   libucrt:getqloc_downlevel.obj
 0001:00046da4       TranslateName              0000000180047da4 f   libucrt:getqloc_downlevel.obj
 0001:000473e0       $$000000                   00000001800483e0     libucrt:fpsr.obj
 0001:00047560       ?write_double_translated_ansi_nolock@@YA?AUwrite_result@?A0x9c548279@@HQEBDI@Z 0000000180048560 f   libucrt:write.obj
 0001:00047768       ?write_text_ansi_nolock@@YA?AUwrite_result@?A0x9c548279@@HQEBDI@Z 0000000180048768 f   libucrt:write.obj
 0001:00047870       ?write_text_utf16le_nolock@@YA?AUwrite_result@?A0x9c548279@@HQEBDI@Z 0000000180048870 f   libucrt:write.obj
 0001:0004798c       ?write_text_utf8_nolock@@YA?AUwrite_result@?A0x9c548279@@HQEBDI@Z 000000018004898c f   libucrt:write.obj
 0001:00047ed0       ?GetTableIndexFromLocaleName@@YAHPEB_W@Z 0000000180048ed0 f   libucrt:lcidtoname_downlevel.obj
 0001:0004820c       _call_matherr              000000018004920c f   libucrt:libm_error.obj
 0001:00048274       _exception_enabled         0000000180049274 f   libucrt:libm_error.obj
 0001:00048680       ?shortsort@@YAXPEAD0_KP6AHPEBX2@Z@Z 0000000180049680 f   libucrt:qsort.obj
 0001:00048bc4       ?initialize_multibyte@@YAHXZ 0000000180049bc4 f   libucrt:multibyte_initializer.obj
 0001:00048da0       $$000000                   0000000180049da0     libucrt:log10.obj
 0001:0004934c       ??$common_lseek@_J@@YA_JH_JH@Z 000000018004a34c f   libucrt:lseek.obj
 0001:0004943c       ??$common_lseek_nolock@_J@@YA_JH_JH@Z 000000018004a43c f   libucrt:lseek.obj
 0001:0004992c       common_control87           000000018004a92c f   libucrt:ieee.obj
 0001:00049c70       _log_special_common        000000018004ac70 f   libucrt:log_special.obj
 0001:0004a8f0       $$000000                   000000018004b8f0     LIBCMT:_guard_dispatch_.obj
 0001:0004a910       ?dtor$0@?0??_Getcat@?$ctype@D@std@@SA_KPEAPEBVfacet@locale@2@PEBV42@@Z@4HA 000000018004b910 f   njsOracle.obj
 0001:0004a930       ?dtor$2@?0??_Getcat@?$ctype@D@std@@SA_KPEAPEBVfacet@locale@2@PEBV42@@Z@4HA 000000018004b930 f   njsOracle.obj
 0001:0004a93c       ?dtor$3@?0??_Getcat@?$ctype@D@std@@SA_KPEAPEBVfacet@locale@2@PEBV42@@Z@4HA 000000018004b93c f   njsOracle.obj
 0001:0004a94c       ?dtor$4@?0??_Getcat@?$ctype@D@std@@SA_KPEAPEBVfacet@locale@2@PEBV42@@Z@4HA 000000018004b94c f   njsOracle.obj
 0001:0004a95c       ?dtor$5@?0??_Getcat@?$ctype@D@std@@SA_KPEAPEBVfacet@locale@2@PEBV42@@Z@4HA 000000018004b95c f   njsOracle.obj
 0001:0004a96c       ?dtor$6@?0??_Getcat@?$ctype@D@std@@SA_KPEAPEBVfacet@locale@2@PEBV42@@Z@4HA 000000018004b96c f   njsOracle.obj
 0001:0004a97c       ?dtor$7@?0??_Getcat@?$ctype@D@std@@SA_KPEAPEBVfacet@locale@2@PEBV42@@Z@4HA 000000018004b97c f   njsOracle.obj
 0001:0004a98c       ?dtor$8@?0??_Getcat@?$ctype@D@std@@SA_KPEAPEBVfacet@locale@2@PEBV42@@Z@4HA 000000018004b98c f   njsOracle.obj
 0001:0004a99c       ?dtor$9@?0??_Getcat@?$ctype@D@std@@SA_KPEAPEBVfacet@locale@2@PEBV42@@Z@4HA 000000018004b99c f   njsOracle.obj
 0001:0004a9b0       ?dtor$0@?0??_Makestr@_System_error@std@@CA?AV?$basic_string@DU?$char_traits@D@std@@V?$allocator@D@2@@2@Verror_code@2@V32@@Z@4HA 000000018004b9b0 f   njsOracle.obj
 0001:0004a9bc       ?dtor$1@?0??_Makestr@_System_error@std@@CA?AV?$basic_string@DU?$char_traits@D@std@@V?$allocator@D@2@@2@Verror_code@2@V32@@Z@4HA 000000018004b9bc f   njsOracle.obj
 0001:0004a9d0       ?dtor$4@?0??clear@ios_base@std@@QEAAXH_N@Z@4HA 000000018004b9d0 f   njsOracle.obj
 0001:0004a9dc       ?dtor$0@?0??clear@ios_base@std@@QEAAXH_N@Z@4HA 000000018004b9dc f   njsOracle.obj
 0001:0004a9e8       ?dtor$14@?0??clear@ios_base@std@@QEAAXH_N@Z@4HA 000000018004b9e8 f   njsOracle.obj
 0001:0004a9f4       ?dtor$1@?0??clear@ios_base@std@@QEAAXH_N@Z@4HA 000000018004b9f4 f   njsOracle.obj
 0001:0004aa00       ?dtor$24@?0??clear@ios_base@std@@QEAAXH_N@Z@4HA 000000018004ba00 f   njsOracle.obj
 0001:0004aa0c       ?dtor$2@?0??clear@ios_base@std@@QEAAXH_N@Z@4HA 000000018004ba0c f   njsOracle.obj
 0001:0004aa20       ?dtor$0@?0??_Init@ios_base@std@@IEAAXXZ@4HA 000000018004ba20 f   njsOracle.obj
 0001:0004aa20       ?dtor$0@?0???0?$basic_streambuf@DU?$char_traits@D@std@@@std@@IEAA@XZ@4HA 000000018004ba20 f   njsOracle.obj
 0001:0004aa40       ?dtor$0@?0??NewInstance@Nan@@YA?AV?$MaybeLocal@VObject@v8@@@v8@@V?$Local@VFunction@v8@@@3@@Z@4HA 000000018004ba40 f   njsOracle.obj
 0001:0004aa40       ?dtor$0@?0??convert@?$ToFactory@VInteger@v8@@@imp@Nan@@SA?AV?$MaybeLocal@VInteger@v8@@@v8@@V?$Local@VValue@v8@@@5@@Z@4HA 000000018004ba40 f   njsOracle.obj
 0001:0004aa40       ?dtor$0@?0??GetFunction@Nan@@YA?AV?$MaybeLocal@VFunction@v8@@@v8@@V?$Local@VFunctionTemplate@v8@@@3@@Z@4HA 000000018004ba40 f   njsOracle.obj
 0001:0004aa40       ?dtor$0@?0??New@?$Factory@VDate@v8@@@imp@Nan@@SA?AV?$MaybeLocal@VDate@v8@@@v8@@N@Z@4HA 000000018004ba40 f   njsConnection.obj
 0001:0004aa40       ?dtor$0@?0??NewInstance@Nan@@YA?AV?$MaybeLocal@VObject@v8@@@v8@@V?$Local@VObjectTemplate@v8@@@3@@Z@4HA 000000018004ba40 f   njsOracle.obj
 0001:0004aa50       ?dtor$0@?0??ForceSet@Nan@@YA?AV?$Maybe@_N@v8@@V?$Local@VObject@v8@@@3@V?$Local@VValue@v8@@@3@1W4PropertyAttribute@3@@Z@4HA 000000018004ba50 f   njsConnection.obj
 0001:0004aa50       ?dtor$0@?0??Set@Nan@@YA?AV?$Maybe@_N@v8@@V?$Local@VObject@v8@@@3@IV?$Local@VValue@v8@@@3@@Z@4HA 000000018004ba50 f   njsConnection.obj
 0001:0004aa50       ?dtor$0@?0??Set@Nan@@YA?AV?$Maybe@_N@v8@@V?$Local@VObject@v8@@@3@V?$Local@VValue@v8@@@3@1@Z@4HA 000000018004ba50 f   njsOracle.obj
 0001:0004aa60       ?dtor$0@?0??convert@?$ToFactory@H@imp@Nan@@SA?AV?$Maybe@H@v8@@V?$Local@VValue@v8@@@5@@Z@4HA 000000018004ba60 f   njsOracle.obj
 0001:0004aa60       ?dtor$0@?0??convert@?$ToFactory@I@imp@Nan@@SA?AV?$Maybe@I@v8@@V?$Local@VValue@v8@@@5@@Z@4HA 000000018004ba60 f   njsOracle.obj
 0001:0004aa70       ?dtor$0@?0??New@?$Factory@VFunctionTemplate@v8@@@imp@Nan@@SA?AV?$Local@VFunctionTemplate@v8@@@v8@@P6AXAEBV?$FunctionCallbackInfo@VValue@v8@@@3@@ZV?$Local@VValue@v8@@@5@V?$Local@VSignature@v8@@@5@@Z@4HA 000000018004ba70 f   njsOracle.obj
 0001:0004aa80       ?dtor$0@?0??hasILobInstance@ILob@@SA_NV?$Local@VObject@v8@@@v8@@@Z@4HA 000000018004ba80 f   njsIntLob.obj
 0001:0004aa80       ?dtor$0@?0??RefCursor2V8Value@Connection@@CA?AV?$Local@VValue@v8@@@v8@@PEAUeBaton@@PEAUBind@@PEAUExtBind@@@Z@4HA 000000018004ba80 f   njsConnection.obj
 0001:0004aa80       ?dtor$0@?0??ThrowError@Nan@@YAXPEBD@Z@4HA 000000018004ba80 f   njsOracle.obj
 0001:0004aa90       ?dtor$0@?0??Bind2V8Value@Connection@@CA?AV?$Local@VValue@v8@@@v8@@PEAUeBaton@@PEAUBind@@I@Z@4HA 000000018004ba90 f   njsConnection.obj
 0001:0004aa90       ?dtor$0@?0??SetPrototypeMethod@Nan@@YAXV?$Local@VFunctionTemplate@v8@@@v8@@PEBDP6AXAEBV?$FunctionCallbackInfo@VValue@v8@@@1@@Z@Z@4HA 000000018004ba90 f   njsOracle.obj
 0001:0004aaa0       ?dtor$0@?0??SetAccessor@Nan@@YAXV?$Local@VObjectTemplate@v8@@@v8@@V?$Local@VString@v8@@@3@P6AX1AEBV?$PropertyCallbackInfo@VValue@v8@@@1@@ZP6AX1V?$Local@VValue@v8@@@3@AEBV?$PropertyCallbackInfo@X@1@@Z4W4AccessControl@3@W4PropertyAttribute@3@V?$Local@VAccessorSignature@v8@@@3@@Z@4HA 000000018004baa0 f   njsOracle.obj
 0001:0004aab0       ?dtor$0@?0???0connectionBaton@@QEAA@V?$Local@VFunction@v8@@@v8@@V?$Local@VObject@v8@@@2@@Z@4HA 000000018004bab0 f   njsOracle.obj
 0001:0004aac3       ?dtor$1@?0???0connectionBaton@@QEAA@V?$Local@VFunction@v8@@@v8@@V?$Local@VObject@v8@@@2@@Z@4HA 000000018004bac3 f   njsOracle.obj
 0001:0004aad6       ?dtor$2@?0???0connectionBaton@@QEAA@V?$Local@VFunction@v8@@@v8@@V?$Local@VObject@v8@@@2@@Z@4HA 000000018004bad6 f   njsOracle.obj
 0001:0004aae9       ?dtor$3@?0???0connectionBaton@@QEAA@V?$Local@VFunction@v8@@@v8@@V?$Local@VObject@v8@@@2@@Z@4HA 000000018004bae9 f   njsOracle.obj
 0001:0004aafc       ?dtor$4@?0???0connectionBaton@@QEAA@V?$Local@VFunction@v8@@@v8@@V?$Local@VObject@v8@@@2@@Z@4HA 000000018004bafc f   njsOracle.obj
 0001:0004ab0f       ?dtor$5@?0???0connectionBaton@@QEAA@V?$Local@VFunction@v8@@@v8@@V?$Local@VObject@v8@@@2@@Z@4HA 000000018004bb0f f   njsOracle.obj
 0001:0004ab22       ?dtor$6@?0???0connectionBaton@@QEAA@V?$Local@VFunction@v8@@@v8@@V?$Local@VObject@v8@@@2@@Z@4HA 000000018004bb22 f   njsOracle.obj
 0001:0004ab40       ?dtor$0@?0???0Oracledb@@AEAA@XZ@4HA 000000018004bb40 f   njsOracle.obj
 0001:0004ab4c       ?dtor$1@?0???0Oracledb@@AEAA@XZ@4HA 000000018004bb4c f   njsOracle.obj
 0001:0004ab5c       ?dtor$2@?0???0Oracledb@@AEAA@XZ@4HA 000000018004bb5c f   njsOracle.obj
 0001:0004ab6c       ?dtor$3@?0???0Oracledb@@AEAA@XZ@4HA 000000018004bb6c f   njsOracle.obj
 0001:0004ab78       ?dtor$4@?0???0Oracledb@@AEAA@XZ@4HA 000000018004bb78 f   njsOracle.obj
 0001:0004aba0       ?dtor$0@?0??driverName@Oracledb@@AEBA?BV?$basic_string@DU?$char_traits@D@std@@V?$allocator@D@2@@std@@XZ@4HA 000000018004bba0 f   njsOracle.obj
 0001:0004abb0       ?dtor$0@?0??NewLob@Connection@@CA?AV?$Local@VValue@v8@@@v8@@PEAUeBaton@@PEAVProtoILob@@_N@Z@4HA 000000018004bbb0 f   njsConnection.obj
 0001:0004abb0       ?dtor$0@?0??Init@Connection@@SAXV?$Local@VObject@v8@@@v8@@@Z@4HA 000000018004bbb0 f   njsConnection.obj
 0001:0004abb0       ?dtor$0@?0??Init@ResultSet@@SAXV?$Local@VObject@v8@@@v8@@@Z@4HA 000000018004bbb0 f   njsResultSet.obj
 0001:0004abb0       ?dtor$0@?0??Init@ILob@@SAXV?$Local@VObject@v8@@@v8@@@Z@4HA 000000018004bbb0 f   njsIntLob.obj
 0001:0004abb0       ?dtor$0@?0??Define2V8Value@Connection@@CA?AV?$Local@VValue@v8@@@v8@@PEAUeBaton@@IIPEAUDefine@@PEAUExtDefine@@@Z@4HA 000000018004bbb0 f   njsConnection.obj
 0001:0004abb0       ?dtor$0@?0??Init@Oracledb@@SAXV?$Local@VObject@v8@@@v8@@@Z@4HA 000000018004bbb0 f   njsOracle.obj
 0001:0004abb0       ?dtor$0@?0??Init@Pool@@SAXV?$Local@VObject@v8@@@v8@@@Z@4HA 000000018004bbb0 f   njsPool.obj
 0001:0004abc0       ?dtor$0@?0??New@Oracledb@@CAXAEBV?$FunctionCallbackInfo@VValue@v8@@@Nan@@@Z@4HA 000000018004bbc0 f   njsOracle.obj
 0001:0004abe0       ?dtor$0@?0??GetPoolTimeout@Pool@@CAXV?$Local@VString@v8@@@v8@@AEBV?$PropertyCallbackInfo@VValue@v8@@@Nan@@@Z@4HA 000000018004bbe0 f   njsPool.obj
 0001:0004abe0       ?dtor$0@?0??GetStmtCacheSize@Pool@@CAXV?$Local@VString@v8@@@v8@@AEBV?$PropertyCallbackInfo@VValue@v8@@@Nan@@@Z@4HA 000000018004bbe0 f   njsPool.obj
 0001:0004abe0       ?dtor$0@?0??GetPoolMin@Oracledb@@CAXV?$Local@VString@v8@@@v8@@AEBV?$PropertyCallbackInfo@VValue@v8@@@Nan@@@Z@4HA 000000018004bbe0 f   njsOracle.obj
 0001:0004abe0       ?dtor$0@?0??SetStmtCacheSize@Connection@@CAXV?$Local@VString@v8@@@v8@@V?$Local@VValue@v8@@@3@AEBV?$PropertyCallbackInfo@X@Nan@@@Z@4HA 000000018004bbe0 f   njsConnection.obj
 0001:0004abe0       ?dtor$0@?0??GetPoolPingInterval@Pool@@CAXV?$Local@VString@v8@@@v8@@AEBV?$PropertyCallbackInfo@VValue@v8@@@Nan@@@Z@4HA 000000018004bbe0 f   njsPool.obj
 0001:0004abe0       ?dtor$0@?0??SetChunkSize@ILob@@CAXV?$Local@VString@v8@@@v8@@V?$Local@VValue@v8@@@3@AEBV?$PropertyCallbackInfo@X@Nan@@@Z@4HA 000000018004bbe0 f   njsIntLob.obj
 0001:0004abe0       ?dtor$0@?0??GetPoolMin@Pool@@CAXV?$Local@VString@v8@@@v8@@AEBV?$PropertyCallbackInfo@VValue@v8@@@Nan@@@Z@4HA 000000018004bbe0 f   njsPool.obj
 0001:0004abe0       ?dtor$0@?0??GetPoolMax@Pool@@CAXV?$Local@VString@v8@@@v8@@AEBV?$PropertyCallbackInfo@VValue@v8@@@Nan@@@Z@4HA 000000018004bbe0 f   njsPool.obj
 0001:0004abe0       ?dtor$0@?0??SetExtendedMetaData@Oracledb@@CAXV?$Local@VString@v8@@@v8@@V?$Local@VValue@v8@@@3@AEBV?$PropertyCallbackInfo@X@Nan@@@Z@4HA 000000018004bbe0 f   njsOracle.obj
 0001:0004abe0       ?dtor$0@?0??SetAutoCommit@Oracledb@@CAXV?$Local@VString@v8@@@v8@@V?$Local@VValue@v8@@@3@AEBV?$PropertyCallbackInfo@X@Nan@@@Z@4HA 000000018004bbe0 f   njsOracle.obj
 0001:0004abe0       ?dtor$0@?0??SetType@ILob@@CAXV?$Local@VString@v8@@@v8@@V?$Local@VValue@v8@@@3@AEBV?$PropertyCallbackInfo@X@Nan@@@Z@4HA 000000018004bbe0 f   njsIntLob.obj
 0001:0004abe0       ?dtor$0@?0??GetOutFormat@Oracledb@@CAXV?$Local@VString@v8@@@v8@@AEBV?$PropertyCallbackInfo@VValue@v8@@@Nan@@@Z@4HA 000000018004bbe0 f   njsOracle.obj
 0001:0004abe0       ?dtor$0@?0??SetLength@ILob@@CAXV?$Local@VString@v8@@@v8@@V?$Local@VValue@v8@@@3@AEBV?$PropertyCallbackInfo@X@Nan@@@Z@4HA 000000018004bbe0 f   njsIntLob.obj
 0001:0004abe0       ?dtor$0@?0??GetPoolMax@Oracledb@@CAXV?$Local@VString@v8@@@v8@@AEBV?$PropertyCallbackInfo@VValue@v8@@@Nan@@@Z@4HA 000000018004bbe0 f   njsOracle.obj
 0001:0004abe0       ?dtor$0@?0??GetPoolIncrement@Pool@@CAXV?$Local@VString@v8@@@v8@@AEBV?$PropertyCallbackInfo@VValue@v8@@@Nan@@@Z@4HA 000000018004bbe0 f   njsPool.obj
 0001:0004abe0       ?dtor$0@?0??GetPrefetchRows@Oracledb@@CAXV?$Local@VString@v8@@@v8@@AEBV?$PropertyCallbackInfo@VValue@v8@@@Nan@@@Z@4HA 000000018004bbe0 f   njsOracle.obj
 0001:0004abe0       ?dtor$0@?0??SetIsValid@ILob@@CAXV?$Local@VString@v8@@@v8@@V?$Local@VValue@v8@@@3@AEBV?$PropertyCallbackInfo@X@Nan@@@Z@4HA 000000018004bbe0 f   njsIntLob.obj
 0001:0004abe0       ?dtor$0@?0??GetConnectionClass@Oracledb@@CAXV?$Local@VString@v8@@@v8@@AEBV?$PropertyCallbackInfo@VValue@v8@@@Nan@@@Z@4HA 000000018004bbe0 f   njsOracle.obj
 0001:0004abe0       ?dtor$0@?0??SetIsAutoCloseLob@ILob@@CAXV?$Local@VString@v8@@@v8@@V?$Local@VValue@v8@@@3@AEBV?$PropertyCallbackInfo@X@Nan@@@Z@4HA 000000018004bbe0 f   njsIntLob.obj
 0001:0004abe0       ?dtor$0@?0??GetPoolTimeout@Oracledb@@CAXV?$Local@VString@v8@@@v8@@AEBV?$PropertyCallbackInfo@VValue@v8@@@Nan@@@Z@4HA 000000018004bbe0 f   njsOracle.obj
 0001:0004abe0       ?dtor$0@?0??SetOracleServerVersion@Connection@@CAXV?$Local@VString@v8@@@v8@@V?$Local@VValue@v8@@@3@AEBV?$PropertyCallbackInfo@X@Nan@@@Z@4HA 000000018004bbe0 f   njsConnection.obj
 0001:0004abe0       ?dtor$0@?0??SetExternalAuth@Oracledb@@CAXV?$Local@VString@v8@@@v8@@V?$Local@VValue@v8@@@3@AEBV?$PropertyCallbackInfo@X@Nan@@@Z@4HA 000000018004bbe0 f   njsOracle.obj
 0001:0004abf0       ?dtor$0@?0??SetPrefetchRows@Oracledb@@CAXV?$Local@VString@v8@@@v8@@V?$Local@VValue@v8@@@3@AEBV?$PropertyCallbackInfo@X@Nan@@@Z@4HA 000000018004bbf0 f   njsOracle.obj
 0001:0004abf0       ?dtor$0@?0??SetPoolTimeout@Oracledb@@CAXV?$Local@VString@v8@@@v8@@V?$Local@VValue@v8@@@3@AEBV?$PropertyCallbackInfo@X@Nan@@@Z@4HA 000000018004bbf0 f   njsOracle.obj
 0001:0004abf0       ?dtor$0@?0??SetPoolPingInterval@Oracledb@@CAXV?$Local@VString@v8@@@v8@@V?$Local@VValue@v8@@@3@AEBV?$PropertyCallbackInfo@X@Nan@@@Z@4HA 000000018004bbf0 f   njsOracle.obj
 0001:0004abf0       ?dtor$0@?0??SetPoolMin@Oracledb@@CAXV?$Local@VString@v8@@@v8@@V?$Local@VValue@v8@@@3@AEBV?$PropertyCallbackInfo@X@Nan@@@Z@4HA 000000018004bbf0 f   njsOracle.obj
 0001:0004abf0       ?dtor$0@?0??SetPoolMax@Oracledb@@CAXV?$Local@VString@v8@@@v8@@V?$Local@VValue@v8@@@3@AEBV?$PropertyCallbackInfo@X@Nan@@@Z@4HA 000000018004bbf0 f   njsOracle.obj
 0001:0004abf0       ?dtor$0@?0??SetPoolIncrement@Oracledb@@CAXV?$Local@VString@v8@@@v8@@V?$Local@VValue@v8@@@3@AEBV?$PropertyCallbackInfo@X@Nan@@@Z@4HA 000000018004bbf0 f   njsOracle.obj
 0001:0004abf0       ?dtor$0@?0??SetOutFormat@Oracledb@@CAXV?$Local@VString@v8@@@v8@@V?$Local@VValue@v8@@@3@AEBV?$PropertyCallbackInfo@X@Nan@@@Z@4HA 000000018004bbf0 f   njsOracle.obj
 0001:0004abf0       ?dtor$0@?0??SetLobPrefetchSize@Oracledb@@CAXV?$Local@VString@v8@@@v8@@V?$Local@VValue@v8@@@3@AEBV?$PropertyCallbackInfo@X@Nan@@@Z@4HA 000000018004bbf0 f   njsOracle.obj
 0001:0004abf0       ?dtor$0@?0??SetStmtCacheSize@Oracledb@@CAXV?$Local@VString@v8@@@v8@@V?$Local@VValue@v8@@@3@AEBV?$PropertyCallbackInfo@X@Nan@@@Z@4HA 000000018004bbf0 f   njsOracle.obj
 0001:0004abfc       ?dtor$1@?0??SetPoolIncrement@Oracledb@@CAXV?$Local@VString@v8@@@v8@@V?$Local@VValue@v8@@@3@AEBV?$PropertyCallbackInfo@X@Nan@@@Z@4HA 000000018004bbfc f   njsOracle.obj
 0001:0004abfc       ?dtor$1@?0??SetOutFormat@Oracledb@@CAXV?$Local@VString@v8@@@v8@@V?$Local@VValue@v8@@@3@AEBV?$PropertyCallbackInfo@X@Nan@@@Z@4HA 000000018004bbfc f   njsOracle.obj
 0001:0004abfc       ?dtor$1@?0??SetStmtCacheSize@Oracledb@@CAXV?$Local@VString@v8@@@v8@@V?$Local@VValue@v8@@@3@AEBV?$PropertyCallbackInfo@X@Nan@@@Z@4HA 000000018004bbfc f   njsOracle.obj
 0001:0004abfc       ?dtor$1@?0??SetPoolMax@Oracledb@@CAXV?$Local@VString@v8@@@v8@@V?$Local@VValue@v8@@@3@AEBV?$PropertyCallbackInfo@X@Nan@@@Z@4HA 000000018004bbfc f   njsOracle.obj
 0001:0004abfc       ?dtor$1@?0??SetLobPrefetchSize@Oracledb@@CAXV?$Local@VString@v8@@@v8@@V?$Local@VValue@v8@@@3@AEBV?$PropertyCallbackInfo@X@Nan@@@Z@4HA 000000018004bbfc f   njsOracle.obj
 0001:0004abfc       ?dtor$1@?0??SetPoolMin@Oracledb@@CAXV?$Local@VString@v8@@@v8@@V?$Local@VValue@v8@@@3@AEBV?$PropertyCallbackInfo@X@Nan@@@Z@4HA 000000018004bbfc f   njsOracle.obj
 0001:0004abfc       ?dtor$1@?0??SetPoolPingInterval@Oracledb@@CAXV?$Local@VString@v8@@@v8@@V?$Local@VValue@v8@@@3@AEBV?$PropertyCallbackInfo@X@Nan@@@Z@4HA 000000018004bbfc f   njsOracle.obj
 0001:0004abfc       ?dtor$1@?0??SetPoolTimeout@Oracledb@@CAXV?$Local@VString@v8@@@v8@@V?$Local@VValue@v8@@@3@AEBV?$PropertyCallbackInfo@X@Nan@@@Z@4HA 000000018004bbfc f   njsOracle.obj
 0001:0004abfc       ?dtor$1@?0??SetPrefetchRows@Oracledb@@CAXV?$Local@VString@v8@@@v8@@V?$Local@VValue@v8@@@3@AEBV?$PropertyCallbackInfo@X@Nan@@@Z@4HA 000000018004bbfc f   njsOracle.obj
 0001:0004ac08       ?dtor$2@?0??SetLobPrefetchSize@Oracledb@@CAXV?$Local@VString@v8@@@v8@@V?$Local@VValue@v8@@@3@AEBV?$PropertyCallbackInfo@X@Nan@@@Z@4HA 000000018004bc08 f   njsOracle.obj
 0001:0004ac08       ?dtor$2@?0??SetStmtCacheSize@Oracledb@@CAXV?$Local@VString@v8@@@v8@@V?$Local@VValue@v8@@@3@AEBV?$PropertyCallbackInfo@X@Nan@@@Z@4HA 000000018004bc08 f   njsOracle.obj
 0001:0004ac08       ?dtor$2@?0??SetPrefetchRows@Oracledb@@CAXV?$Local@VString@v8@@@v8@@V?$Local@VValue@v8@@@3@AEBV?$PropertyCallbackInfo@X@Nan@@@Z@4HA 000000018004bc08 f   njsOracle.obj
 0001:0004ac08       ?dtor$2@?0??SetPoolTimeout@Oracledb@@CAXV?$Local@VString@v8@@@v8@@V?$Local@VValue@v8@@@3@AEBV?$PropertyCallbackInfo@X@Nan@@@Z@4HA 000000018004bc08 f   njsOracle.obj
 0001:0004ac08       ?dtor$2@?0??SetPoolPingInterval@Oracledb@@CAXV?$Local@VString@v8@@@v8@@V?$Local@VValue@v8@@@3@AEBV?$PropertyCallbackInfo@X@Nan@@@Z@4HA 000000018004bc08 f   njsOracle.obj
 0001:0004ac08       ?dtor$2@?0??SetPoolMin@Oracledb@@CAXV?$Local@VString@v8@@@v8@@V?$Local@VValue@v8@@@3@AEBV?$PropertyCallbackInfo@X@Nan@@@Z@4HA 000000018004bc08 f   njsOracle.obj
 0001:0004ac08       ?dtor$2@?0??SetPoolMax@Oracledb@@CAXV?$Local@VString@v8@@@v8@@V?$Local@VValue@v8@@@3@AEBV?$PropertyCallbackInfo@X@Nan@@@Z@4HA 000000018004bc08 f   njsOracle.obj
 0001:0004ac08       ?dtor$2@?0??SetPoolIncrement@Oracledb@@CAXV?$Local@VString@v8@@@v8@@V?$Local@VValue@v8@@@3@AEBV?$PropertyCallbackInfo@X@Nan@@@Z@4HA 000000018004bc08 f   njsOracle.obj
 0001:0004ac08       ?dtor$2@?0??SetOutFormat@Oracledb@@CAXV?$Local@VString@v8@@@v8@@V?$Local@VValue@v8@@@3@AEBV?$PropertyCallbackInfo@X@Nan@@@Z@4HA 000000018004bc08 f   njsOracle.obj
 0001:0004ac20       ?dtor$0@?0??GetPoolIncrement@Oracledb@@CAXV?$Local@VString@v8@@@v8@@AEBV?$PropertyCallbackInfo@VValue@v8@@@Nan@@@Z@4HA 000000018004bc20 f   njsOracle.obj
 0001:0004ac20       ?dtor$0@?0??GetLobPrefetchSize@Oracledb@@CAXV?$Local@VString@v8@@@v8@@AEBV?$PropertyCallbackInfo@VValue@v8@@@Nan@@@Z@4HA 000000018004bc20 f   njsOracle.obj
 0001:0004ac20       ?dtor$0@?0??GetPoolPingInterval@Oracledb@@CAXV?$Local@VString@v8@@@v8@@AEBV?$PropertyCallbackInfo@VValue@v8@@@Nan@@@Z@4HA 000000018004bc20 f   njsOracle.obj
 0001:0004ac20       ?dtor$0@?0??GetOracleClientVersion@Oracledb@@CAXV?$Local@VString@v8@@@v8@@AEBV?$PropertyCallbackInfo@VValue@v8@@@Nan@@@Z@4HA 000000018004bc20 f   njsOracle.obj
 0001:0004ac20       ?dtor$0@?0??GetStmtCacheSize@Oracledb@@CAXV?$Local@VString@v8@@@v8@@AEBV?$PropertyCallbackInfo@VValue@v8@@@Nan@@@Z@4HA 000000018004bc20 f   njsOracle.obj
 0001:0004ac20       ?dtor$0@?0??GetMaxRows@Oracledb@@CAXV?$Local@VString@v8@@@v8@@AEBV?$PropertyCallbackInfo@VValue@v8@@@Nan@@@Z@4HA 000000018004bc20 f   njsOracle.obj
 0001:0004ac30       ?dtor$0@?0??SetMaxRows@Oracledb@@CAXV?$Local@VString@v8@@@v8@@V?$Local@VValue@v8@@@3@AEBV?$PropertyCallbackInfo@X@Nan@@@Z@4HA 000000018004bc30 f   njsOracle.obj
 0001:0004ac3c       ?dtor$1@?0??SetMaxRows@Oracledb@@CAXV?$Local@VString@v8@@@v8@@V?$Local@VValue@v8@@@3@AEBV?$PropertyCallbackInfo@X@Nan@@@Z@4HA 000000018004bc3c f   njsOracle.obj
 0001:0004ac48       ?dtor$2@?0??SetMaxRows@Oracledb@@CAXV?$Local@VString@v8@@@v8@@V?$Local@VValue@v8@@@3@AEBV?$PropertyCallbackInfo@X@Nan@@@Z@4HA 000000018004bc48 f   njsOracle.obj
 0001:0004ac54       ?dtor$3@?0??SetMaxRows@Oracledb@@CAXV?$Local@VString@v8@@@v8@@V?$Local@VValue@v8@@@3@AEBV?$PropertyCallbackInfo@X@Nan@@@Z@4HA 000000018004bc54 f   njsOracle.obj
 0001:0004ac60       ?dtor$0@?0??GetExtendedMetaData@Oracledb@@CAXV?$Local@VString@v8@@@v8@@AEBV?$PropertyCallbackInfo@VValue@v8@@@Nan@@@Z@4HA 000000018004bc60 f   njsOracle.obj
 0001:0004ac60       ?dtor$0@?0??GetAutoCommit@Oracledb@@CAXV?$Local@VString@v8@@@v8@@AEBV?$PropertyCallbackInfo@VValue@v8@@@Nan@@@Z@4HA 000000018004bc60 f   njsOracle.obj
 0001:0004ac60       ?dtor$0@?0??GetIsValid@ILob@@CAXV?$Local@VString@v8@@@v8@@AEBV?$PropertyCallbackInfo@VValue@v8@@@Nan@@@Z@4HA 000000018004bc60 f   njsIntLob.obj
 0001:0004ac60       ?dtor$0@?0??GetIsAutoCloseLob@ILob@@CAXV?$Local@VString@v8@@@v8@@AEBV?$PropertyCallbackInfo@VValue@v8@@@Nan@@@Z@4HA 000000018004bc60 f   njsIntLob.obj
 0001:0004ac60       ?dtor$0@?0??GetExternalAuth@Oracledb@@CAXV?$Local@VString@v8@@@v8@@AEBV?$PropertyCallbackInfo@VValue@v8@@@Nan@@@Z@4HA 000000018004bc60 f   njsOracle.obj
 0001:0004ac70       ?dtor$0@?0??SetVersion@Oracledb@@CAXV?$Local@VString@v8@@@v8@@V?$Local@VValue@v8@@@3@AEBV?$PropertyCallbackInfo@X@Nan@@@Z@4HA 000000018004bc70 f   njsOracle.obj
 0001:0004ac70       ?dtor$0@?0??SetOracleClientVersion@Oracledb@@CAXV?$Local@VString@v8@@@v8@@V?$Local@VValue@v8@@@3@AEBV?$PropertyCallbackInfo@X@Nan@@@Z@4HA 000000018004bc70 f   njsOracle.obj
 0001:0004ac7c       ?dtor$1@?0??SetOracleClientVersion@Oracledb@@CAXV?$Local@VString@v8@@@v8@@V?$Local@VValue@v8@@@3@AEBV?$PropertyCallbackInfo@X@Nan@@@Z@4HA 000000018004bc7c f   njsOracle.obj
 0001:0004ac7c       ?dtor$1@?0??SetVersion@Oracledb@@CAXV?$Local@VString@v8@@@v8@@V?$Local@VValue@v8@@@3@AEBV?$PropertyCallbackInfo@X@Nan@@@Z@4HA 000000018004bc7c f   njsOracle.obj
 0001:0004ac90       ?dtor$0@?0??SetConnectionClass@Oracledb@@CAXV?$Local@VString@v8@@@v8@@V?$Local@VValue@v8@@@3@AEBV?$PropertyCallbackInfo@X@Nan@@@Z@4HA 000000018004bc90 f   njsOracle.obj
 0001:0004ac9c       ?dtor$1@?0??SetConnectionClass@Oracledb@@CAXV?$Local@VString@v8@@@v8@@V?$Local@VValue@v8@@@3@AEBV?$PropertyCallbackInfo@X@Nan@@@Z@4HA 000000018004bc9c f   njsOracle.obj
 0001:0004acaa       ?dtor$2@?0??SetConnectionClass@Oracledb@@CAXV?$Local@VString@v8@@@v8@@V?$Local@VValue@v8@@@3@AEBV?$PropertyCallbackInfo@X@Nan@@@Z@4HA 000000018004bcaa f   njsOracle.obj
 0001:0004acc0       ?dtor$0@?0??GetFetchAsString@Oracledb@@CAXV?$Local@VString@v8@@@v8@@AEBV?$PropertyCallbackInfo@VValue@v8@@@Nan@@@Z@4HA 000000018004bcc0 f   njsOracle.obj
 0001:0004acc0       ?dtor$0@?0??GetFetchAsBuffer@Oracledb@@CAXV?$Local@VString@v8@@@v8@@AEBV?$PropertyCallbackInfo@VValue@v8@@@Nan@@@Z@4HA 000000018004bcc0 f   njsOracle.obj
 0001:0004acc0       ?dtor$0@?0??DoFetch@Connection@@SAXPEAUeBaton@@@Z@4HA 000000018004bcc0 f   njsConnection.obj
 0001:0004acd0       ?dtor$0@?0??SetFetchAsBuffer@Oracledb@@CAXV?$Local@VString@v8@@@v8@@V?$Local@VValue@v8@@@3@AEBV?$PropertyCallbackInfo@X@Nan@@@Z@4HA 000000018004bcd0 f   njsOracle.obj
 0001:0004acd0       ?dtor$0@?0??SetFetchAsString@Oracledb@@CAXV?$Local@VString@v8@@@v8@@V?$Local@VValue@v8@@@3@AEBV?$PropertyCallbackInfo@X@Nan@@@Z@4HA 000000018004bcd0 f   njsOracle.obj
 0001:0004acdc       ?dtor$1@?0??SetFetchAsString@Oracledb@@CAXV?$Local@VString@v8@@@v8@@V?$Local@VValue@v8@@@3@AEBV?$PropertyCallbackInfo@X@Nan@@@Z@4HA 000000018004bcdc f   njsOracle.obj
 0001:0004acdc       ?dtor$1@?0??SetFetchAsBuffer@Oracledb@@CAXV?$Local@VString@v8@@@v8@@V?$Local@VValue@v8@@@3@AEBV?$PropertyCallbackInfo@X@Nan@@@Z@4HA 000000018004bcdc f   njsOracle.obj
 0001:0004ace8       ?dtor$2@?0??SetFetchAsBuffer@Oracledb@@CAXV?$Local@VString@v8@@@v8@@V?$Local@VValue@v8@@@3@AEBV?$PropertyCallbackInfo@X@Nan@@@Z@4HA 000000018004bce8 f   njsOracle.obj
 0001:0004ace8       ?dtor$2@?0??SetFetchAsString@Oracledb@@CAXV?$Local@VString@v8@@@v8@@V?$Local@VValue@v8@@@3@AEBV?$PropertyCallbackInfo@X@Nan@@@Z@4HA 000000018004bce8 f   njsOracle.obj
 0001:0004acf4       ?dtor$3@?0??SetFetchAsString@Oracledb@@CAXV?$Local@VString@v8@@@v8@@V?$Local@VValue@v8@@@3@AEBV?$PropertyCallbackInfo@X@Nan@@@Z@4HA 000000018004bcf4 f   njsOracle.obj
 0001:0004acf4       ?dtor$3@?0??SetFetchAsBuffer@Oracledb@@CAXV?$Local@VString@v8@@@v8@@V?$Local@VValue@v8@@@3@AEBV?$PropertyCallbackInfo@X@Nan@@@Z@4HA 000000018004bcf4 f   njsOracle.obj
 0001:0004ad00       ?dtor$4@?0??SetFetchAsBuffer@Oracledb@@CAXV?$Local@VString@v8@@@v8@@V?$Local@VValue@v8@@@3@AEBV?$PropertyCallbackInfo@X@Nan@@@Z@4HA 000000018004bd00 f   njsOracle.obj
 0001:0004ad00       ?dtor$4@?0??SetFetchAsString@Oracledb@@CAXV?$Local@VString@v8@@@v8@@V?$Local@VValue@v8@@@3@AEBV?$PropertyCallbackInfo@X@Nan@@@Z@4HA 000000018004bd00 f   njsOracle.obj
 0001:0004ad10       ?dtor$0@?0??GetConnection@Oracledb@@CAXAEBV?$FunctionCallbackInfo@VValue@v8@@@Nan@@@Z@4HA 000000018004bd10 f   njsOracle.obj
 0001:0004ad1c       ?dtor$1@?0??GetConnection@Oracledb@@CAXAEBV?$FunctionCallbackInfo@VValue@v8@@@Nan@@@Z@4HA 000000018004bd1c f   njsOracle.obj
 0001:0004ad28       ?dtor$2@?0??GetConnection@Oracledb@@CAXAEBV?$FunctionCallbackInfo@VValue@v8@@@Nan@@@Z@4HA 000000018004bd28 f   njsOracle.obj
 0001:0004ad45       ?dtor$3@?0??GetConnection@Oracledb@@CAXAEBV?$FunctionCallbackInfo@VValue@v8@@@Nan@@@Z@4HA 000000018004bd45 f   njsOracle.obj
 0001:0004ad51       ?dtor$4@?0??GetConnection@Oracledb@@CAXAEBV?$FunctionCallbackInfo@VValue@v8@@@Nan@@@Z@4HA 000000018004bd51 f   njsOracle.obj
 0001:0004ad5d       ?dtor$5@?0??GetConnection@Oracledb@@CAXAEBV?$FunctionCallbackInfo@VValue@v8@@@Nan@@@Z@4HA 000000018004bd5d f   njsOracle.obj
 0001:0004ad69       ?dtor$6@?0??GetConnection@Oracledb@@CAXAEBV?$FunctionCallbackInfo@VValue@v8@@@Nan@@@Z@4HA 000000018004bd69 f   njsOracle.obj
 0001:0004ad77       ?dtor$7@?0??GetConnection@Oracledb@@CAXAEBV?$FunctionCallbackInfo@VValue@v8@@@Nan@@@Z@4HA 000000018004bd77 f   njsOracle.obj
 0001:0004ad83       ?dtor$8@?0??GetConnection@Oracledb@@CAXAEBV?$FunctionCallbackInfo@VValue@v8@@@Nan@@@Z@4HA 000000018004bd83 f   njsOracle.obj
 0001:0004ad8f       ?dtor$9@?0??GetConnection@Oracledb@@CAXAEBV?$FunctionCallbackInfo@VValue@v8@@@Nan@@@Z@4HA 000000018004bd8f f   njsOracle.obj
 0001:0004ad9d       ?dtor$10@?0??GetConnection@Oracledb@@CAXAEBV?$FunctionCallbackInfo@VValue@v8@@@Nan@@@Z@4HA 000000018004bd9d f   njsOracle.obj
 0001:0004ada9       ?dtor$11@?0??GetConnection@Oracledb@@CAXAEBV?$FunctionCallbackInfo@VValue@v8@@@Nan@@@Z@4HA 000000018004bda9 f   njsOracle.obj
 0001:0004adb5       ?dtor$12@?0??GetConnection@Oracledb@@CAXAEBV?$FunctionCallbackInfo@VValue@v8@@@Nan@@@Z@4HA 000000018004bdb5 f   njsOracle.obj
 0001:0004adc3       ?dtor$13@?0??GetConnection@Oracledb@@CAXAEBV?$FunctionCallbackInfo@VValue@v8@@@Nan@@@Z@4HA 000000018004bdc3 f   njsOracle.obj
 0001:0004adcf       ?dtor$14@?0??GetConnection@Oracledb@@CAXAEBV?$FunctionCallbackInfo@VValue@v8@@@Nan@@@Z@4HA 000000018004bdcf f   njsOracle.obj
 0001:0004addb       ?dtor$15@?0??GetConnection@Oracledb@@CAXAEBV?$FunctionCallbackInfo@VValue@v8@@@Nan@@@Z@4HA 000000018004bddb f   njsOracle.obj
 0001:0004ade7       ?dtor$16@?0??GetConnection@Oracledb@@CAXAEBV?$FunctionCallbackInfo@VValue@v8@@@Nan@@@Z@4HA 000000018004bde7 f   njsOracle.obj
 0001:0004adf3       ?dtor$17@?0??GetConnection@Oracledb@@CAXAEBV?$FunctionCallbackInfo@VValue@v8@@@Nan@@@Z@4HA 000000018004bdf3 f   njsOracle.obj
 0001:0004ae00       ?catch$1@?0??Async_GetConnection@Oracledb@@CAXPEAUuv_work_s@@@Z@4HA 000000018004be00 f   njsOracle.obj
 0001:0004ae0d       __catch$?Async_GetConnection@Oracledb@@CAXPEAUuv_work_s@@@Z$1 000000018004be0d f   njsOracle.obj
 0001:0004aea4       ?dtor$0@?0??Async_GetConnection@Oracledb@@CAXPEAUuv_work_s@@@Z@4HA 000000018004bea4 f   njsOracle.obj
 0001:0004aeb0       ?dtor$0@?0??Async_AfterGetConnection@Pool@@CAXPEAUuv_work_s@@@Z@4HA 000000018004beb0 f   njsPool.obj
 0001:0004aeb0       ?dtor$0@?0??Async_AfterRead@ILob@@CAXPEAUuv_work_s@@@Z@4HA 000000018004beb0 f   njsIntLob.obj
 0001:0004aeb0       ?dtor$0@?0??Async_AfterGetConnection@Oracledb@@CAXPEAUuv_work_s@@@Z@4HA 000000018004beb0 f   njsOracle.obj
 0001:0004aeb0       ?dtor$0@?0??Async_AfterGetRows@ResultSet@@CAXPEAUuv_work_s@@@Z@4HA 000000018004beb0 f   njsResultSet.obj
 0001:0004aebc       ?dtor$1@?0??Async_AfterGetConnection@Pool@@CAXPEAUuv_work_s@@@Z@4HA 000000018004bebc f   njsPool.obj
 0001:0004aebc       ?dtor$1@?0??Async_AfterGetRows@ResultSet@@CAXPEAUuv_work_s@@@Z@4HA 000000018004bebc f   njsResultSet.obj
 0001:0004aebc       ?dtor$1@?0??Async_AfterRead@ILob@@CAXPEAUuv_work_s@@@Z@4HA 000000018004bebc f   njsIntLob.obj
 0001:0004aebc       ?dtor$1@?0??Async_AfterGetConnection@Oracledb@@CAXPEAUuv_work_s@@@Z@4HA 000000018004bebc f   njsOracle.obj
 0001:0004aed0       ?dtor$0@?0??CreatePool@Oracledb@@CAXAEBV?$FunctionCallbackInfo@VValue@v8@@@Nan@@@Z@4HA 000000018004bed0 f   njsOracle.obj
 0001:0004aedc       ?dtor$1@?0??CreatePool@Oracledb@@CAXAEBV?$FunctionCallbackInfo@VValue@v8@@@Nan@@@Z@4HA 000000018004bedc f   njsOracle.obj
 0001:0004aee8       ?dtor$2@?0??CreatePool@Oracledb@@CAXAEBV?$FunctionCallbackInfo@VValue@v8@@@Nan@@@Z@4HA 000000018004bee8 f   njsOracle.obj
 0001:0004aef4       ?dtor$3@?0??CreatePool@Oracledb@@CAXAEBV?$FunctionCallbackInfo@VValue@v8@@@Nan@@@Z@4HA 000000018004bef4 f   njsOracle.obj
 0001:0004af11       ?dtor$4@?0??CreatePool@Oracledb@@CAXAEBV?$FunctionCallbackInfo@VValue@v8@@@Nan@@@Z@4HA 000000018004bf11 f   njsOracle.obj
 0001:0004af1d       ?dtor$5@?0??CreatePool@Oracledb@@CAXAEBV?$FunctionCallbackInfo@VValue@v8@@@Nan@@@Z@4HA 000000018004bf1d f   njsOracle.obj
 0001:0004af29       ?dtor$6@?0??CreatePool@Oracledb@@CAXAEBV?$FunctionCallbackInfo@VValue@v8@@@Nan@@@Z@4HA 000000018004bf29 f   njsOracle.obj
 0001:0004af35       ?dtor$7@?0??CreatePool@Oracledb@@CAXAEBV?$FunctionCallbackInfo@VValue@v8@@@Nan@@@Z@4HA 000000018004bf35 f   njsOracle.obj
 0001:0004af43       ?dtor$8@?0??CreatePool@Oracledb@@CAXAEBV?$FunctionCallbackInfo@VValue@v8@@@Nan@@@Z@4HA 000000018004bf43 f   njsOracle.obj
 0001:0004af4f       ?dtor$9@?0??CreatePool@Oracledb@@CAXAEBV?$FunctionCallbackInfo@VValue@v8@@@Nan@@@Z@4HA 000000018004bf4f f   njsOracle.obj
 0001:0004af5b       ?dtor$10@?0??CreatePool@Oracledb@@CAXAEBV?$FunctionCallbackInfo@VValue@v8@@@Nan@@@Z@4HA 000000018004bf5b f   njsOracle.obj
 0001:0004af69       ?dtor$11@?0??CreatePool@Oracledb@@CAXAEBV?$FunctionCallbackInfo@VValue@v8@@@Nan@@@Z@4HA 000000018004bf69 f   njsOracle.obj
 0001:0004af75       ?dtor$12@?0??CreatePool@Oracledb@@CAXAEBV?$FunctionCallbackInfo@VValue@v8@@@Nan@@@Z@4HA 000000018004bf75 f   njsOracle.obj
 0001:0004af81       ?dtor$13@?0??CreatePool@Oracledb@@CAXAEBV?$FunctionCallbackInfo@VValue@v8@@@Nan@@@Z@4HA 000000018004bf81 f   njsOracle.obj
 0001:0004af8f       ?dtor$14@?0??CreatePool@Oracledb@@CAXAEBV?$FunctionCallbackInfo@VValue@v8@@@Nan@@@Z@4HA 000000018004bf8f f   njsOracle.obj
 0001:0004af9b       ?dtor$15@?0??CreatePool@Oracledb@@CAXAEBV?$FunctionCallbackInfo@VValue@v8@@@Nan@@@Z@4HA 000000018004bf9b f   njsOracle.obj
 0001:0004afa7       ?dtor$16@?0??CreatePool@Oracledb@@CAXAEBV?$FunctionCallbackInfo@VValue@v8@@@Nan@@@Z@4HA 000000018004bfa7 f   njsOracle.obj
 0001:0004afb3       ?dtor$17@?0??CreatePool@Oracledb@@CAXAEBV?$FunctionCallbackInfo@VValue@v8@@@Nan@@@Z@4HA 000000018004bfb3 f   njsOracle.obj
 0001:0004afbf       ?dtor$18@?0??CreatePool@Oracledb@@CAXAEBV?$FunctionCallbackInfo@VValue@v8@@@Nan@@@Z@4HA 000000018004bfbf f   njsOracle.obj
 0001:0004afcb       ?dtor$19@?0??CreatePool@Oracledb@@CAXAEBV?$FunctionCallbackInfo@VValue@v8@@@Nan@@@Z@4HA 000000018004bfcb f   njsOracle.obj
 0001:0004afd7       ?dtor$20@?0??CreatePool@Oracledb@@CAXAEBV?$FunctionCallbackInfo@VValue@v8@@@Nan@@@Z@4HA 000000018004bfd7 f   njsOracle.obj
 0001:0004afe3       ?dtor$21@?0??CreatePool@Oracledb@@CAXAEBV?$FunctionCallbackInfo@VValue@v8@@@Nan@@@Z@4HA 000000018004bfe3 f   njsOracle.obj
 0001:0004afef       ?dtor$22@?0??CreatePool@Oracledb@@CAXAEBV?$FunctionCallbackInfo@VValue@v8@@@Nan@@@Z@4HA 000000018004bfef f   njsOracle.obj
 0001:0004affb       ?dtor$23@?0??CreatePool@Oracledb@@CAXAEBV?$FunctionCallbackInfo@VValue@v8@@@Nan@@@Z@4HA 000000018004bffb f   njsOracle.obj
 0001:0004b007       ?dtor$24@?0??CreatePool@Oracledb@@CAXAEBV?$FunctionCallbackInfo@VValue@v8@@@Nan@@@Z@4HA 000000018004c007 f   njsOracle.obj
 0001:0004b013       ?dtor$25@?0??CreatePool@Oracledb@@CAXAEBV?$FunctionCallbackInfo@VValue@v8@@@Nan@@@Z@4HA 000000018004c013 f   njsOracle.obj
 0001:0004b01f       ?dtor$26@?0??CreatePool@Oracledb@@CAXAEBV?$FunctionCallbackInfo@VValue@v8@@@Nan@@@Z@4HA 000000018004c01f f   njsOracle.obj
 0001:0004b02b       ?dtor$27@?0??CreatePool@Oracledb@@CAXAEBV?$FunctionCallbackInfo@VValue@v8@@@Nan@@@Z@4HA 000000018004c02b f   njsOracle.obj
 0001:0004b037       ?dtor$28@?0??CreatePool@Oracledb@@CAXAEBV?$FunctionCallbackInfo@VValue@v8@@@Nan@@@Z@4HA 000000018004c037 f   njsOracle.obj
 0001:0004b050       ?catch$1@?0??Async_CreatePool@Oracledb@@CAXPEAUuv_work_s@@@Z@4HA 000000018004c050 f   njsOracle.obj
 0001:0004b05d       __catch$?Async_CreatePool@Oracledb@@CAXPEAUuv_work_s@@@Z$1 000000018004c05d f   njsOracle.obj
 0001:0004b0f4       ?dtor$0@?0??Async_CreatePool@Oracledb@@CAXPEAUuv_work_s@@@Z@4HA 000000018004c0f4 f   njsOracle.obj
 0001:0004b100       ?dtor$0@?0??Async_AfterCreatePool@Oracledb@@CAXPEAUuv_work_s@@@Z@4HA 000000018004c100 f   njsOracle.obj
 0001:0004b10c       ?dtor$1@?0??Async_AfterCreatePool@Oracledb@@CAXPEAUuv_work_s@@@Z@4HA 000000018004c10c f   njsOracle.obj
 0001:0004b120       ?dtor$0@?0???0?$basic_stringstream@DU?$char_traits@D@std@@V?$allocator@D@2@@std@@QEAA@H@Z@4HA 000000018004c120 f   njsOracle.obj
 0001:0004b14d       ?dtor$1@?0???0?$basic_stringstream@DU?$char_traits@D@std@@V?$allocator@D@2@@std@@QEAA@H@Z@4HA 000000018004c14d f   njsOracle.obj
 0001:0004b15d       ?dtor$3@?0???0?$basic_stringstream@DU?$char_traits@D@std@@V?$allocator@D@2@@std@@QEAA@H@Z@4HA 000000018004c15d f   njsOracle.obj
 0001:0004b170       ?dtor$2@?0???6?$basic_ostream@DU?$char_traits@D@std@@@std@@QEAAAEAV01@H@Z@4HA 000000018004c170 f   njsOracle.obj
 0001:0004b17c       ?dtor$0@?0???6?$basic_ostream@DU?$char_traits@D@std@@@std@@QEAAAEAV01@H@Z@4HA 000000018004c17c f   njsOracle.obj
 0001:0004b188       ?dtor$1@?0???6?$basic_ostream@DU?$char_traits@D@std@@@std@@QEAAAEAV01@H@Z@4HA 000000018004c188 f   njsOracle.obj
 0001:0004b1a0       ?dtor$0@?0???0sentry@?$basic_ostream@DU?$char_traits@D@std@@@std@@QEAA@AEAV12@@Z@4HA 000000018004c1a0 f   njsOracle.obj
 0001:0004b1b0       ?dtor$0@?0??do_put@?$num_put@DV?$ostreambuf_iterator@DU?$char_traits@D@std@@@std@@@std@@MEBA?AV?$ostreambuf_iterator@DU?$char_traits@D@std@@@2@V32@AEAVios_base@2@DO@Z@4HA 000000018004c1b0 f   njsOracle.obj
 0001:0004b1b0       ?dtor$0@?0??do_put@?$num_put@DV?$ostreambuf_iterator@DU?$char_traits@D@std@@@std@@@std@@MEBA?AV?$ostreambuf_iterator@DU?$char_traits@D@std@@@2@V32@AEAVios_base@2@DN@Z@4HA 000000018004c1b0 f   njsOracle.obj
 0001:0004b1c0       ?dtor$0@?0??do_put@?$num_put@DV?$ostreambuf_iterator@DU?$char_traits@D@std@@@std@@@std@@MEBA?AV?$ostreambuf_iterator@DU?$char_traits@D@std@@@2@V32@AEAVios_base@2@D_N@Z@4HA 000000018004c1c0 f   njsOracle.obj
 0001:0004b1cc       ?dtor$1@?0??do_put@?$num_put@DV?$ostreambuf_iterator@DU?$char_traits@D@std@@@std@@@std@@MEBA?AV?$ostreambuf_iterator@DU?$char_traits@D@std@@@2@V32@AEAVios_base@2@D_N@Z@4HA 000000018004c1cc f   njsOracle.obj
 0001:0004b1e0       ?dtor$1@?0???0?$basic_iostream@DU?$char_traits@D@std@@@std@@QEAA@PEAV?$basic_streambuf@DU?$char_traits@D@std@@@1@@Z@4HA 000000018004c1e0 f   njsOracle.obj
 0001:0004b1f0       ?dtor$0@?0??_Iput@?$num_put@DV?$ostreambuf_iterator@DU?$char_traits@D@std@@@std@@@std@@AEBA?AV?$ostreambuf_iterator@DU?$char_traits@D@std@@@2@V32@AEAVios_base@2@DPEAD_K@Z@4HA 000000018004c1f0 f   njsOracle.obj
 0001:0004b1fc       ?dtor$1@?0??_Iput@?$num_put@DV?$ostreambuf_iterator@DU?$char_traits@D@std@@@std@@@std@@AEBA?AV?$ostreambuf_iterator@DU?$char_traits@D@std@@@2@V32@AEAVios_base@2@DPEAD_K@Z@4HA 000000018004c1fc f   njsOracle.obj
 0001:0004b208       ?dtor$2@?0??_Iput@?$num_put@DV?$ostreambuf_iterator@DU?$char_traits@D@std@@@std@@@std@@AEBA?AV?$ostreambuf_iterator@DU?$char_traits@D@std@@@2@V32@AEAVios_base@2@DPEAD_K@Z@4HA 000000018004c208 f   njsOracle.obj
 0001:0004b214       ?dtor$3@?0??_Iput@?$num_put@DV?$ostreambuf_iterator@DU?$char_traits@D@std@@@std@@@std@@AEBA?AV?$ostreambuf_iterator@DU?$char_traits@D@std@@@2@V32@AEAVios_base@2@DPEAD_K@Z@4HA 000000018004c214 f   njsOracle.obj
 0001:0004b220       ?dtor$0@?0??_Fput@?$num_put@DV?$ostreambuf_iterator@DU?$char_traits@D@std@@@std@@@std@@AEBA?AV?$ostreambuf_iterator@DU?$char_traits@D@std@@@2@V32@AEAVios_base@2@DPEBD_K@Z@4HA 000000018004c220 f   njsOracle.obj
 0001:0004b22c       ?dtor$1@?0??_Fput@?$num_put@DV?$ostreambuf_iterator@DU?$char_traits@D@std@@@std@@@std@@AEBA?AV?$ostreambuf_iterator@DU?$char_traits@D@std@@@2@V32@AEAVios_base@2@DPEBD_K@Z@4HA 000000018004c22c f   njsOracle.obj
 0001:0004b238       ?dtor$2@?0??_Fput@?$num_put@DV?$ostreambuf_iterator@DU?$char_traits@D@std@@@std@@@std@@AEBA?AV?$ostreambuf_iterator@DU?$char_traits@D@std@@@2@V32@AEAVios_base@2@DPEBD_K@Z@4HA 000000018004c238 f   njsOracle.obj
 0001:0004b244       ?dtor$3@?0??_Fput@?$num_put@DV?$ostreambuf_iterator@DU?$char_traits@D@std@@@std@@@std@@AEBA?AV?$ostreambuf_iterator@DU?$char_traits@D@std@@@2@V32@AEAVios_base@2@DPEBD_K@Z@4HA 000000018004c244 f   njsOracle.obj
 0001:0004b250       ?dtor$0@?0??flush@?$basic_ostream@DU?$char_traits@D@std@@@std@@QEAAAEAV12@XZ@4HA 000000018004c250 f   njsOracle.obj
 0001:0004b260       ?dtor$0@?0??init@?$basic_ios@DU?$char_traits@D@std@@@std@@IEAAXPEAV?$basic_streambuf@DU?$char_traits@D@std@@@2@_N@Z@4HA 000000018004c260 f   njsOracle.obj
 0001:0004b270       ?dtor$0@?0???$use_facet@V?$ctype@D@std@@@std@@YAAEBV?$ctype@D@0@AEBVlocale@0@@Z@4HA 000000018004c270 f   njsOracle.obj
 0001:0004b270       ?dtor$0@?0???$use_facet@V?$numpunct@D@std@@@std@@YAAEBV?$numpunct@D@0@AEBVlocale@0@@Z@4HA 000000018004c270 f   njsOracle.obj
 0001:0004b270       ?dtor$0@?0???$use_facet@V?$num_put@DV?$ostreambuf_iterator@DU?$char_traits@D@std@@@std@@@std@@@std@@YAAEBV?$num_put@DV?$ostreambuf_iterator@DU?$char_traits@D@std@@@std@@@0@AEBVlocale@0@@Z@4HA 000000018004c270 f   njsOracle.obj
 0001:0004b280       ?dtor$0@?0???$New@VString@v8@@V?$basic_string@DU?$char_traits@D@std@@V?$allocator@D@2@@std@@@Nan@@YA?AV?$MaybeLocal@VString@v8@@@v8@@V?$basic_string@DU?$char_traits@D@std@@V?$allocator@D@2@@std@@@Z@4HA 000000018004c280 f   njsOracle.obj
 0001:0004b290       ?dtor$1@?0???$?6U?$char_traits@D@std@@@std@@YAAEAV?$basic_ostream@DU?$char_traits@D@std@@@0@AEAV10@PEBD@Z@4HA 000000018004c290 f   njsOracle.obj
 0001:0004b290       ?dtor$1@?0???$?6DU?$char_traits@D@std@@V?$allocator@D@1@@std@@YAAEAV?$basic_ostream@DU?$char_traits@D@std@@@0@AEAV10@AEBV?$basic_string@DU?$char_traits@D@std@@V?$allocator@D@2@@0@@Z@4HA 000000018004c290 f   dpiExceptionImpl.obj
 0001:0004b29c       ?dtor$0@?0???$?6DU?$char_traits@D@std@@V?$allocator@D@1@@std@@YAAEAV?$basic_ostream@DU?$char_traits@D@std@@@0@AEAV10@AEBV?$basic_string@DU?$char_traits@D@std@@V?$allocator@D@2@@0@@Z@4HA 000000018004c29c f   dpiExceptionImpl.obj
 0001:0004b29c       ?dtor$0@?0???$?6U?$char_traits@D@std@@@std@@YAAEAV?$basic_ostream@DU?$char_traits@D@std@@@0@AEAV10@PEBD@Z@4HA 000000018004c29c f   njsOracle.obj
 0001:0004b2b0       ?dtor$0@?0??_Getcat@?$numpunct@D@std@@SA_KPEAPEBVfacet@locale@2@PEBV42@@Z@4HA 000000018004c2b0 f   njsOracle.obj
 0001:0004b2d0       ?dtor$2@?0??_Getcat@?$numpunct@D@std@@SA_KPEAPEBVfacet@locale@2@PEBV42@@Z@4HA 000000018004c2d0 f   njsOracle.obj
 0001:0004b2dc       ?dtor$3@?0??_Getcat@?$numpunct@D@std@@SA_KPEAPEBVfacet@locale@2@PEBV42@@Z@4HA 000000018004c2dc f   njsOracle.obj
 0001:0004b2ec       ?dtor$4@?0??_Getcat@?$numpunct@D@std@@SA_KPEAPEBVfacet@locale@2@PEBV42@@Z@4HA 000000018004c2ec f   njsOracle.obj
 0001:0004b2fc       ?dtor$5@?0??_Getcat@?$numpunct@D@std@@SA_KPEAPEBVfacet@locale@2@PEBV42@@Z@4HA 000000018004c2fc f   njsOracle.obj
 0001:0004b30c       ?dtor$6@?0??_Getcat@?$numpunct@D@std@@SA_KPEAPEBVfacet@locale@2@PEBV42@@Z@4HA 000000018004c30c f   njsOracle.obj
 0001:0004b31c       ?dtor$7@?0??_Getcat@?$numpunct@D@std@@SA_KPEAPEBVfacet@locale@2@PEBV42@@Z@4HA 000000018004c31c f   njsOracle.obj
 0001:0004b32c       ?dtor$8@?0??_Getcat@?$numpunct@D@std@@SA_KPEAPEBVfacet@locale@2@PEBV42@@Z@4HA 000000018004c32c f   njsOracle.obj
 0001:0004b33c       ?dtor$9@?0??_Getcat@?$numpunct@D@std@@SA_KPEAPEBVfacet@locale@2@PEBV42@@Z@4HA 000000018004c33c f   njsOracle.obj
 0001:0004b348       ?dtor$1@?0??_Getcat@?$numpunct@D@std@@SA_KPEAPEBVfacet@locale@2@PEBV42@@Z@4HA 000000018004c348 f   njsOracle.obj
 0001:0004b374       ?dtor$11@?0??_Getcat@?$numpunct@D@std@@SA_KPEAPEBVfacet@locale@2@PEBV42@@Z@4HA 000000018004c374 f   njsOracle.obj
 0001:0004b380       ?dtor$0@?0??_Getcat@?$num_put@DV?$ostreambuf_iterator@DU?$char_traits@D@std@@@std@@@std@@SA_KPEAPEBVfacet@locale@2@PEBV42@@Z@4HA 000000018004c380 f   njsOracle.obj
 0001:0004b3a0       ?dtor$2@?0??_Getcat@?$num_put@DV?$ostreambuf_iterator@DU?$char_traits@D@std@@@std@@@std@@SA_KPEAPEBVfacet@locale@2@PEBV42@@Z@4HA 000000018004c3a0 f   njsOracle.obj
 0001:0004b3ac       ?dtor$3@?0??_Getcat@?$num_put@DV?$ostreambuf_iterator@DU?$char_traits@D@std@@@std@@@std@@SA_KPEAPEBVfacet@locale@2@PEBV42@@Z@4HA 000000018004c3ac f   njsOracle.obj
 0001:0004b3bc       ?dtor$4@?0??_Getcat@?$num_put@DV?$ostreambuf_iterator@DU?$char_traits@D@std@@@std@@@std@@SA_KPEAPEBVfacet@locale@2@PEBV42@@Z@4HA 000000018004c3bc f   njsOracle.obj
 0001:0004b3cc       ?dtor$5@?0??_Getcat@?$num_put@DV?$ostreambuf_iterator@DU?$char_traits@D@std@@@std@@@std@@SA_KPEAPEBVfacet@locale@2@PEBV42@@Z@4HA 000000018004c3cc f   njsOracle.obj
 0001:0004b3dc       ?dtor$6@?0??_Getcat@?$num_put@DV?$ostreambuf_iterator@DU?$char_traits@D@std@@@std@@@std@@SA_KPEAPEBVfacet@locale@2@PEBV42@@Z@4HA 000000018004c3dc f   njsOracle.obj
 0001:0004b3ec       ?dtor$7@?0??_Getcat@?$num_put@DV?$ostreambuf_iterator@DU?$char_traits@D@std@@@std@@@std@@SA_KPEAPEBVfacet@locale@2@PEBV42@@Z@4HA 000000018004c3ec f   njsOracle.obj
 0001:0004b3fc       ?dtor$8@?0??_Getcat@?$num_put@DV?$ostreambuf_iterator@DU?$char_traits@D@std@@@std@@@std@@SA_KPEAPEBVfacet@locale@2@PEBV42@@Z@4HA 000000018004c3fc f   njsOracle.obj
 0001:0004b40c       ?dtor$9@?0??_Getcat@?$num_put@DV?$ostreambuf_iterator@DU?$char_traits@D@std@@@std@@@std@@SA_KPEAPEBVfacet@locale@2@PEBV42@@Z@4HA 000000018004c40c f   njsOracle.obj
 0001:0004b420       ?dtor$0@?0???0poolBaton@@QEAA@V?$Local@VFunction@v8@@@v8@@V?$Local@VObject@v8@@@2@@Z@4HA 000000018004c420 f   njsPool.obj
 0001:0004b433       ?dtor$1@?0???0poolBaton@@QEAA@V?$Local@VFunction@v8@@@v8@@V?$Local@VObject@v8@@@2@@Z@4HA 000000018004c433 f   njsPool.obj
 0001:0004b446       ?dtor$2@?0???0poolBaton@@QEAA@V?$Local@VFunction@v8@@@v8@@V?$Local@VObject@v8@@@2@@Z@4HA 000000018004c446 f   njsPool.obj
 0001:0004b459       ?dtor$3@?0???0poolBaton@@QEAA@V?$Local@VFunction@v8@@@v8@@V?$Local@VObject@v8@@@2@@Z@4HA 000000018004c459 f   njsPool.obj
 0001:0004b470       ?dtor$0@?0??getPoolProperty@Pool@@CA?AV?$Local@VPrimitive@v8@@@v8@@PEAV1@I@Z@4HA 000000018004c470 f   njsPool.obj
 0001:0004b470       ?dtor$0@?0??getPoolProperty@Pool@@CA?AV?$Local@VPrimitive@v8@@@v8@@PEAV1@H@Z@4HA 000000018004c470 f   njsPool.obj
 0001:0004b47c       ?dtor$1@?0??getPoolProperty@Pool@@CA?AV?$Local@VPrimitive@v8@@@v8@@PEAV1@H@Z@4HA 000000018004c47c f   njsPool.obj
 0001:0004b47c       ?dtor$1@?0??getPoolProperty@Pool@@CA?AV?$Local@VPrimitive@v8@@@v8@@PEAV1@I@Z@4HA 000000018004c47c f   njsPool.obj
 0001:0004b490       ?dtor$0@?0??GetConnectionsOpen@Pool@@CAXV?$Local@VString@v8@@@v8@@AEBV?$PropertyCallbackInfo@VValue@v8@@@Nan@@@Z@4HA 000000018004c490 f   njsPool.obj
 0001:0004b49c       ?dtor$1@?0??GetConnectionsOpen@Pool@@CAXV?$Local@VString@v8@@@v8@@AEBV?$PropertyCallbackInfo@VValue@v8@@@Nan@@@Z@4HA 000000018004c49c f   njsPool.obj
 0001:0004b4a8       ?catch$2@?0??GetConnectionsOpen@Pool@@CAXV?$Local@VString@v8@@@v8@@AEBV?$PropertyCallbackInfo@VValue@v8@@@Nan@@@Z@4HA 000000018004c4a8 f   njsPool.obj
 0001:0004b4b5       __catch$?GetConnectionsOpen@Pool@@CAXV?$Local@VString@v8@@@v8@@AEBV?$PropertyCallbackInfo@VValue@v8@@@Nan@@@Z$0 000000018004c4b5 f   njsPool.obj
 0001:0004b500       ?dtor$0@?0??GetConnectionsInUse@Pool@@CAXV?$Local@VString@v8@@@v8@@AEBV?$PropertyCallbackInfo@VValue@v8@@@Nan@@@Z@4HA 000000018004c500 f   njsPool.obj
 0001:0004b50c       ?dtor$1@?0??GetConnectionsInUse@Pool@@CAXV?$Local@VString@v8@@@v8@@AEBV?$PropertyCallbackInfo@VValue@v8@@@Nan@@@Z@4HA 000000018004c50c f   njsPool.obj
 0001:0004b518       ?catch$2@?0??GetConnectionsInUse@Pool@@CAXV?$Local@VString@v8@@@v8@@AEBV?$PropertyCallbackInfo@VValue@v8@@@Nan@@@Z@4HA 000000018004c518 f   njsPool.obj
 0001:0004b525       __catch$?GetConnectionsInUse@Pool@@CAXV?$Local@VString@v8@@@v8@@AEBV?$PropertyCallbackInfo@VValue@v8@@@Nan@@@Z$0 000000018004c525 f   njsPool.obj
 0001:0004b570       ?dtor$0@?0??setPoolProperty@Pool@@CAXPEAV1@V?$basic_string@DU?$char_traits@D@std@@V?$allocator@D@2@@std@@@Z@4HA 000000018004c570 f   njsPool.obj
 0001:0004b57c       ?dtor$1@?0??setPoolProperty@Pool@@CAXPEAV1@V?$basic_string@DU?$char_traits@D@std@@V?$allocator@D@2@@std@@@Z@4HA 000000018004c57c f   njsPool.obj
 0001:0004b588       ?dtor$2@?0??setPoolProperty@Pool@@CAXPEAV1@V?$basic_string@DU?$char_traits@D@std@@V?$allocator@D@2@@std@@@Z@4HA 000000018004c588 f   njsPool.obj
 0001:0004b594       ?dtor$3@?0??setPoolProperty@Pool@@CAXPEAV1@V?$basic_string@DU?$char_traits@D@std@@V?$allocator@D@2@@std@@@Z@4HA 000000018004c594 f   njsPool.obj
 0001:0004b5a0       ?dtor$4@?0??setPoolProperty@Pool@@CAXPEAV1@V?$basic_string@DU?$char_traits@D@std@@V?$allocator@D@2@@std@@@Z@4HA 000000018004c5a0 f   njsPool.obj
 0001:0004b5ac       ?dtor$5@?0??setPoolProperty@Pool@@CAXPEAV1@V?$basic_string@DU?$char_traits@D@std@@V?$allocator@D@2@@std@@@Z@4HA 000000018004c5ac f   njsPool.obj
 0001:0004b5c0       ?dtor$0@?0??SetPoolPingInterval@Pool@@CAXV?$Local@VString@v8@@@v8@@V?$Local@VValue@v8@@@3@AEBV?$PropertyCallbackInfo@X@Nan@@@Z@4HA 000000018004c5c0 f   njsPool.obj
 0001:0004b5c0       ?dtor$0@?0??SetConnectionsOpen@Pool@@CAXV?$Local@VString@v8@@@v8@@V?$Local@VValue@v8@@@3@AEBV?$PropertyCallbackInfo@X@Nan@@@Z@4HA 000000018004c5c0 f   njsPool.obj
 0001:0004b5c0       ?dtor$0@?0??SetConnectionsInUse@Pool@@CAXV?$Local@VString@v8@@@v8@@V?$Local@VValue@v8@@@3@AEBV?$PropertyCallbackInfo@X@Nan@@@Z@4HA 000000018004c5c0 f   njsPool.obj
 0001:0004b5c0       ?dtor$0@?0??SetPoolIncrement@Pool@@CAXV?$Local@VString@v8@@@v8@@V?$Local@VValue@v8@@@3@AEBV?$PropertyCallbackInfo@X@Nan@@@Z@4HA 000000018004c5c0 f   njsPool.obj
 0001:0004b5c0       ?dtor$0@?0??SetStmtCacheSize@Pool@@CAXV?$Local@VString@v8@@@v8@@V?$Local@VValue@v8@@@3@AEBV?$PropertyCallbackInfo@X@Nan@@@Z@4HA 000000018004c5c0 f   njsPool.obj
 0001:0004b5c0       ?dtor$0@?0??SetPoolMin@Pool@@CAXV?$Local@VString@v8@@@v8@@V?$Local@VValue@v8@@@3@AEBV?$PropertyCallbackInfo@X@Nan@@@Z@4HA 000000018004c5c0 f   njsPool.obj
 0001:0004b5c0       ?dtor$0@?0??SetPoolTimeout@Pool@@CAXV?$Local@VString@v8@@@v8@@V?$Local@VValue@v8@@@3@AEBV?$PropertyCallbackInfo@X@Nan@@@Z@4HA 000000018004c5c0 f   njsPool.obj
 0001:0004b5c0       ?dtor$0@?0??SetPoolMax@Pool@@CAXV?$Local@VString@v8@@@v8@@V?$Local@VValue@v8@@@3@AEBV?$PropertyCallbackInfo@X@Nan@@@Z@4HA 000000018004c5c0 f   njsPool.obj
 0001:0004b5d0       ?dtor$0@?0??GetConnection@Pool@@CAXAEBV?$FunctionCallbackInfo@VValue@v8@@@Nan@@@Z@4HA 000000018004c5d0 f   njsPool.obj
 0001:0004b5d0       ?dtor$0@?0??Terminate@Pool@@CAXAEBV?$FunctionCallbackInfo@VValue@v8@@@Nan@@@Z@4HA 000000018004c5d0 f   njsPool.obj
 0001:0004b5dc       ?dtor$1@?0??GetConnection@Pool@@CAXAEBV?$FunctionCallbackInfo@VValue@v8@@@Nan@@@Z@4HA 000000018004c5dc f   njsPool.obj
 0001:0004b5dc       ?dtor$1@?0??Terminate@Pool@@CAXAEBV?$FunctionCallbackInfo@VValue@v8@@@Nan@@@Z@4HA 000000018004c5dc f   njsPool.obj
 0001:0004b5e8       ?dtor$2@?0??GetConnection@Pool@@CAXAEBV?$FunctionCallbackInfo@VValue@v8@@@Nan@@@Z@4HA 000000018004c5e8 f   njsPool.obj
 0001:0004b5e8       ?dtor$2@?0??Terminate@Pool@@CAXAEBV?$FunctionCallbackInfo@VValue@v8@@@Nan@@@Z@4HA 000000018004c5e8 f   njsPool.obj
 0001:0004b605       ?dtor$3@?0??GetConnection@Pool@@CAXAEBV?$FunctionCallbackInfo@VValue@v8@@@Nan@@@Z@4HA 000000018004c605 f   njsPool.obj
 0001:0004b605       ?dtor$3@?0??Terminate@Pool@@CAXAEBV?$FunctionCallbackInfo@VValue@v8@@@Nan@@@Z@4HA 000000018004c605 f   njsPool.obj
 0001:0004b611       ?dtor$4@?0??Terminate@Pool@@CAXAEBV?$FunctionCallbackInfo@VValue@v8@@@Nan@@@Z@4HA 000000018004c611 f   njsPool.obj
 0001:0004b611       ?dtor$4@?0??GetConnection@Pool@@CAXAEBV?$FunctionCallbackInfo@VValue@v8@@@Nan@@@Z@4HA 000000018004c611 f   njsPool.obj
 0001:0004b61d       ?dtor$5@?0??GetConnection@Pool@@CAXAEBV?$FunctionCallbackInfo@VValue@v8@@@Nan@@@Z@4HA 000000018004c61d f   njsPool.obj
 0001:0004b61d       ?dtor$5@?0??Terminate@Pool@@CAXAEBV?$FunctionCallbackInfo@VValue@v8@@@Nan@@@Z@4HA 000000018004c61d f   njsPool.obj
 0001:0004b629       ?dtor$6@?0??GetConnection@Pool@@CAXAEBV?$FunctionCallbackInfo@VValue@v8@@@Nan@@@Z@4HA 000000018004c629 f   njsPool.obj
 0001:0004b629       ?dtor$6@?0??Terminate@Pool@@CAXAEBV?$FunctionCallbackInfo@VValue@v8@@@Nan@@@Z@4HA 000000018004c629 f   njsPool.obj
 0001:0004b640       ?dtor$0@?0??Async_GetConnection@Pool@@CAXPEAUuv_work_s@@@Z@4HA 000000018004c640 f   njsPool.obj
 0001:0004b64c       ?dtor$1@?0??Async_GetConnection@Pool@@CAXPEAUuv_work_s@@@Z@4HA 000000018004c64c f   njsPool.obj
 0001:0004b658       ?dtor$2@?0??Async_GetConnection@Pool@@CAXPEAUuv_work_s@@@Z@4HA 000000018004c658 f   njsPool.obj
 0001:0004b664       ?catch$4@?0??Async_GetConnection@Pool@@CAXPEAUuv_work_s@@@Z@4HA 000000018004c664 f   njsPool.obj
 0001:0004b671       __catch$?Async_GetConnection@Pool@@CAXPEAUuv_work_s@@@Z$1 000000018004c671 f   njsPool.obj
 0001:0004b704       ?dtor$3@?0??Async_GetConnection@Pool@@CAXPEAUuv_work_s@@@Z@4HA 000000018004c704 f   njsPool.obj
 0001:0004b710       ?catch$1@?0??Async_Terminate@Pool@@CAXPEAUuv_work_s@@@Z@4HA 000000018004c710 f   njsPool.obj
 0001:0004b71d       __catch$?Async_Terminate@Pool@@CAXPEAUuv_work_s@@@Z$1 000000018004c71d f   njsPool.obj
 0001:0004b7b4       ?dtor$0@?0??Async_Terminate@Pool@@CAXPEAUuv_work_s@@@Z@4HA 000000018004c7b4 f   njsPool.obj
 0001:0004b7c0       ?dtor$0@?0??Async_AfterTerminate@Pool@@CAXPEAUuv_work_s@@@Z@4HA 000000018004c7c0 f   njsPool.obj
 0001:0004b7c0       ?dtor$0@?0??Async_AfterBreak@Connection@@CAXPEAUuv_work_s@@@Z@4HA 000000018004c7c0 f   njsConnection.obj
 0001:0004b7c0       ?dtor$0@?0??Async_AfterClose@ILob@@CAXPEAUuv_work_s@@@Z@4HA 000000018004c7c0 f   njsIntLob.obj
 0001:0004b7c0       ?dtor$0@?0??Async_AfterRollback@Connection@@CAXPEAUuv_work_s@@@Z@4HA 000000018004c7c0 f   njsConnection.obj
 0001:0004b7c0       ?dtor$0@?0??Async_AfterCommit@Connection@@CAXPEAUuv_work_s@@@Z@4HA 000000018004c7c0 f   njsConnection.obj
 0001:0004b7c0       ?dtor$0@?0??Async_AfterClose@ResultSet@@CAXPEAUuv_work_s@@@Z@4HA 000000018004c7c0 f   njsResultSet.obj
 0001:0004b7c0       ?dtor$0@?0??Async_AfterWrite@ILob@@CAXPEAUuv_work_s@@@Z@4HA 000000018004c7c0 f   njsIntLob.obj
 0001:0004b7cc       ?dtor$1@?0??Async_AfterClose@ILob@@CAXPEAUuv_work_s@@@Z@4HA 000000018004c7cc f   njsIntLob.obj
 0001:0004b7cc       ?dtor$1@?0??Async_AfterBreak@Connection@@CAXPEAUuv_work_s@@@Z@4HA 000000018004c7cc f   njsConnection.obj
 0001:0004b7cc       ?dtor$1@?0??Async_AfterCommit@Connection@@CAXPEAUuv_work_s@@@Z@4HA 000000018004c7cc f   njsConnection.obj
 0001:0004b7cc       ?dtor$1@?0??Async_AfterClose@ResultSet@@CAXPEAUuv_work_s@@@Z@4HA 000000018004c7cc f   njsResultSet.obj
 0001:0004b7cc       ?dtor$1@?0??Async_AfterWrite@ILob@@CAXPEAUuv_work_s@@@Z@4HA 000000018004c7cc f   njsIntLob.obj
 0001:0004b7cc       ?dtor$1@?0??Async_AfterRollback@Connection@@CAXPEAUuv_work_s@@@Z@4HA 000000018004c7cc f   njsConnection.obj
 0001:0004b7cc       ?dtor$1@?0??Async_AfterTerminate@Pool@@CAXPEAUuv_work_s@@@Z@4HA 000000018004c7cc f   njsPool.obj
 0001:0004b7e0       ?dtor$0@?0???0eBaton@@QEAA@AEAIV?$Local@VFunction@v8@@@v8@@V?$Local@VObject@v8@@@2@@Z@4HA 000000018004c7e0 f   njsConnection.obj
 0001:0004b7f3       ?dtor$1@?0???0eBaton@@QEAA@AEAIV?$Local@VFunction@v8@@@v8@@V?$Local@VObject@v8@@@2@@Z@4HA 000000018004c7f3 f   njsConnection.obj
 0001:0004b806       ?dtor$2@?0???0eBaton@@QEAA@AEAIV?$Local@VFunction@v8@@@v8@@V?$Local@VObject@v8@@@2@@Z@4HA 000000018004c806 f   njsConnection.obj
 0001:0004b819       ?dtor$3@?0???0eBaton@@QEAA@AEAIV?$Local@VFunction@v8@@@v8@@V?$Local@VObject@v8@@@2@@Z@4HA 000000018004c819 f   njsConnection.obj
 0001:0004b82c       ?dtor$4@?0???0eBaton@@QEAA@AEAIV?$Local@VFunction@v8@@@v8@@V?$Local@VObject@v8@@@2@@Z@4HA 000000018004c82c f   njsConnection.obj
 0001:0004b83f       ?dtor$5@?0???0eBaton@@QEAA@AEAIV?$Local@VFunction@v8@@@v8@@V?$Local@VObject@v8@@@2@@Z@4HA 000000018004c83f f   njsConnection.obj
 0001:0004b852       ?dtor$6@?0???0eBaton@@QEAA@AEAIV?$Local@VFunction@v8@@@v8@@V?$Local@VObject@v8@@@2@@Z@4HA 000000018004c852 f   njsConnection.obj
 0001:0004b865       ?dtor$7@?0???0eBaton@@QEAA@AEAIV?$Local@VFunction@v8@@@v8@@V?$Local@VObject@v8@@@2@@Z@4HA 000000018004c865 f   njsConnection.obj
 0001:0004b878       ?dtor$8@?0???0eBaton@@QEAA@AEAIV?$Local@VFunction@v8@@@v8@@V?$Local@VObject@v8@@@2@@Z@4HA 000000018004c878 f   njsConnection.obj
 0001:0004b890       ?dtor$0@?0??lobPropertyException@ILob@@CAXPEAV1@W4NJSErrorType@@V?$basic_string@DU?$char_traits@D@std@@V?$allocator@D@2@@std@@@Z@4HA 000000018004c890 f   njsIntLob.obj
 0001:0004b890       ?dtor$0@?0??connectionPropertyException@Connection@@CAXPEAV1@W4NJSErrorType@@V?$basic_string@DU?$char_traits@D@std@@V?$allocator@D@2@@std@@@Z@4HA 000000018004c890 f   njsConnection.obj
 0001:0004b89c       ?dtor$1@?0??lobPropertyException@ILob@@CAXPEAV1@W4NJSErrorType@@V?$basic_string@DU?$char_traits@D@std@@V?$allocator@D@2@@std@@@Z@4HA 000000018004c89c f   njsIntLob.obj
 0001:0004b89c       ?dtor$1@?0??connectionPropertyException@Connection@@CAXPEAV1@W4NJSErrorType@@V?$basic_string@DU?$char_traits@D@std@@V?$allocator@D@2@@std@@@Z@4HA 000000018004c89c f   njsConnection.obj
 0001:0004b8a8       ?dtor$2@?0??lobPropertyException@ILob@@CAXPEAV1@W4NJSErrorType@@V?$basic_string@DU?$char_traits@D@std@@V?$allocator@D@2@@std@@@Z@4HA 000000018004c8a8 f   njsIntLob.obj
 0001:0004b8a8       ?dtor$2@?0??connectionPropertyException@Connection@@CAXPEAV1@W4NJSErrorType@@V?$basic_string@DU?$char_traits@D@std@@V?$allocator@D@2@@std@@@Z@4HA 000000018004c8a8 f   njsConnection.obj
 0001:0004b8b4       ?dtor$3@?0??lobPropertyException@ILob@@CAXPEAV1@W4NJSErrorType@@V?$basic_string@DU?$char_traits@D@std@@V?$allocator@D@2@@std@@@Z@4HA 000000018004c8b4 f   njsIntLob.obj
 0001:0004b8b4       ?dtor$3@?0??connectionPropertyException@Connection@@CAXPEAV1@W4NJSErrorType@@V?$basic_string@DU?$char_traits@D@std@@V?$allocator@D@2@@std@@@Z@4HA 000000018004c8b4 f   njsConnection.obj
 0001:0004b8c0       ?dtor$4@?0??lobPropertyException@ILob@@CAXPEAV1@W4NJSErrorType@@V?$basic_string@DU?$char_traits@D@std@@V?$allocator@D@2@@std@@@Z@4HA 000000018004c8c0 f   njsIntLob.obj
 0001:0004b8c0       ?dtor$4@?0??connectionPropertyException@Connection@@CAXPEAV1@W4NJSErrorType@@V?$basic_string@DU?$char_traits@D@std@@V?$allocator@D@2@@std@@@Z@4HA 000000018004c8c0 f   njsConnection.obj
 0001:0004b8d0       ?dtor$0@?0??GetStmtCacheSize@Connection@@CAXV?$Local@VString@v8@@@v8@@AEBV?$PropertyCallbackInfo@VValue@v8@@@Nan@@@Z@4HA 000000018004c8d0 f   njsConnection.obj
 0001:0004b8dc       ?dtor$1@?0??GetStmtCacheSize@Connection@@CAXV?$Local@VString@v8@@@v8@@AEBV?$PropertyCallbackInfo@VValue@v8@@@Nan@@@Z@4HA 000000018004c8dc f   njsConnection.obj
 0001:0004b8e8       ?catch$2@?0??GetStmtCacheSize@Connection@@CAXV?$Local@VString@v8@@@v8@@AEBV?$PropertyCallbackInfo@VValue@v8@@@Nan@@@Z@4HA 000000018004c8e8 f   njsConnection.obj
 0001:0004b8f7       __catch$?GetStmtCacheSize@Connection@@CAXV?$Local@VString@v8@@@v8@@AEBV?$PropertyCallbackInfo@VValue@v8@@@Nan@@@Z$0 000000018004c8f7 f   njsConnection.obj
 0001:0004b980       ?dtor$0@?0??SetClientId@Connection@@CAXV?$Local@VString@v8@@@v8@@V?$Local@VValue@v8@@@3@AEBV?$PropertyCallbackInfo@X@Nan@@@Z@4HA 000000018004c980 f   njsConnection.obj
 0001:0004b98c       ?dtor$1@?0??SetClientId@Connection@@CAXV?$Local@VString@v8@@@v8@@V?$Local@VValue@v8@@@3@AEBV?$PropertyCallbackInfo@X@Nan@@@Z@4HA 000000018004c98c f   njsConnection.obj
 0001:0004b998       ?dtor$2@?0??SetClientId@Connection@@CAXV?$Local@VString@v8@@@v8@@V?$Local@VValue@v8@@@3@AEBV?$PropertyCallbackInfo@X@Nan@@@Z@4HA 000000018004c998 f   njsConnection.obj
 0001:0004b9a4       ?dtor$3@?0??SetClientId@Connection@@CAXV?$Local@VString@v8@@@v8@@V?$Local@VValue@v8@@@3@AEBV?$PropertyCallbackInfo@X@Nan@@@Z@4HA 000000018004c9a4 f   njsConnection.obj
 0001:0004b9b0       ?dtor$4@?0??SetClientId@Connection@@CAXV?$Local@VString@v8@@@v8@@V?$Local@VValue@v8@@@3@AEBV?$PropertyCallbackInfo@X@Nan@@@Z@4HA 000000018004c9b0 f   njsConnection.obj
 0001:0004b9be       ?dtor$5@?0??SetClientId@Connection@@CAXV?$Local@VString@v8@@@v8@@V?$Local@VValue@v8@@@3@AEBV?$PropertyCallbackInfo@X@Nan@@@Z@4HA 000000018004c9be f   njsConnection.obj
 0001:0004b9ca       ?dtor$6@?0??SetClientId@Connection@@CAXV?$Local@VString@v8@@@v8@@V?$Local@VValue@v8@@@3@AEBV?$PropertyCallbackInfo@X@Nan@@@Z@4HA 000000018004c9ca f   njsConnection.obj
 0001:0004b9d6       ?catch$7@?0??SetClientId@Connection@@CAXV?$Local@VString@v8@@@v8@@V?$Local@VValue@v8@@@3@AEBV?$PropertyCallbackInfo@X@Nan@@@Z@4HA 000000018004c9d6 f   njsConnection.obj
 0001:0004b9e5       __catch$?SetClientId@Connection@@CAXV?$Local@VString@v8@@@v8@@V?$Local@VValue@v8@@@3@AEBV?$PropertyCallbackInfo@X@Nan@@@Z$0 000000018004c9e5 f   njsConnection.obj
 0001:0004ba70       ?dtor$0@?0??SetModule@Connection@@CAXV?$Local@VString@v8@@@v8@@V?$Local@VValue@v8@@@3@AEBV?$PropertyCallbackInfo@X@Nan@@@Z@4HA 000000018004ca70 f   njsConnection.obj
 0001:0004ba7c       ?dtor$1@?0??SetModule@Connection@@CAXV?$Local@VString@v8@@@v8@@V?$Local@VValue@v8@@@3@AEBV?$PropertyCallbackInfo@X@Nan@@@Z@4HA 000000018004ca7c f   njsConnection.obj
 0001:0004ba88       ?dtor$2@?0??SetModule@Connection@@CAXV?$Local@VString@v8@@@v8@@V?$Local@VValue@v8@@@3@AEBV?$PropertyCallbackInfo@X@Nan@@@Z@4HA 000000018004ca88 f   njsConnection.obj
 0001:0004ba94       ?dtor$3@?0??SetModule@Connection@@CAXV?$Local@VString@v8@@@v8@@V?$Local@VValue@v8@@@3@AEBV?$PropertyCallbackInfo@X@Nan@@@Z@4HA 000000018004ca94 f   njsConnection.obj
 0001:0004baa0       ?dtor$4@?0??SetModule@Connection@@CAXV?$Local@VString@v8@@@v8@@V?$Local@VValue@v8@@@3@AEBV?$PropertyCallbackInfo@X@Nan@@@Z@4HA 000000018004caa0 f   njsConnection.obj
 0001:0004baae       ?dtor$5@?0??SetModule@Connection@@CAXV?$Local@VString@v8@@@v8@@V?$Local@VValue@v8@@@3@AEBV?$PropertyCallbackInfo@X@Nan@@@Z@4HA 000000018004caae f   njsConnection.obj
 0001:0004baba       ?dtor$6@?0??SetModule@Connection@@CAXV?$Local@VString@v8@@@v8@@V?$Local@VValue@v8@@@3@AEBV?$PropertyCallbackInfo@X@Nan@@@Z@4HA 000000018004caba f   njsConnection.obj
 0001:0004bac6       ?catch$7@?0??SetModule@Connection@@CAXV?$Local@VString@v8@@@v8@@V?$Local@VValue@v8@@@3@AEBV?$PropertyCallbackInfo@X@Nan@@@Z@4HA 000000018004cac6 f   njsConnection.obj
 0001:0004bad5       __catch$?SetModule@Connection@@CAXV?$Local@VString@v8@@@v8@@V?$Local@VValue@v8@@@3@AEBV?$PropertyCallbackInfo@X@Nan@@@Z$0 000000018004cad5 f   njsConnection.obj
 0001:0004bb60       ?dtor$0@?0??SetAction@Connection@@CAXV?$Local@VString@v8@@@v8@@V?$Local@VValue@v8@@@3@AEBV?$PropertyCallbackInfo@X@Nan@@@Z@4HA 000000018004cb60 f   njsConnection.obj
 0001:0004bb6c       ?dtor$1@?0??SetAction@Connection@@CAXV?$Local@VString@v8@@@v8@@V?$Local@VValue@v8@@@3@AEBV?$PropertyCallbackInfo@X@Nan@@@Z@4HA 000000018004cb6c f   njsConnection.obj
 0001:0004bb78       ?dtor$2@?0??SetAction@Connection@@CAXV?$Local@VString@v8@@@v8@@V?$Local@VValue@v8@@@3@AEBV?$PropertyCallbackInfo@X@Nan@@@Z@4HA 000000018004cb78 f   njsConnection.obj
 0001:0004bb84       ?dtor$3@?0??SetAction@Connection@@CAXV?$Local@VString@v8@@@v8@@V?$Local@VValue@v8@@@3@AEBV?$PropertyCallbackInfo@X@Nan@@@Z@4HA 000000018004cb84 f   njsConnection.obj
 0001:0004bb90       ?dtor$4@?0??SetAction@Connection@@CAXV?$Local@VString@v8@@@v8@@V?$Local@VValue@v8@@@3@AEBV?$PropertyCallbackInfo@X@Nan@@@Z@4HA 000000018004cb90 f   njsConnection.obj
 0001:0004bb9e       ?dtor$5@?0??SetAction@Connection@@CAXV?$Local@VString@v8@@@v8@@V?$Local@VValue@v8@@@3@AEBV?$PropertyCallbackInfo@X@Nan@@@Z@4HA 000000018004cb9e f   njsConnection.obj
 0001:0004bbaa       ?dtor$6@?0??SetAction@Connection@@CAXV?$Local@VString@v8@@@v8@@V?$Local@VValue@v8@@@3@AEBV?$PropertyCallbackInfo@X@Nan@@@Z@4HA 000000018004cbaa f   njsConnection.obj
 0001:0004bbb6       ?catch$7@?0??SetAction@Connection@@CAXV?$Local@VString@v8@@@v8@@V?$Local@VValue@v8@@@3@AEBV?$PropertyCallbackInfo@X@Nan@@@Z@4HA 000000018004cbb6 f   njsConnection.obj
 0001:0004bbc5       __catch$?SetAction@Connection@@CAXV?$Local@VString@v8@@@v8@@V?$Local@VValue@v8@@@3@AEBV?$PropertyCallbackInfo@X@Nan@@@Z$0 000000018004cbc5 f   njsConnection.obj
 0001:0004bc50       ?dtor$0@?0??GetOracleServerVersion@Connection@@CAXV?$Local@VString@v8@@@v8@@AEBV?$PropertyCallbackInfo@VValue@v8@@@Nan@@@Z@4HA 000000018004cc50 f   njsConnection.obj
 0001:0004bc5c       ?dtor$1@?0??GetOracleServerVersion@Connection@@CAXV?$Local@VString@v8@@@v8@@AEBV?$PropertyCallbackInfo@VValue@v8@@@Nan@@@Z@4HA 000000018004cc5c f   njsConnection.obj
 0001:0004bc68       ?catch$3@?0??GetOracleServerVersion@Connection@@CAXV?$Local@VString@v8@@@v8@@AEBV?$PropertyCallbackInfo@VValue@v8@@@Nan@@@Z@4HA 000000018004cc68 f   njsConnection.obj
 0001:0004bc77       __catch$?GetOracleServerVersion@Connection@@CAXV?$Local@VString@v8@@@v8@@AEBV?$PropertyCallbackInfo@VValue@v8@@@Nan@@@Z$0 000000018004cc77 f   njsConnection.obj
 0001:0004bd10       ?dtor$0@?0??Execute@Connection@@CAXAEBV?$FunctionCallbackInfo@VValue@v8@@@Nan@@@Z@4HA 000000018004cd10 f   njsConnection.obj
 0001:0004bd1c       ?dtor$1@?0??Execute@Connection@@CAXAEBV?$FunctionCallbackInfo@VValue@v8@@@Nan@@@Z@4HA 000000018004cd1c f   njsConnection.obj
 0001:0004bd28       ?dtor$2@?0??Execute@Connection@@CAXAEBV?$FunctionCallbackInfo@VValue@v8@@@Nan@@@Z@4HA 000000018004cd28 f   njsConnection.obj
 0001:0004bd34       ?dtor$3@?0??Execute@Connection@@CAXAEBV?$FunctionCallbackInfo@VValue@v8@@@Nan@@@Z@4HA 000000018004cd34 f   njsConnection.obj
 0001:0004bd51       ?dtor$4@?0??Execute@Connection@@CAXAEBV?$FunctionCallbackInfo@VValue@v8@@@Nan@@@Z@4HA 000000018004cd51 f   njsConnection.obj
 0001:0004bd5d       ?dtor$5@?0??Execute@Connection@@CAXAEBV?$FunctionCallbackInfo@VValue@v8@@@Nan@@@Z@4HA 000000018004cd5d f   njsConnection.obj
 0001:0004bd69       ?dtor$6@?0??Execute@Connection@@CAXAEBV?$FunctionCallbackInfo@VValue@v8@@@Nan@@@Z@4HA 000000018004cd69 f   njsConnection.obj
 0001:0004bd75       ?dtor$7@?0??Execute@Connection@@CAXAEBV?$FunctionCallbackInfo@VValue@v8@@@Nan@@@Z@4HA 000000018004cd75 f   njsConnection.obj
 0001:0004bd83       ?dtor$8@?0??Execute@Connection@@CAXAEBV?$FunctionCallbackInfo@VValue@v8@@@Nan@@@Z@4HA 000000018004cd83 f   njsConnection.obj
 0001:0004bd8f       ?dtor$9@?0??Execute@Connection@@CAXAEBV?$FunctionCallbackInfo@VValue@v8@@@Nan@@@Z@4HA 000000018004cd8f f   njsConnection.obj
 0001:0004bd9b       ?dtor$10@?0??Execute@Connection@@CAXAEBV?$FunctionCallbackInfo@VValue@v8@@@Nan@@@Z@4HA 000000018004cd9b f   njsConnection.obj
 0001:0004bdb0       ?dtor$0@?0??ProcessBinds@Connection@@CAXAEBV?$FunctionCallbackInfo@VValue@v8@@@Nan@@IPEAUeBaton@@@Z@4HA 000000018004cdb0 f   njsConnection.obj
 0001:0004bdbc       ?dtor$1@?0??ProcessBinds@Connection@@CAXAEBV?$FunctionCallbackInfo@VValue@v8@@@Nan@@IPEAUeBaton@@@Z@4HA 000000018004cdbc f   njsConnection.obj
 0001:0004bdd0       ?dtor$0@?0??ProcessOptions@Connection@@CAXAEBV?$FunctionCallbackInfo@VValue@v8@@@Nan@@IPEAUeBaton@@@Z@4HA 000000018004cdd0 f   njsConnection.obj
 0001:0004bddc       ?dtor$1@?0??ProcessOptions@Connection@@CAXAEBV?$FunctionCallbackInfo@VValue@v8@@@Nan@@IPEAUeBaton@@@Z@4HA 000000018004cddc f   njsConnection.obj
 0001:0004bde8       ?dtor$2@?0??ProcessOptions@Connection@@CAXAEBV?$FunctionCallbackInfo@VValue@v8@@@Nan@@IPEAUeBaton@@@Z@4HA 000000018004cde8 f   njsConnection.obj
 0001:0004bdf4       ?dtor$3@?0??ProcessOptions@Connection@@CAXAEBV?$FunctionCallbackInfo@VValue@v8@@@Nan@@IPEAUeBaton@@@Z@4HA 000000018004cdf4 f   njsConnection.obj
 0001:0004be00       ?dtor$4@?0??ProcessOptions@Connection@@CAXAEBV?$FunctionCallbackInfo@VValue@v8@@@Nan@@IPEAUeBaton@@@Z@4HA 000000018004ce00 f   njsConnection.obj
 0001:0004be0c       ?dtor$5@?0??ProcessOptions@Connection@@CAXAEBV?$FunctionCallbackInfo@VValue@v8@@@Nan@@IPEAUeBaton@@@Z@4HA 000000018004ce0c f   njsConnection.obj
 0001:0004be18       ?dtor$6@?0??ProcessOptions@Connection@@CAXAEBV?$FunctionCallbackInfo@VValue@v8@@@Nan@@IPEAUeBaton@@@Z@4HA 000000018004ce18 f   njsConnection.obj
 0001:0004be24       ?dtor$7@?0??ProcessOptions@Connection@@CAXAEBV?$FunctionCallbackInfo@VValue@v8@@@Nan@@IPEAUeBaton@@@Z@4HA 000000018004ce24 f   njsConnection.obj
 0001:0004be30       ?dtor$8@?0??ProcessOptions@Connection@@CAXAEBV?$FunctionCallbackInfo@VValue@v8@@@Nan@@IPEAUeBaton@@@Z@4HA 000000018004ce30 f   njsConnection.obj
 0001:0004be6e       ?dtor$9@?0??ProcessOptions@Connection@@CAXAEBV?$FunctionCallbackInfo@VValue@v8@@@Nan@@IPEAUeBaton@@@Z@4HA 000000018004ce6e f   njsConnection.obj
 0001:0004be7c       ?dtor$10@?0??ProcessOptions@Connection@@CAXAEBV?$FunctionCallbackInfo@VValue@v8@@@Nan@@IPEAUeBaton@@@Z@4HA 000000018004ce7c f   njsConnection.obj
 0001:0004be88       ?dtor$12@?0??ProcessOptions@Connection@@CAXAEBV?$FunctionCallbackInfo@VValue@v8@@@Nan@@IPEAUeBaton@@@Z@4HA 000000018004ce88 f   njsConnection.obj
 0001:0004be94       ?dtor$13@?0??ProcessOptions@Connection@@CAXAEBV?$FunctionCallbackInfo@VValue@v8@@@Nan@@IPEAUeBaton@@@Z@4HA 000000018004ce94 f   njsConnection.obj
 0001:0004bea0       ?dtor$14@?0??ProcessOptions@Connection@@CAXAEBV?$FunctionCallbackInfo@VValue@v8@@@Nan@@IPEAUeBaton@@@Z@4HA 000000018004cea0 f   njsConnection.obj
 0001:0004beac       ?dtor$15@?0??ProcessOptions@Connection@@CAXAEBV?$FunctionCallbackInfo@VValue@v8@@@Nan@@IPEAUeBaton@@@Z@4HA 000000018004ceac f   njsConnection.obj
 0001:0004beb8       ?dtor$16@?0??ProcessOptions@Connection@@CAXAEBV?$FunctionCallbackInfo@VValue@v8@@@Nan@@IPEAUeBaton@@@Z@4HA 000000018004ceb8 f   njsConnection.obj
 0001:0004bec4       ?dtor$17@?0??ProcessOptions@Connection@@CAXAEBV?$FunctionCallbackInfo@VValue@v8@@@Nan@@IPEAUeBaton@@@Z@4HA 000000018004cec4 f   njsConnection.obj
 0001:0004bed0       ?dtor$0@?0??GetBinds@Connection@@CAXV?$Local@VObject@v8@@@v8@@PEAUeBaton@@@Z@4HA 000000018004ced0 f   njsConnection.obj
 0001:0004bedc       ?dtor$1@?0??GetBinds@Connection@@CAXV?$Local@VObject@v8@@@v8@@PEAUeBaton@@@Z@4HA 000000018004cedc f   njsConnection.obj
 0001:0004bee8       ?dtor$2@?0??GetBinds@Connection@@CAXV?$Local@VObject@v8@@@v8@@PEAUeBaton@@@Z@4HA 000000018004cee8 f   njsConnection.obj
 0001:0004bf05       ?dtor$3@?0??GetBinds@Connection@@CAXV?$Local@VObject@v8@@@v8@@PEAUeBaton@@@Z@4HA 000000018004cf05 f   njsConnection.obj
 0001:0004bf13       ?dtor$4@?0??GetBinds@Connection@@CAXV?$Local@VObject@v8@@@v8@@PEAUeBaton@@@Z@4HA 000000018004cf13 f   njsConnection.obj
 0001:0004bf1f       ?dtor$5@?0??GetBinds@Connection@@CAXV?$Local@VObject@v8@@@v8@@PEAUeBaton@@@Z@4HA 000000018004cf1f f   njsConnection.obj
 0001:0004bf2b       ?dtor$6@?0??GetBinds@Connection@@CAXV?$Local@VObject@v8@@@v8@@PEAUeBaton@@@Z@4HA 000000018004cf2b f   njsConnection.obj
 0001:0004bf40       ?dtor$0@?0??GetBinds@Connection@@CAXV?$Local@VArray@v8@@@v8@@PEAUeBaton@@@Z@4HA 000000018004cf40 f   njsConnection.obj
 0001:0004bf4c       ?dtor$1@?0??GetBinds@Connection@@CAXV?$Local@VArray@v8@@@v8@@PEAUeBaton@@@Z@4HA 000000018004cf4c f   njsConnection.obj
 0001:0004bf70       ?dtor$0@?0??GetBindUnit@Connection@@CAXV?$Local@VValue@v8@@@v8@@PEAUBind@@_NPEAUeBaton@@@Z@4HA 000000018004cf70 f   njsConnection.obj
 0001:0004bf7c       ?dtor$1@?0??GetBindUnit@Connection@@CAXV?$Local@VValue@v8@@@v8@@PEAUBind@@_NPEAUeBaton@@@Z@4HA 000000018004cf7c f   njsConnection.obj
 0001:0004bf88       ?dtor$2@?0??GetBindUnit@Connection@@CAXV?$Local@VValue@v8@@@v8@@PEAUBind@@_NPEAUeBaton@@@Z@4HA 000000018004cf88 f   njsConnection.obj
 0001:0004bf96       ?dtor$3@?0??GetBindUnit@Connection@@CAXV?$Local@VValue@v8@@@v8@@PEAUBind@@_NPEAUeBaton@@@Z@4HA 000000018004cf96 f   njsConnection.obj
 0001:0004bfa2       ?dtor$4@?0??GetBindUnit@Connection@@CAXV?$Local@VValue@v8@@@v8@@PEAUBind@@_NPEAUeBaton@@@Z@4HA 000000018004cfa2 f   njsConnection.obj
 0001:0004bfae       ?dtor$5@?0??GetBindUnit@Connection@@CAXV?$Local@VValue@v8@@@v8@@PEAUBind@@_NPEAUeBaton@@@Z@4HA 000000018004cfae f   njsConnection.obj
 0001:0004bfba       ?dtor$6@?0??GetBindUnit@Connection@@CAXV?$Local@VValue@v8@@@v8@@PEAUBind@@_NPEAUeBaton@@@Z@4HA 000000018004cfba f   njsConnection.obj
 0001:0004bfc6       ?dtor$7@?0??GetBindUnit@Connection@@CAXV?$Local@VValue@v8@@@v8@@PEAUBind@@_NPEAUeBaton@@@Z@4HA 000000018004cfc6 f   njsConnection.obj
 0001:0004bfd2       ?dtor$8@?0??GetBindUnit@Connection@@CAXV?$Local@VValue@v8@@@v8@@PEAUBind@@_NPEAUeBaton@@@Z@4HA 000000018004cfd2 f   njsConnection.obj
 0001:0004bfde       ?dtor$9@?0??GetBindUnit@Connection@@CAXV?$Local@VValue@v8@@@v8@@PEAUBind@@_NPEAUeBaton@@@Z@4HA 000000018004cfde f   njsConnection.obj
 0001:0004bfea       ?dtor$10@?0??GetBindUnit@Connection@@CAXV?$Local@VValue@v8@@@v8@@PEAUBind@@_NPEAUeBaton@@@Z@4HA 000000018004cfea f   njsConnection.obj
 0001:0004bff6       ?dtor$11@?0??GetBindUnit@Connection@@CAXV?$Local@VValue@v8@@@v8@@PEAUBind@@_NPEAUeBaton@@@Z@4HA 000000018004cff6 f   njsConnection.obj
 0001:0004c002       ?dtor$12@?0??GetBindUnit@Connection@@CAXV?$Local@VValue@v8@@@v8@@PEAUBind@@_NPEAUeBaton@@@Z@4HA 000000018004d002 f   njsConnection.obj
 0001:0004c00e       ?dtor$13@?0??GetBindUnit@Connection@@CAXV?$Local@VValue@v8@@@v8@@PEAUBind@@_NPEAUeBaton@@@Z@4HA 000000018004d00e f   njsConnection.obj
 0001:0004c01a       ?dtor$14@?0??GetBindUnit@Connection@@CAXV?$Local@VValue@v8@@@v8@@PEAUBind@@_NPEAUeBaton@@@Z@4HA 000000018004d01a f   njsConnection.obj
 0001:0004c026       ?dtor$15@?0??GetBindUnit@Connection@@CAXV?$Local@VValue@v8@@@v8@@PEAUBind@@_NPEAUeBaton@@@Z@4HA 000000018004d026 f   njsConnection.obj
 0001:0004c032       ?dtor$16@?0??GetBindUnit@Connection@@CAXV?$Local@VValue@v8@@@v8@@PEAUBind@@_NPEAUeBaton@@@Z@4HA 000000018004d032 f   njsConnection.obj
 0001:0004c03e       ?dtor$17@?0??GetBindUnit@Connection@@CAXV?$Local@VValue@v8@@@v8@@PEAUBind@@_NPEAUeBaton@@@Z@4HA 000000018004d03e f   njsConnection.obj
 0001:0004c04a       ?dtor$18@?0??GetBindUnit@Connection@@CAXV?$Local@VValue@v8@@@v8@@PEAUBind@@_NPEAUeBaton@@@Z@4HA 000000018004d04a f   njsConnection.obj
 0001:0004c056       ?dtor$19@?0??GetBindUnit@Connection@@CAXV?$Local@VValue@v8@@@v8@@PEAUBind@@_NPEAUeBaton@@@Z@4HA 000000018004d056 f   njsConnection.obj
 0001:0004c062       ?dtor$25@?0??GetBindUnit@Connection@@CAXV?$Local@VValue@v8@@@v8@@PEAUBind@@_NPEAUeBaton@@@Z@4HA 000000018004d062 f   njsConnection.obj
 0001:0004c070       ?dtor$0@?0??GetOutBindParams@Connection@@CAXGPEAUBind@@PEAUeBaton@@@Z@4HA 000000018004d070 f   njsConnection.obj
 0001:0004c07c       ?dtor$1@?0??GetOutBindParams@Connection@@CAXGPEAUBind@@PEAUeBaton@@@Z@4HA 000000018004d07c f   njsConnection.obj
 0001:0004c088       ?dtor$2@?0??GetOutBindParams@Connection@@CAXGPEAUBind@@PEAUeBaton@@@Z@4HA 000000018004d088 f   njsConnection.obj
 0001:0004c0a0       ?dtor$0@?0??GetInBindParams@Connection@@CAXV?$Local@VValue@v8@@@v8@@PEAUBind@@PEAUeBaton@@@Z@4HA 000000018004d0a0 f   njsConnection.obj
 0001:0004c0a0       ?dtor$0@?0??Lob2V8Value@Connection@@CA?AV?$Local@VValue@v8@@@v8@@PEAUeBaton@@PEAUBind@@@Z@4HA 000000018004d0a0 f   njsConnection.obj
 0001:0004c0a0       ?dtor$0@?0??GetOutBinds@Connection@@CA?AV?$Local@VValue@v8@@@v8@@PEAUeBaton@@@Z@4HA 000000018004d0a0 f   njsConnection.obj
 0001:0004c0b0       ?dtor$0@?0??GetInBindParamsScalar@Connection@@CAXV?$Local@VValue@v8@@@v8@@PEAUBind@@PEAUeBaton@@@Z@4HA 000000018004d0b0 f   njsConnection.obj
 0001:0004c0bc       ?dtor$1@?0??GetInBindParamsScalar@Connection@@CAXV?$Local@VValue@v8@@@v8@@PEAUBind@@PEAUeBaton@@@Z@4HA 000000018004d0bc f   njsConnection.obj
 0001:0004c0c8       ?dtor$2@?0??GetInBindParamsScalar@Connection@@CAXV?$Local@VValue@v8@@@v8@@PEAUBind@@PEAUeBaton@@@Z@4HA 000000018004d0c8 f   njsConnection.obj
 0001:0004c0d6       ?dtor$3@?0??GetInBindParamsScalar@Connection@@CAXV?$Local@VValue@v8@@@v8@@PEAUBind@@PEAUeBaton@@@Z@4HA 000000018004d0d6 f   njsConnection.obj
 0001:0004c0e2       ?dtor$4@?0??GetInBindParamsScalar@Connection@@CAXV?$Local@VValue@v8@@@v8@@PEAUBind@@PEAUeBaton@@@Z@4HA 000000018004d0e2 f   njsConnection.obj
 0001:0004c0ee       ?dtor$5@?0??GetInBindParamsScalar@Connection@@CAXV?$Local@VValue@v8@@@v8@@PEAUBind@@PEAUeBaton@@@Z@4HA 000000018004d0ee f   njsConnection.obj
 0001:0004c0fa       ?dtor$6@?0??GetInBindParamsScalar@Connection@@CAXV?$Local@VValue@v8@@@v8@@PEAUBind@@PEAUeBaton@@@Z@4HA 000000018004d0fa f   njsConnection.obj
 0001:0004c106       ?dtor$7@?0??GetInBindParamsScalar@Connection@@CAXV?$Local@VValue@v8@@@v8@@PEAUBind@@PEAUeBaton@@@Z@4HA 000000018004d106 f   njsConnection.obj
 0001:0004c112       ?dtor$8@?0??GetInBindParamsScalar@Connection@@CAXV?$Local@VValue@v8@@@v8@@PEAUBind@@PEAUeBaton@@@Z@4HA 000000018004d112 f   njsConnection.obj
 0001:0004c11e       ?dtor$9@?0??GetInBindParamsScalar@Connection@@CAXV?$Local@VValue@v8@@@v8@@PEAUBind@@PEAUeBaton@@@Z@4HA 000000018004d11e f   njsConnection.obj
 0001:0004c12a       ?dtor$25@?0??GetInBindParamsScalar@Connection@@CAXV?$Local@VValue@v8@@@v8@@PEAUBind@@PEAUeBaton@@@Z@4HA 000000018004d12a f   njsConnection.obj
 0001:0004c136       ?dtor$10@?0??GetInBindParamsScalar@Connection@@CAXV?$Local@VValue@v8@@@v8@@PEAUBind@@PEAUeBaton@@@Z@4HA 000000018004d136 f   njsConnection.obj
 0001:0004c142       ?dtor$11@?0??GetInBindParamsScalar@Connection@@CAXV?$Local@VValue@v8@@@v8@@PEAUBind@@PEAUeBaton@@@Z@4HA 000000018004d142 f   njsConnection.obj
 0001:0004c14e       ?dtor$12@?0??GetInBindParamsScalar@Connection@@CAXV?$Local@VValue@v8@@@v8@@PEAUBind@@PEAUeBaton@@@Z@4HA 000000018004d14e f   njsConnection.obj
 0001:0004c15a       ?dtor$13@?0??GetInBindParamsScalar@Connection@@CAXV?$Local@VValue@v8@@@v8@@PEAUBind@@PEAUeBaton@@@Z@4HA 000000018004d15a f   njsConnection.obj
 0001:0004c166       ?dtor$14@?0??GetInBindParamsScalar@Connection@@CAXV?$Local@VValue@v8@@@v8@@PEAUBind@@PEAUeBaton@@@Z@4HA 000000018004d166 f   njsConnection.obj
 0001:0004c172       ?dtor$15@?0??GetInBindParamsScalar@Connection@@CAXV?$Local@VValue@v8@@@v8@@PEAUBind@@PEAUeBaton@@@Z@4HA 000000018004d172 f   njsConnection.obj
 0001:0004c17e       ?dtor$18@?0??GetInBindParamsScalar@Connection@@CAXV?$Local@VValue@v8@@@v8@@PEAUBind@@PEAUeBaton@@@Z@4HA 000000018004d17e f   njsConnection.obj
 0001:0004c19b       ?dtor$19@?0??GetInBindParamsScalar@Connection@@CAXV?$Local@VValue@v8@@@v8@@PEAUBind@@PEAUeBaton@@@Z@4HA 000000018004d19b f   njsConnection.obj
 0001:0004c1a7       ?dtor$20@?0??GetInBindParamsScalar@Connection@@CAXV?$Local@VValue@v8@@@v8@@PEAUBind@@PEAUeBaton@@@Z@4HA 000000018004d1a7 f   njsConnection.obj
 0001:0004c1c0       ?dtor$0@?0??GetInBindParamsArray@Connection@@CAXV?$Local@VArray@v8@@@v8@@PEAUBind@@PEAUeBaton@@@Z@4HA 000000018004d1c0 f   njsConnection.obj
 0001:0004c1cc       ?dtor$1@?0??GetInBindParamsArray@Connection@@CAXV?$Local@VArray@v8@@@v8@@PEAUBind@@PEAUeBaton@@@Z@4HA 000000018004d1cc f   njsConnection.obj
 0001:0004c1d8       ?dtor$2@?0??GetInBindParamsArray@Connection@@CAXV?$Local@VArray@v8@@@v8@@PEAUBind@@PEAUeBaton@@@Z@4HA 000000018004d1d8 f   njsConnection.obj
 0001:0004c1e4       ?dtor$3@?0??GetInBindParamsArray@Connection@@CAXV?$Local@VArray@v8@@@v8@@PEAUBind@@PEAUeBaton@@@Z@4HA 000000018004d1e4 f   njsConnection.obj
 0001:0004c1f0       ?dtor$4@?0??GetInBindParamsArray@Connection@@CAXV?$Local@VArray@v8@@@v8@@PEAUBind@@PEAUeBaton@@@Z@4HA 000000018004d1f0 f   njsConnection.obj
 0001:0004c1fc       ?dtor$6@?0??GetInBindParamsArray@Connection@@CAXV?$Local@VArray@v8@@@v8@@PEAUBind@@PEAUeBaton@@@Z@4HA 000000018004d1fc f   njsConnection.obj
 0001:0004c208       ?dtor$7@?0??GetInBindParamsArray@Connection@@CAXV?$Local@VArray@v8@@@v8@@PEAUBind@@PEAUeBaton@@@Z@4HA 000000018004d208 f   njsConnection.obj
 0001:0004c214       ?dtor$8@?0??GetInBindParamsArray@Connection@@CAXV?$Local@VArray@v8@@@v8@@PEAUBind@@PEAUeBaton@@@Z@4HA 000000018004d214 f   njsConnection.obj
 0001:0004c220       ?dtor$9@?0??GetInBindParamsArray@Connection@@CAXV?$Local@VArray@v8@@@v8@@PEAUBind@@PEAUeBaton@@@Z@4HA 000000018004d220 f   njsConnection.obj
 0001:0004c22c       ?dtor$10@?0??GetInBindParamsArray@Connection@@CAXV?$Local@VArray@v8@@@v8@@PEAUBind@@PEAUeBaton@@@Z@4HA 000000018004d22c f   njsConnection.obj
 0001:0004c238       ?dtor$11@?0??GetInBindParamsArray@Connection@@CAXV?$Local@VArray@v8@@@v8@@PEAUBind@@PEAUeBaton@@@Z@4HA 000000018004d238 f   njsConnection.obj
 0001:0004c244       ?dtor$12@?0??GetInBindParamsArray@Connection@@CAXV?$Local@VArray@v8@@@v8@@PEAUBind@@PEAUeBaton@@@Z@4HA 000000018004d244 f   njsConnection.obj
 0001:0004c250       ?dtor$13@?0??GetInBindParamsArray@Connection@@CAXV?$Local@VArray@v8@@@v8@@PEAUBind@@PEAUeBaton@@@Z@4HA 000000018004d250 f   njsConnection.obj
 0001:0004c25c       ?dtor$17@?0??GetInBindParamsArray@Connection@@CAXV?$Local@VArray@v8@@@v8@@PEAUBind@@PEAUeBaton@@@Z@4HA 000000018004d25c f   njsConnection.obj
 0001:0004c268       ?dtor$19@?0??GetInBindParamsArray@Connection@@CAXV?$Local@VArray@v8@@@v8@@PEAUBind@@PEAUeBaton@@@Z@4HA 000000018004d268 f   njsConnection.obj
 0001:0004c280       ?dtor$0@?0??AllocateBindArray@Connection@@CA_NGPEAUBind@@PEAUeBaton@@PEA_K@Z@4HA 000000018004d280 f   njsConnection.obj
 0001:0004c28c       ?dtor$1@?0??AllocateBindArray@Connection@@CA_NGPEAUBind@@PEAUeBaton@@PEA_K@Z@4HA 000000018004d28c f   njsConnection.obj
 0001:0004c298       ?dtor$2@?0??AllocateBindArray@Connection@@CA_NGPEAUBind@@PEAUeBaton@@PEA_K@Z@4HA 000000018004d298 f   njsConnection.obj
 0001:0004c2a4       ?dtor$3@?0??AllocateBindArray@Connection@@CA_NGPEAUBind@@PEAUeBaton@@PEA_K@Z@4HA 000000018004d2a4 f   njsConnection.obj
 0001:0004c2b0       ?dtor$4@?0??AllocateBindArray@Connection@@CA_NGPEAUBind@@PEAUeBaton@@PEA_K@Z@4HA 000000018004d2b0 f   njsConnection.obj
 0001:0004c2bc       ?dtor$7@?0??AllocateBindArray@Connection@@CA_NGPEAUBind@@PEAUeBaton@@PEA_K@Z@4HA 000000018004d2bc f   njsConnection.obj
 0001:0004c2d0       ?dtor$0@?0??Async_Execute@Connection@@CAXPEAUuv_work_s@@@Z@4HA 000000018004d2d0 f   njsConnection.obj
 0001:0004c2dc       ?dtor$1@?0??Async_Execute@Connection@@CAXPEAUuv_work_s@@@Z@4HA 000000018004d2dc f   njsConnection.obj
 0001:0004c31a       ?dtor$2@?0??Async_Execute@Connection@@CAXPEAUuv_work_s@@@Z@4HA 000000018004d31a f   njsConnection.obj
 0001:0004c326       ?dtor$3@?0??Async_Execute@Connection@@CAXPEAUuv_work_s@@@Z@4HA 000000018004d326 f   njsConnection.obj
 0001:0004c332       ?dtor$4@?0??Async_Execute@Connection@@CAXPEAUuv_work_s@@@Z@4HA 000000018004d332 f   njsConnection.obj
 0001:0004c33e       ?dtor$5@?0??Async_Execute@Connection@@CAXPEAUuv_work_s@@@Z@4HA 000000018004d33e f   njsConnection.obj
 0001:0004c34a       ?dtor$8@?0??Async_Execute@Connection@@CAXPEAUuv_work_s@@@Z@4HA 000000018004d34a f   njsConnection.obj
 0001:0004c388       ?dtor$9@?0??Async_Execute@Connection@@CAXPEAUuv_work_s@@@Z@4HA 000000018004d388 f   njsConnection.obj
 0001:0004c394       ?catch$12@?0??Async_Execute@Connection@@CAXPEAUuv_work_s@@@Z@4HA 000000018004d394 f   njsConnection.obj
 0001:0004c3a3       __catch$?Async_Execute@Connection@@CAXPEAUuv_work_s@@@Z$13 000000018004d3a3 f   njsConnection.obj
 0001:0004c4c5       ?dtor$10@?0??Async_Execute@Connection@@CAXPEAUuv_work_s@@@Z@4HA 000000018004d4c5 f   njsConnection.obj
 0001:0004c4d1       ?dtor$11@?0??Async_Execute@Connection@@CAXPEAUuv_work_s@@@Z@4HA 000000018004d4d1 f   njsConnection.obj
 0001:0004c4e0       ?dtor$0@?0??LOB2StringOrBuffer@Connection@@CAXPEAUeBaton@@I_K1@Z@4HA 000000018004d4e0 f   njsConnection.obj
 0001:0004c4ec       ?dtor$1@?0??LOB2StringOrBuffer@Connection@@CAXPEAUeBaton@@I_K1@Z@4HA 000000018004d4ec f   njsConnection.obj
 0001:0004c500       ?dtor$3@?0??PrepareAndBind@Connection@@CAXPEAUeBaton@@@Z@4HA 000000018004d500 f   njsConnection.obj
 0001:0004c51d       ?dtor$0@?0??PrepareAndBind@Connection@@CAXPEAUeBaton@@@Z@4HA 000000018004d51d f   njsConnection.obj
 0001:0004c529       ?dtor$2@?0??PrepareAndBind@Connection@@CAXPEAUeBaton@@@Z@4HA 000000018004d529 f   njsConnection.obj
 0001:0004c540       ?dtor$0@?0??CopyMetaData@Connection@@SAXPEAUMetaInfo@@PEAUeBaton@@PEBUMetaData@dpi@@I@Z@4HA 000000018004d540 f   njsConnection.obj
 0001:0004c54c       ?dtor$1@?0??CopyMetaData@Connection@@SAXPEAUMetaInfo@@PEAUeBaton@@PEBUMetaData@dpi@@I@Z@4HA 000000018004d54c f   njsConnection.obj
 0001:0004c560       ?dtor$1@?0??DoDefines@Connection@@SAXPEAUeBaton@@@Z@4HA 000000018004d560 f   njsConnection.obj
 0001:0004c56c       ?dtor$2@?0??DoDefines@Connection@@SAXPEAUeBaton@@@Z@4HA 000000018004d56c f   njsConnection.obj
 0001:0004c578       ?dtor$3@?0??DoDefines@Connection@@SAXPEAUeBaton@@@Z@4HA 000000018004d578 f   njsConnection.obj
 0001:0004c584       ?dtor$4@?0??DoDefines@Connection@@SAXPEAUeBaton@@@Z@4HA 000000018004d584 f   njsConnection.obj
 0001:0004c590       ?dtor$5@?0??DoDefines@Connection@@SAXPEAUeBaton@@@Z@4HA 000000018004d590 f   njsConnection.obj
 0001:0004c59c       ?dtor$6@?0??DoDefines@Connection@@SAXPEAUeBaton@@@Z@4HA 000000018004d59c f   njsConnection.obj
 0001:0004c5a8       ?dtor$7@?0??DoDefines@Connection@@SAXPEAUeBaton@@@Z@4HA 000000018004d5a8 f   njsConnection.obj
 0001:0004c5b4       ?dtor$8@?0??DoDefines@Connection@@SAXPEAUeBaton@@@Z@4HA 000000018004d5b4 f   njsConnection.obj
 0001:0004c5c0       ?dtor$9@?0??DoDefines@Connection@@SAXPEAUeBaton@@@Z@4HA 000000018004d5c0 f   njsConnection.obj
 0001:0004c5cc       ?dtor$10@?0??DoDefines@Connection@@SAXPEAUeBaton@@@Z@4HA 000000018004d5cc f   njsConnection.obj
 0001:0004c5d8       ?dtor$11@?0??DoDefines@Connection@@SAXPEAUeBaton@@@Z@4HA 000000018004d5d8 f   njsConnection.obj
 0001:0004c5e4       ?dtor$12@?0??DoDefines@Connection@@SAXPEAUeBaton@@@Z@4HA 000000018004d5e4 f   njsConnection.obj
 0001:0004c5f0       ?dtor$13@?0??DoDefines@Connection@@SAXPEAUeBaton@@@Z@4HA 000000018004d5f0 f   njsConnection.obj
 0001:0004c5fc       ?dtor$14@?0??DoDefines@Connection@@SAXPEAUeBaton@@@Z@4HA 000000018004d5fc f   njsConnection.obj
 0001:0004c608       ?dtor$16@?0??DoDefines@Connection@@SAXPEAUeBaton@@@Z@4HA 000000018004d608 f   njsConnection.obj
 0001:0004c614       ?dtor$17@?0??DoDefines@Connection@@SAXPEAUeBaton@@@Z@4HA 000000018004d614 f   njsConnection.obj
 0001:0004c620       ?dtor$0@?0??Descr2protoILob@Connection@@CAXPEAUeBaton@@II@Z@4HA 000000018004d620 f   njsConnection.obj
 0001:0004c63d       ?dtor$1@?0??Descr2protoILob@Connection@@CAXPEAUeBaton@@II@Z@4HA 000000018004d63d f   njsConnection.obj
 0001:0004c65a       ?dtor$2@?0??Descr2protoILob@Connection@@CAXPEAUeBaton@@II@Z@4HA 000000018004d65a f   njsConnection.obj
 0001:0004c680       ?dtor$0@?0??Async_AfterExecute@Connection@@CAXPEAUuv_work_s@@@Z@4HA 000000018004d680 f   njsConnection.obj
 0001:0004c68c       ?dtor$1@?0??Async_AfterExecute@Connection@@CAXPEAUuv_work_s@@@Z@4HA 000000018004d68c f   njsConnection.obj
 0001:0004c6a0       ?dtor$0@?0??GetMetaData@Connection@@SA?AV?$Local@VValue@v8@@@v8@@PEBUMetaInfo@@I_N@Z@4HA 000000018004d6a0 f   njsConnection.obj
 0001:0004c6b0       ?dtor$0@?0??GetRows@Connection@@SA?AV?$Local@VValue@v8@@@v8@@PEAUeBaton@@@Z@4HA 000000018004d6b0 f   njsConnection.obj
 0001:0004c6bc       ?dtor$2@?0??GetRows@Connection@@SA?AV?$Local@VValue@v8@@@v8@@PEAUeBaton@@@Z@4HA 000000018004d6bc f   njsConnection.obj
 0001:0004c6d0       ?dtor$0@?0??ToV8Value@Connection@@CA?AV?$Local@VValue@v8@@@v8@@PEAUeBaton@@_NII@Z@4HA 000000018004d6d0 f   njsConnection.obj
 0001:0004c6e0       ?dtor$0@?0??ToV8ArrayValue@Connection@@CA?AV?$Local@VValue@v8@@@v8@@PEAUeBaton@@PEAUBind@@K@Z@4HA 000000018004d6e0 f   njsConnection.obj
 0001:0004c6f0       ?dtor$0@?0??GetOutBindArray@Connection@@CA?AV?$Local@VValue@v8@@@v8@@PEAUeBaton@@@Z@4HA 000000018004d6f0 f   njsConnection.obj
 0001:0004c6fc       ?dtor$1@?0??GetOutBindArray@Connection@@CA?AV?$Local@VValue@v8@@@v8@@PEAUeBaton@@@Z@4HA 000000018004d6fc f   njsConnection.obj
 0001:0004c710       ?dtor$0@?0??GetOutBindObject@Connection@@CA?AV?$Local@VValue@v8@@@v8@@PEAUeBaton@@@Z@4HA 000000018004d710 f   njsConnection.obj
 0001:0004c71c       ?dtor$1@?0??GetOutBindObject@Connection@@CA?AV?$Local@VValue@v8@@@v8@@PEAUeBaton@@@Z@4HA 000000018004d71c f   njsConnection.obj
 0001:0004c730       ?dtor$0@?0??Release@Connection@@CAXAEBV?$FunctionCallbackInfo@VValue@v8@@@Nan@@@Z@4HA 000000018004d730 f   njsConnection.obj
 0001:0004c73c       ?dtor$1@?0??Release@Connection@@CAXAEBV?$FunctionCallbackInfo@VValue@v8@@@Nan@@@Z@4HA 000000018004d73c f   njsConnection.obj
 0001:0004c748       ?dtor$2@?0??Release@Connection@@CAXAEBV?$FunctionCallbackInfo@VValue@v8@@@Nan@@@Z@4HA 000000018004d748 f   njsConnection.obj
 0001:0004c754       ?dtor$3@?0??Release@Connection@@CAXAEBV?$FunctionCallbackInfo@VValue@v8@@@Nan@@@Z@4HA 000000018004d754 f   njsConnection.obj
 0001:0004c760       ?dtor$4@?0??Release@Connection@@CAXAEBV?$FunctionCallbackInfo@VValue@v8@@@Nan@@@Z@4HA 000000018004d760 f   njsConnection.obj
 0001:0004c77d       ?dtor$5@?0??Release@Connection@@CAXAEBV?$FunctionCallbackInfo@VValue@v8@@@Nan@@@Z@4HA 000000018004d77d f   njsConnection.obj
 0001:0004c789       ?dtor$6@?0??Release@Connection@@CAXAEBV?$FunctionCallbackInfo@VValue@v8@@@Nan@@@Z@4HA 000000018004d789 f   njsConnection.obj
 0001:0004c795       ?dtor$7@?0??Release@Connection@@CAXAEBV?$FunctionCallbackInfo@VValue@v8@@@Nan@@@Z@4HA 000000018004d795 f   njsConnection.obj
 0001:0004c7a1       ?dtor$8@?0??Release@Connection@@CAXAEBV?$FunctionCallbackInfo@VValue@v8@@@Nan@@@Z@4HA 000000018004d7a1 f   njsConnection.obj
 0001:0004c7ad       ?dtor$9@?0??Release@Connection@@CAXAEBV?$FunctionCallbackInfo@VValue@v8@@@Nan@@@Z@4HA 000000018004d7ad f   njsConnection.obj
 0001:0004c7b9       ?dtor$10@?0??Release@Connection@@CAXAEBV?$FunctionCallbackInfo@VValue@v8@@@Nan@@@Z@4HA 000000018004d7b9 f   njsConnection.obj
 0001:0004c7d0       ?dtor$0@?0??Async_Release@Connection@@CAXPEAUuv_work_s@@@Z@4HA 000000018004d7d0 f   njsConnection.obj
 0001:0004c7dc       ?catch$2@?0??Async_Release@Connection@@CAXPEAUuv_work_s@@@Z@4HA 000000018004d7dc f   njsConnection.obj
 0001:0004c7eb       __catch$?Async_Release@Connection@@CAXPEAUuv_work_s@@@Z$1 000000018004d7eb f   njsConnection.obj
 0001:0004c8c2       ?dtor$1@?0??Async_Release@Connection@@CAXPEAUuv_work_s@@@Z@4HA 000000018004d8c2 f   njsConnection.obj
 0001:0004c8d0       ?dtor$0@?0??Async_AfterRelease@Connection@@CAXPEAUuv_work_s@@@Z@4HA 000000018004d8d0 f   njsConnection.obj
 0001:0004c8dc       ?dtor$1@?0??Async_AfterRelease@Connection@@CAXPEAUuv_work_s@@@Z@4HA 000000018004d8dc f   njsConnection.obj
 0001:0004c8e8       ?dtor$3@?0??Async_AfterRelease@Connection@@CAXPEAUuv_work_s@@@Z@4HA 000000018004d8e8 f   njsConnection.obj
 0001:0004c900       ?dtor$0@?0??Break@Connection@@CAXAEBV?$FunctionCallbackInfo@VValue@v8@@@Nan@@@Z@4HA 000000018004d900 f   njsConnection.obj
 0001:0004c900       ?dtor$0@?0??Commit@Connection@@CAXAEBV?$FunctionCallbackInfo@VValue@v8@@@Nan@@@Z@4HA 000000018004d900 f   njsConnection.obj
 0001:0004c900       ?dtor$0@?0??Rollback@Connection@@CAXAEBV?$FunctionCallbackInfo@VValue@v8@@@Nan@@@Z@4HA 000000018004d900 f   njsConnection.obj
 0001:0004c90c       ?dtor$1@?0??Rollback@Connection@@CAXAEBV?$FunctionCallbackInfo@VValue@v8@@@Nan@@@Z@4HA 000000018004d90c f   njsConnection.obj
 0001:0004c90c       ?dtor$1@?0??Break@Connection@@CAXAEBV?$FunctionCallbackInfo@VValue@v8@@@Nan@@@Z@4HA 000000018004d90c f   njsConnection.obj
 0001:0004c90c       ?dtor$1@?0??Commit@Connection@@CAXAEBV?$FunctionCallbackInfo@VValue@v8@@@Nan@@@Z@4HA 000000018004d90c f   njsConnection.obj
 0001:0004c918       ?dtor$2@?0??Rollback@Connection@@CAXAEBV?$FunctionCallbackInfo@VValue@v8@@@Nan@@@Z@4HA 000000018004d918 f   njsConnection.obj
 0001:0004c918       ?dtor$2@?0??Break@Connection@@CAXAEBV?$FunctionCallbackInfo@VValue@v8@@@Nan@@@Z@4HA 000000018004d918 f   njsConnection.obj
 0001:0004c918       ?dtor$2@?0??Commit@Connection@@CAXAEBV?$FunctionCallbackInfo@VValue@v8@@@Nan@@@Z@4HA 000000018004d918 f   njsConnection.obj
 0001:0004c924       ?dtor$3@?0??Commit@Connection@@CAXAEBV?$FunctionCallbackInfo@VValue@v8@@@Nan@@@Z@4HA 000000018004d924 f   njsConnection.obj
 0001:0004c924       ?dtor$3@?0??Break@Connection@@CAXAEBV?$FunctionCallbackInfo@VValue@v8@@@Nan@@@Z@4HA 000000018004d924 f   njsConnection.obj
 0001:0004c924       ?dtor$3@?0??Rollback@Connection@@CAXAEBV?$FunctionCallbackInfo@VValue@v8@@@Nan@@@Z@4HA 000000018004d924 f   njsConnection.obj
 0001:0004c941       ?dtor$4@?0??Rollback@Connection@@CAXAEBV?$FunctionCallbackInfo@VValue@v8@@@Nan@@@Z@4HA 000000018004d941 f   njsConnection.obj
 0001:0004c941       ?dtor$4@?0??Commit@Connection@@CAXAEBV?$FunctionCallbackInfo@VValue@v8@@@Nan@@@Z@4HA 000000018004d941 f   njsConnection.obj
 0001:0004c941       ?dtor$4@?0??Break@Connection@@CAXAEBV?$FunctionCallbackInfo@VValue@v8@@@Nan@@@Z@4HA 000000018004d941 f   njsConnection.obj
 0001:0004c94d       ?dtor$5@?0??Break@Connection@@CAXAEBV?$FunctionCallbackInfo@VValue@v8@@@Nan@@@Z@4HA 000000018004d94d f   njsConnection.obj
 0001:0004c94d       ?dtor$5@?0??Commit@Connection@@CAXAEBV?$FunctionCallbackInfo@VValue@v8@@@Nan@@@Z@4HA 000000018004d94d f   njsConnection.obj
 0001:0004c94d       ?dtor$5@?0??Rollback@Connection@@CAXAEBV?$FunctionCallbackInfo@VValue@v8@@@Nan@@@Z@4HA 000000018004d94d f   njsConnection.obj
 0001:0004c959       ?dtor$6@?0??Rollback@Connection@@CAXAEBV?$FunctionCallbackInfo@VValue@v8@@@Nan@@@Z@4HA 000000018004d959 f   njsConnection.obj
 0001:0004c959       ?dtor$6@?0??Commit@Connection@@CAXAEBV?$FunctionCallbackInfo@VValue@v8@@@Nan@@@Z@4HA 000000018004d959 f   njsConnection.obj
 0001:0004c959       ?dtor$6@?0??Break@Connection@@CAXAEBV?$FunctionCallbackInfo@VValue@v8@@@Nan@@@Z@4HA 000000018004d959 f   njsConnection.obj
 0001:0004c970       ?catch$1@?0??Async_Commit@Connection@@CAXPEAUuv_work_s@@@Z@4HA 000000018004d970 f   njsConnection.obj
 0001:0004c97f       __catch$?Async_Commit@Connection@@CAXPEAUuv_work_s@@@Z$1 000000018004d97f f   njsConnection.obj
 0001:0004ca52       ?dtor$0@?0??Async_Commit@Connection@@CAXPEAUuv_work_s@@@Z@4HA 000000018004da52 f   njsConnection.obj
 0001:0004ca60       ?catch$1@?0??Async_Rollback@Connection@@CAXPEAUuv_work_s@@@Z@4HA 000000018004da60 f   njsConnection.obj
 0001:0004ca6f       __catch$?Async_Rollback@Connection@@CAXPEAUuv_work_s@@@Z$1 000000018004da6f f   njsConnection.obj
 0001:0004cb42       ?dtor$0@?0??Async_Rollback@Connection@@CAXPEAUuv_work_s@@@Z@4HA 000000018004db42 f   njsConnection.obj
 0001:0004cb50       ?catch$1@?0??Async_Break@Connection@@CAXPEAUuv_work_s@@@Z@4HA 000000018004db50 f   njsConnection.obj
 0001:0004cb5f       __catch$?Async_Break@Connection@@CAXPEAUuv_work_s@@@Z$1 000000018004db5f f   njsConnection.obj
 0001:0004cc32       ?dtor$0@?0??Async_Break@Connection@@CAXPEAUuv_work_s@@@Z@4HA 000000018004dc32 f   njsConnection.obj
 0001:0004cc40       ?dtor$0@?0??CreateLob@Connection@@CAXAEBV?$FunctionCallbackInfo@VValue@v8@@@Nan@@@Z@4HA 000000018004dc40 f   njsConnection.obj
 0001:0004cc4c       ?dtor$1@?0??CreateLob@Connection@@CAXAEBV?$FunctionCallbackInfo@VValue@v8@@@Nan@@@Z@4HA 000000018004dc4c f   njsConnection.obj
 0001:0004cc58       ?dtor$2@?0??CreateLob@Connection@@CAXAEBV?$FunctionCallbackInfo@VValue@v8@@@Nan@@@Z@4HA 000000018004dc58 f   njsConnection.obj
 0001:0004cc64       ?dtor$3@?0??CreateLob@Connection@@CAXAEBV?$FunctionCallbackInfo@VValue@v8@@@Nan@@@Z@4HA 000000018004dc64 f   njsConnection.obj
 0001:0004cc81       ?dtor$4@?0??CreateLob@Connection@@CAXAEBV?$FunctionCallbackInfo@VValue@v8@@@Nan@@@Z@4HA 000000018004dc81 f   njsConnection.obj
 0001:0004cc8d       ?dtor$5@?0??CreateLob@Connection@@CAXAEBV?$FunctionCallbackInfo@VValue@v8@@@Nan@@@Z@4HA 000000018004dc8d f   njsConnection.obj
 0001:0004cc99       ?dtor$6@?0??CreateLob@Connection@@CAXAEBV?$FunctionCallbackInfo@VValue@v8@@@Nan@@@Z@4HA 000000018004dc99 f   njsConnection.obj
 0001:0004cca5       ?dtor$7@?0??CreateLob@Connection@@CAXAEBV?$FunctionCallbackInfo@VValue@v8@@@Nan@@@Z@4HA 000000018004dca5 f   njsConnection.obj
 0001:0004ccb1       ?dtor$10@?0??CreateLob@Connection@@CAXAEBV?$FunctionCallbackInfo@VValue@v8@@@Nan@@@Z@4HA 000000018004dcb1 f   njsConnection.obj
 0001:0004ccc0       ?catch$1@?0??Async_CreateLob@Connection@@CAXPEAUuv_work_s@@@Z@4HA 000000018004dcc0 f   njsConnection.obj
 0001:0004cccf       __catch$?Async_CreateLob@Connection@@CAXPEAUuv_work_s@@@Z$1 000000018004dccf f   njsConnection.obj
 0001:0004cda2       ?dtor$0@?0??Async_CreateLob@Connection@@CAXPEAUuv_work_s@@@Z@4HA 000000018004dda2 f   njsConnection.obj
 0001:0004cdb0       ?dtor$0@?0??Async_AfterCreateLob@Connection@@CAXPEAUuv_work_s@@@Z@4HA 000000018004ddb0 f   njsConnection.obj
 0001:0004cdbc       ?dtor$1@?0??Async_AfterCreateLob@Connection@@CAXPEAUuv_work_s@@@Z@4HA 000000018004ddbc f   njsConnection.obj
 0001:0004cdc8       ?dtor$3@?0??Async_AfterCreateLob@Connection@@CAXPEAUuv_work_s@@@Z@4HA 000000018004ddc8 f   njsConnection.obj
 0001:0004cdf0       ?dtor$1@?0??cbDynBufferAllocate@Connection@@CAXPEAX_NII@Z@4HA 000000018004ddf0 f   njsConnection.obj
 0001:0004cdfc       ?dtor$3@?0??cbDynBufferAllocate@Connection@@CAXPEAX_NII@Z@4HA 000000018004ddfc f   njsConnection.obj
 0001:0004ce08       ?dtor$4@?0??cbDynBufferAllocate@Connection@@CAXPEAX_NII@Z@4HA 000000018004de08 f   njsConnection.obj
 0001:0004ce14       ?dtor$5@?0??cbDynBufferAllocate@Connection@@CAXPEAX_NII@Z@4HA 000000018004de14 f   njsConnection.obj
 0001:0004ce20       ?dtor$6@?0??cbDynBufferAllocate@Connection@@CAXPEAX_NII@Z@4HA 000000018004de20 f   njsConnection.obj
 0001:0004ce2c       ?dtor$8@?0??cbDynBufferAllocate@Connection@@CAXPEAX_NII@Z@4HA 000000018004de2c f   njsConnection.obj
 0001:0004ce38       ?dtor$10@?0??cbDynBufferAllocate@Connection@@CAXPEAX_NII@Z@4HA 000000018004de38 f   njsConnection.obj
 0001:0004ce44       ?dtor$12@?0??cbDynBufferAllocate@Connection@@CAXPEAX_NII@Z@4HA 000000018004de44 f   njsConnection.obj
 0001:0004ce50       ?dtor$14@?0??cbDynBufferAllocate@Connection@@CAXPEAX_NII@Z@4HA 000000018004de50 f   njsConnection.obj
 0001:0004ce5c       ?dtor$16@?0??cbDynBufferAllocate@Connection@@CAXPEAX_NII@Z@4HA 000000018004de5c f   njsConnection.obj
 0001:0004ce68       ?dtor$17@?0??cbDynBufferAllocate@Connection@@CAXPEAX_NII@Z@4HA 000000018004de68 f   njsConnection.obj
 0001:0004ce74       ?dtor$18@?0??cbDynBufferAllocate@Connection@@CAXPEAX_NII@Z@4HA 000000018004de74 f   njsConnection.obj
 0001:0004ce80       ?dtor$19@?0??cbDynBufferAllocate@Connection@@CAXPEAX_NII@Z@4HA 000000018004de80 f   njsConnection.obj
 0001:0004ce90       ?dtor$0@?0???0rsBaton@@QEAA@AEAIV?$Local@VFunction@v8@@@v8@@V?$Local@VObject@v8@@@2@2@Z@4HA 000000018004de90 f   njsResultSet.obj
 0001:0004cea3       ?dtor$1@?0???0rsBaton@@QEAA@AEAIV?$Local@VFunction@v8@@@v8@@V?$Local@VObject@v8@@@2@2@Z@4HA 000000018004dea3 f   njsResultSet.obj
 0001:0004ceb6       ?dtor$2@?0???0rsBaton@@QEAA@AEAIV?$Local@VFunction@v8@@@v8@@V?$Local@VObject@v8@@@2@2@Z@4HA 000000018004deb6 f   njsResultSet.obj
 0001:0004cee0       ?dtor$0@?0??setResultSet@ResultSet@@QEAAXPEAVStmt@dpi@@PEAUeBaton@@IPEBUMetaInfo@@@Z@4HA 000000018004dee0 f   njsResultSet.obj
 0001:0004cf1e       ?dtor$1@?0??setResultSet@ResultSet@@QEAAXPEAVStmt@dpi@@PEAUeBaton@@IPEBUMetaInfo@@@Z@4HA 000000018004df1e f   njsResultSet.obj
 0001:0004cf30       ?dtor$0@?0??GetMetaData@ResultSet@@CAXV?$Local@VString@v8@@@v8@@AEBV?$PropertyCallbackInfo@VValue@v8@@@Nan@@@Z@4HA 000000018004df30 f   njsResultSet.obj
 0001:0004cf3c       ?dtor$1@?0??GetMetaData@ResultSet@@CAXV?$Local@VString@v8@@@v8@@AEBV?$PropertyCallbackInfo@VValue@v8@@@Nan@@@Z@4HA 000000018004df3c f   njsResultSet.obj
 0001:0004cf48       ?dtor$2@?0??GetMetaData@ResultSet@@CAXV?$Local@VString@v8@@@v8@@AEBV?$PropertyCallbackInfo@VValue@v8@@@Nan@@@Z@4HA 000000018004df48 f   njsResultSet.obj
 0001:0004cf54       ?dtor$3@?0??GetMetaData@ResultSet@@CAXV?$Local@VString@v8@@@v8@@AEBV?$PropertyCallbackInfo@VValue@v8@@@Nan@@@Z@4HA 000000018004df54 f   njsResultSet.obj
 0001:0004cf60       ?dtor$0@?0??SetMetaData@ResultSet@@CAXV?$Local@VString@v8@@@v8@@V?$Local@VValue@v8@@@3@AEBV?$PropertyCallbackInfo@X@Nan@@@Z@4HA 000000018004df60 f   njsResultSet.obj
 0001:0004cf6c       ?dtor$1@?0??SetMetaData@ResultSet@@CAXV?$Local@VString@v8@@@v8@@V?$Local@VValue@v8@@@3@AEBV?$PropertyCallbackInfo@X@Nan@@@Z@4HA 000000018004df6c f   njsResultSet.obj
 0001:0004cf78       ?dtor$2@?0??SetMetaData@ResultSet@@CAXV?$Local@VString@v8@@@v8@@V?$Local@VValue@v8@@@3@AEBV?$PropertyCallbackInfo@X@Nan@@@Z@4HA 000000018004df78 f   njsResultSet.obj
 0001:0004cf84       ?dtor$3@?0??SetMetaData@ResultSet@@CAXV?$Local@VString@v8@@@v8@@V?$Local@VValue@v8@@@3@AEBV?$PropertyCallbackInfo@X@Nan@@@Z@4HA 000000018004df84 f   njsResultSet.obj
 0001:0004cf90       ?dtor$4@?0??SetMetaData@ResultSet@@CAXV?$Local@VString@v8@@@v8@@V?$Local@VValue@v8@@@3@AEBV?$PropertyCallbackInfo@X@Nan@@@Z@4HA 000000018004df90 f   njsResultSet.obj
 0001:0004cfa0       ?dtor$0@?0??GetRow@ResultSet@@CAXAEBV?$FunctionCallbackInfo@VValue@v8@@@Nan@@@Z@4HA 000000018004dfa0 f   njsResultSet.obj
 0001:0004cfac       ?dtor$1@?0??GetRow@ResultSet@@CAXAEBV?$FunctionCallbackInfo@VValue@v8@@@Nan@@@Z@4HA 000000018004dfac f   njsResultSet.obj
 0001:0004cfb8       ?dtor$2@?0??GetRow@ResultSet@@CAXAEBV?$FunctionCallbackInfo@VValue@v8@@@Nan@@@Z@4HA 000000018004dfb8 f   njsResultSet.obj
 0001:0004cfc4       ?dtor$3@?0??GetRow@ResultSet@@CAXAEBV?$FunctionCallbackInfo@VValue@v8@@@Nan@@@Z@4HA 000000018004dfc4 f   njsResultSet.obj
 0001:0004cfe1       ?dtor$4@?0??GetRow@ResultSet@@CAXAEBV?$FunctionCallbackInfo@VValue@v8@@@Nan@@@Z@4HA 000000018004dfe1 f   njsResultSet.obj
 0001:0004cfed       ?dtor$5@?0??GetRow@ResultSet@@CAXAEBV?$FunctionCallbackInfo@VValue@v8@@@Nan@@@Z@4HA 000000018004dfed f   njsResultSet.obj
 0001:0004cff9       ?dtor$6@?0??GetRow@ResultSet@@CAXAEBV?$FunctionCallbackInfo@VValue@v8@@@Nan@@@Z@4HA 000000018004dff9 f   njsResultSet.obj
 0001:0004d010       ?dtor$0@?0??GetRows@ResultSet@@CAXAEBV?$FunctionCallbackInfo@VValue@v8@@@Nan@@@Z@4HA 000000018004e010 f   njsResultSet.obj
 0001:0004d01c       ?dtor$1@?0??GetRows@ResultSet@@CAXAEBV?$FunctionCallbackInfo@VValue@v8@@@Nan@@@Z@4HA 000000018004e01c f   njsResultSet.obj
 0001:0004d028       ?dtor$2@?0??GetRows@ResultSet@@CAXAEBV?$FunctionCallbackInfo@VValue@v8@@@Nan@@@Z@4HA 000000018004e028 f   njsResultSet.obj
 0001:0004d034       ?dtor$3@?0??GetRows@ResultSet@@CAXAEBV?$FunctionCallbackInfo@VValue@v8@@@Nan@@@Z@4HA 000000018004e034 f   njsResultSet.obj
 0001:0004d051       ?dtor$4@?0??GetRows@ResultSet@@CAXAEBV?$FunctionCallbackInfo@VValue@v8@@@Nan@@@Z@4HA 000000018004e051 f   njsResultSet.obj
 0001:0004d05d       ?dtor$5@?0??GetRows@ResultSet@@CAXAEBV?$FunctionCallbackInfo@VValue@v8@@@Nan@@@Z@4HA 000000018004e05d f   njsResultSet.obj
 0001:0004d069       ?dtor$6@?0??GetRows@ResultSet@@CAXAEBV?$FunctionCallbackInfo@VValue@v8@@@Nan@@@Z@4HA 000000018004e069 f   njsResultSet.obj
 0001:0004d075       ?dtor$7@?0??GetRows@ResultSet@@CAXAEBV?$FunctionCallbackInfo@VValue@v8@@@Nan@@@Z@4HA 000000018004e075 f   njsResultSet.obj
 0001:0004d081       ?dtor$8@?0??GetRows@ResultSet@@CAXAEBV?$FunctionCallbackInfo@VValue@v8@@@Nan@@@Z@4HA 000000018004e081 f   njsResultSet.obj
 0001:0004d090       ?dtor$0@?0??GetRowsCommon@ResultSet@@CAXPEAUrsBaton@@@Z@4HA 000000018004e090 f   njsResultSet.obj
 0001:0004d09c       ?dtor$1@?0??GetRowsCommon@ResultSet@@CAXPEAUrsBaton@@@Z@4HA 000000018004e09c f   njsResultSet.obj
 0001:0004d0b0       ?catch$1@?0??Async_GetRows@ResultSet@@CAXPEAUuv_work_s@@@Z@4HA 000000018004e0b0 f   njsResultSet.obj
 0001:0004d0bf       __catch$?Async_GetRows@ResultSet@@CAXPEAUuv_work_s@@@Z$4 000000018004e0bf f   njsResultSet.obj
 0001:0004d196       ?dtor$0@?0??Async_GetRows@ResultSet@@CAXPEAUuv_work_s@@@Z@4HA 000000018004e196 f   njsResultSet.obj
 0001:0004d1b0       ?dtor$0@?0??Close@ResultSet@@CAXAEBV?$FunctionCallbackInfo@VValue@v8@@@Nan@@@Z@4HA 000000018004e1b0 f   njsResultSet.obj
 0001:0004d1bc       ?dtor$1@?0??Close@ResultSet@@CAXAEBV?$FunctionCallbackInfo@VValue@v8@@@Nan@@@Z@4HA 000000018004e1bc f   njsResultSet.obj
 0001:0004d1c8       ?dtor$2@?0??Close@ResultSet@@CAXAEBV?$FunctionCallbackInfo@VValue@v8@@@Nan@@@Z@4HA 000000018004e1c8 f   njsResultSet.obj
 0001:0004d1d4       ?dtor$3@?0??Close@ResultSet@@CAXAEBV?$FunctionCallbackInfo@VValue@v8@@@Nan@@@Z@4HA 000000018004e1d4 f   njsResultSet.obj
 0001:0004d1f1       ?dtor$4@?0??Close@ResultSet@@CAXAEBV?$FunctionCallbackInfo@VValue@v8@@@Nan@@@Z@4HA 000000018004e1f1 f   njsResultSet.obj
 0001:0004d1fd       ?dtor$5@?0??Close@ResultSet@@CAXAEBV?$FunctionCallbackInfo@VValue@v8@@@Nan@@@Z@4HA 000000018004e1fd f   njsResultSet.obj
 0001:0004d209       ?dtor$6@?0??Close@ResultSet@@CAXAEBV?$FunctionCallbackInfo@VValue@v8@@@Nan@@@Z@4HA 000000018004e209 f   njsResultSet.obj
 0001:0004d215       ?dtor$7@?0??Close@ResultSet@@CAXAEBV?$FunctionCallbackInfo@VValue@v8@@@Nan@@@Z@4HA 000000018004e215 f   njsResultSet.obj
 0001:0004d221       ?dtor$8@?0??Close@ResultSet@@CAXAEBV?$FunctionCallbackInfo@VValue@v8@@@Nan@@@Z@4HA 000000018004e221 f   njsResultSet.obj
 0001:0004d230       ?catch$1@?0??Async_Close@ResultSet@@CAXPEAUuv_work_s@@@Z@4HA 000000018004e230 f   njsResultSet.obj
 0001:0004d240       __catch$?Async_Close@ResultSet@@CAXPEAUuv_work_s@@@Z$1 000000018004e240 f   njsResultSet.obj
 0001:0004d318       ?dtor$0@?0??Async_Close@ResultSet@@CAXPEAUuv_work_s@@@Z@4HA 000000018004e318 f   njsResultSet.obj
 0001:0004d330       ?dtor$0@?0??getErrorMsg@NJSMessages@@SA?AV?$basic_string@DU?$char_traits@D@std@@V?$allocator@D@2@@std@@W4NJSErrorType@@ZZ@4HA 000000018004e330 f   njsMessages.obj
 0001:0004d360       ?dtor$0@?0???0LobBaton@@QEAA@AEAIV?$Local@VObject@v8@@@v8@@V?$Local@VFunction@v8@@@2@1@Z@4HA 000000018004e360 f   njsIntLob.obj
 0001:0004d360       ?dtor$0@?0???0LobBaton@@QEAA@AEAIV?$Local@VFunction@v8@@@v8@@V?$Local@VObject@v8@@@2@@Z@4HA 000000018004e360 f   njsIntLob.obj
 0001:0004d373       ?dtor$1@?0???0LobBaton@@QEAA@AEAIV?$Local@VFunction@v8@@@v8@@V?$Local@VObject@v8@@@2@@Z@4HA 000000018004e373 f   njsIntLob.obj
 0001:0004d373       ?dtor$1@?0???0LobBaton@@QEAA@AEAIV?$Local@VObject@v8@@@v8@@V?$Local@VFunction@v8@@@2@1@Z@4HA 000000018004e373 f   njsIntLob.obj
 0001:0004d386       ?dtor$2@?0???0LobBaton@@QEAA@AEAIV?$Local@VObject@v8@@@v8@@V?$Local@VFunction@v8@@@2@1@Z@4HA 000000018004e386 f   njsIntLob.obj
 0001:0004d386       ?dtor$2@?0???0LobBaton@@QEAA@AEAIV?$Local@VFunction@v8@@@v8@@V?$Local@VObject@v8@@@2@@Z@4HA 000000018004e386 f   njsIntLob.obj
 0001:0004d399       ?dtor$3@?0???0LobBaton@@QEAA@AEAIV?$Local@VFunction@v8@@@v8@@V?$Local@VObject@v8@@@2@@Z@4HA 000000018004e399 f   njsIntLob.obj
 0001:0004d399       ?dtor$3@?0???0LobBaton@@QEAA@AEAIV?$Local@VObject@v8@@@v8@@V?$Local@VFunction@v8@@@2@1@Z@4HA 000000018004e399 f   njsIntLob.obj
 0001:0004d3ac       ?dtor$4@?0???0LobBaton@@QEAA@AEAIV?$Local@VObject@v8@@@v8@@V?$Local@VFunction@v8@@@2@1@Z@4HA 000000018004e3ac f   njsIntLob.obj
 0001:0004d3ac       ?dtor$4@?0???0LobBaton@@QEAA@AEAIV?$Local@VFunction@v8@@@v8@@V?$Local@VObject@v8@@@2@@Z@4HA 000000018004e3ac f   njsIntLob.obj
 0001:0004d3c0       ?catch$0@?0??cleanupDPI@ILob@@QEAAXXZ@4HA 000000018004e3c0 f   njsIntLob.obj
 0001:0004d3cd       __catch$?cleanupDPI@ILob@@QEAAXXZ$0 000000018004e3cd f   njsIntLob.obj
 0001:0004d3e0       ?catch$1@?0??setILob@ILob@@QEAAXPEAUeBaton@@PEAVProtoILob@@_N@Z@4HA 000000018004e3e0 f   njsIntLob.obj
 0001:0004d3ef       __catch$?setILob@ILob@@QEAAXPEAUeBaton@@PEAVProtoILob@@_N@Z$0 000000018004e3ef f   njsIntLob.obj
 0001:0004d4d4       ?dtor$0@?0??setILob@ILob@@QEAAXPEAUeBaton@@PEAVProtoILob@@_N@Z@4HA 000000018004e4d4 f   njsIntLob.obj
 0001:0004d4e0       ?dtor$0@?0??Release@ILob@@CAXAEBV?$FunctionCallbackInfo@VValue@v8@@@Nan@@@Z@4HA 000000018004e4e0 f   njsIntLob.obj
 0001:0004d4ec       ?dtor$1@?0??Release@ILob@@CAXAEBV?$FunctionCallbackInfo@VValue@v8@@@Nan@@@Z@4HA 000000018004e4ec f   njsIntLob.obj
 0001:0004d4f8       ?dtor$2@?0??Release@ILob@@CAXAEBV?$FunctionCallbackInfo@VValue@v8@@@Nan@@@Z@4HA 000000018004e4f8 f   njsIntLob.obj
 0001:0004d504       ?dtor$3@?0??Release@ILob@@CAXAEBV?$FunctionCallbackInfo@VValue@v8@@@Nan@@@Z@4HA 000000018004e504 f   njsIntLob.obj
 0001:0004d510       ?dtor$0@?0??Close@ILob@@CAXAEBV?$FunctionCallbackInfo@VValue@v8@@@Nan@@@Z@4HA 000000018004e510 f   njsIntLob.obj
 0001:0004d51c       ?dtor$1@?0??Close@ILob@@CAXAEBV?$FunctionCallbackInfo@VValue@v8@@@Nan@@@Z@4HA 000000018004e51c f   njsIntLob.obj
 0001:0004d528       ?dtor$2@?0??Close@ILob@@CAXAEBV?$FunctionCallbackInfo@VValue@v8@@@Nan@@@Z@4HA 000000018004e528 f   njsIntLob.obj
 0001:0004d534       ?dtor$3@?0??Close@ILob@@CAXAEBV?$FunctionCallbackInfo@VValue@v8@@@Nan@@@Z@4HA 000000018004e534 f   njsIntLob.obj
 0001:0004d540       ?dtor$4@?0??Close@ILob@@CAXAEBV?$FunctionCallbackInfo@VValue@v8@@@Nan@@@Z@4HA 000000018004e540 f   njsIntLob.obj
 0001:0004d55d       ?dtor$5@?0??Close@ILob@@CAXAEBV?$FunctionCallbackInfo@VValue@v8@@@Nan@@@Z@4HA 000000018004e55d f   njsIntLob.obj
 0001:0004d569       ?dtor$6@?0??Close@ILob@@CAXAEBV?$FunctionCallbackInfo@VValue@v8@@@Nan@@@Z@4HA 000000018004e569 f   njsIntLob.obj
 0001:0004d575       ?dtor$7@?0??Close@ILob@@CAXAEBV?$FunctionCallbackInfo@VValue@v8@@@Nan@@@Z@4HA 000000018004e575 f   njsIntLob.obj
 0001:0004d581       ?dtor$8@?0??Close@ILob@@CAXAEBV?$FunctionCallbackInfo@VValue@v8@@@Nan@@@Z@4HA 000000018004e581 f   njsIntLob.obj
 0001:0004d590       ?dtor$0@?0??GetChunkSize@ILob@@CAXV?$Local@VString@v8@@@v8@@AEBV?$PropertyCallbackInfo@VValue@v8@@@Nan@@@Z@4HA 000000018004e590 f   njsIntLob.obj
 0001:0004d59c       ?dtor$1@?0??GetChunkSize@ILob@@CAXV?$Local@VString@v8@@@v8@@AEBV?$PropertyCallbackInfo@VValue@v8@@@Nan@@@Z@4HA 000000018004e59c f   njsIntLob.obj
 0001:0004d5a8       ?dtor$2@?0??GetChunkSize@ILob@@CAXV?$Local@VString@v8@@@v8@@AEBV?$PropertyCallbackInfo@VValue@v8@@@Nan@@@Z@4HA 000000018004e5a8 f   njsIntLob.obj
 0001:0004d5b4       ?catch$3@?0??GetChunkSize@ILob@@CAXV?$Local@VString@v8@@@v8@@AEBV?$PropertyCallbackInfo@VValue@v8@@@Nan@@@Z@4HA 000000018004e5b4 f   njsIntLob.obj
 0001:0004d5c3       __catch$?GetChunkSize@ILob@@CAXV?$Local@VString@v8@@@v8@@AEBV?$PropertyCallbackInfo@VValue@v8@@@Nan@@@Z$0 000000018004e5c3 f   njsIntLob.obj
 0001:0004d650       ?dtor$0@?0??GetLength@ILob@@CAXV?$Local@VString@v8@@@v8@@AEBV?$PropertyCallbackInfo@VValue@v8@@@Nan@@@Z@4HA 000000018004e650 f   njsIntLob.obj
 0001:0004d65c       ?dtor$1@?0??GetLength@ILob@@CAXV?$Local@VString@v8@@@v8@@AEBV?$PropertyCallbackInfo@VValue@v8@@@Nan@@@Z@4HA 000000018004e65c f   njsIntLob.obj
 0001:0004d668       ?dtor$2@?0??GetLength@ILob@@CAXV?$Local@VString@v8@@@v8@@AEBV?$PropertyCallbackInfo@VValue@v8@@@Nan@@@Z@4HA 000000018004e668 f   njsIntLob.obj
 0001:0004d674       ?catch$3@?0??GetLength@ILob@@CAXV?$Local@VString@v8@@@v8@@AEBV?$PropertyCallbackInfo@VValue@v8@@@Nan@@@Z@4HA 000000018004e674 f   njsIntLob.obj
 0001:0004d683       __catch$?GetLength@ILob@@CAXV?$Local@VString@v8@@@v8@@AEBV?$PropertyCallbackInfo@VValue@v8@@@Nan@@@Z$0 000000018004e683 f   njsIntLob.obj
 0001:0004d710       ?dtor$0@?0??GetPieceSize@ILob@@CAXV?$Local@VString@v8@@@v8@@AEBV?$PropertyCallbackInfo@VValue@v8@@@Nan@@@Z@4HA 000000018004e710 f   njsIntLob.obj
 0001:0004d71c       ?dtor$1@?0??GetPieceSize@ILob@@CAXV?$Local@VString@v8@@@v8@@AEBV?$PropertyCallbackInfo@VValue@v8@@@Nan@@@Z@4HA 000000018004e71c f   njsIntLob.obj
 0001:0004d728       ?dtor$2@?0??GetPieceSize@ILob@@CAXV?$Local@VString@v8@@@v8@@AEBV?$PropertyCallbackInfo@VValue@v8@@@Nan@@@Z@4HA 000000018004e728 f   njsIntLob.obj
 0001:0004d734       ?catch$3@?0??GetPieceSize@ILob@@CAXV?$Local@VString@v8@@@v8@@AEBV?$PropertyCallbackInfo@VValue@v8@@@Nan@@@Z@4HA 000000018004e734 f   njsIntLob.obj
 0001:0004d743       __catch$?GetPieceSize@ILob@@CAXV?$Local@VString@v8@@@v8@@AEBV?$PropertyCallbackInfo@VValue@v8@@@Nan@@@Z$0 000000018004e743 f   njsIntLob.obj
 0001:0004d7d0       ?dtor$0@?0??SetPieceSize@ILob@@CAXV?$Local@VString@v8@@@v8@@V?$Local@VValue@v8@@@3@AEBV?$PropertyCallbackInfo@X@Nan@@@Z@4HA 000000018004e7d0 f   njsIntLob.obj
 0001:0004d7dc       ?dtor$1@?0??SetPieceSize@ILob@@CAXV?$Local@VString@v8@@@v8@@V?$Local@VValue@v8@@@3@AEBV?$PropertyCallbackInfo@X@Nan@@@Z@4HA 000000018004e7dc f   njsIntLob.obj
